
main:     file format elf32-tradlittlemips


Disassembly of section .text:

a0800200 <_start>:
a0800200:	27bdffe8 	addiu	sp,sp,-24
a0800204:	afbf0014 	sw	ra,20(sp)
a0800208:	afbe0010 	sw	s8,16(sp)
a080020c:	03a0f021 	move	s8,sp
a0800210:	0c200094 	jal	a0800250 <asm_start>
a0800214:	00000000 	nop
a0800218:	0c200def 	jal	a08037bc <init_exception>
a080021c:	00000000 	nop
a0800220:	0c200e2c 	jal	a08038b0 <init_syscall>
a0800224:	00000000 	nop
a0800228:	0c200c98 	jal	a0803260 <init_pcb>
a080022c:	00000000 	nop
a0800230:	0c2005ed 	jal	a08017b4 <init_screen>
a0800234:	00000000 	nop
a0800238:	0c202ba1 	jal	a080ae84 <init_fs>
a080023c:	00000000 	nop
a0800240:	0c2000b5 	jal	a08002d4 <do_scheduler>
a0800244:	00000000 	nop
a0800248:	08200090 	j	a0800240 <_start+0x40>
a080024c:	00000000 	nop

a0800250 <asm_start>:
a0800250:	40806000 	mtc0	zero,c0_sr
a0800254:	00000000 	nop
a0800258:	40809000 	mtc0	zero,c0_watchlo
a080025c:	00000000 	nop
a0800260:	40809800 	mtc0	zero,c0_watchhi
a0800264:	00000000 	nop
a0800268:	40088000 	mfc0	t0,c0_config
a080026c:	00000000 	nop
a0800270:	2401fff8 	li	at,-8
a0800274:	01014024 	and	t0,t0,at
a0800278:	35080002 	ori	t0,t0,0x2
a080027c:	40888000 	mtc0	t0,c0_config
a0800280:	00000000 	nop
a0800284:	03e00008 	jr	ra
a0800288:	00000000 	nop

a080028c <close_clock_interrupt>:
a080028c:	401a6000 	mfc0	k0,c0_sr
a0800290:	00000000 	nop
a0800294:	3c1bffff 	lui	k1,0xffff
a0800298:	377b7fff 	ori	k1,k1,0x7fff
a080029c:	035bd024 	and	k0,k0,k1
a08002a0:	409a6000 	mtc0	k0,c0_sr
a08002a4:	00000000 	nop
a08002a8:	03e00008 	jr	ra
a08002ac:	00000000 	nop

a08002b0 <enable_clock_interrupt>:
a08002b0:	401a6000 	mfc0	k0,c0_sr
a08002b4:	00000000 	nop
a08002b8:	3c1bffff 	lui	k1,0xffff
a08002bc:	377b7fff 	ori	k1,k1,0x7fff
a08002c0:	035bd025 	or	k0,k0,k1
a08002c4:	409a6000 	mtc0	k0,c0_sr
a08002c8:	00000000 	nop
a08002cc:	03e00008 	jr	ra
a08002d0:	00000000 	nop

a08002d4 <do_scheduler>:
a08002d4:	3c1aa081 	lui	k0,0xa081
a08002d8:	8f5a7290 	lw	k0,29328(k0)
a08002dc:	235a0000 	addi	k0,k0,0
a08002e0:	af400000 	sw	zero,0(k0)
a08002e4:	af410004 	sw	at,4(k0)
a08002e8:	af420008 	sw	v0,8(k0)
a08002ec:	af43000c 	sw	v1,12(k0)
a08002f0:	af440010 	sw	a0,16(k0)
a08002f4:	af450014 	sw	a1,20(k0)
a08002f8:	af460018 	sw	a2,24(k0)
a08002fc:	af47001c 	sw	a3,28(k0)
a0800300:	af480020 	sw	t0,32(k0)
a0800304:	af490024 	sw	t1,36(k0)
a0800308:	af4a0028 	sw	t2,40(k0)
a080030c:	af4b002c 	sw	t3,44(k0)
a0800310:	af4c0030 	sw	t4,48(k0)
a0800314:	af4d0034 	sw	t5,52(k0)
a0800318:	af4e0038 	sw	t6,56(k0)
a080031c:	af4f003c 	sw	t7,60(k0)
a0800320:	af580040 	sw	t8,64(k0)
a0800324:	af590044 	sw	t9,68(k0)
a0800328:	af500048 	sw	s0,72(k0)
a080032c:	af51004c 	sw	s1,76(k0)
a0800330:	af520050 	sw	s2,80(k0)
a0800334:	af530054 	sw	s3,84(k0)
a0800338:	af540058 	sw	s4,88(k0)
a080033c:	af55005c 	sw	s5,92(k0)
a0800340:	af560060 	sw	s6,96(k0)
a0800344:	af570064 	sw	s7,100(k0)
a0800348:	af5c0070 	sw	gp,112(k0)
a080034c:	af5d0074 	sw	sp,116(k0)
a0800350:	af5e0078 	sw	s8,120(k0)
a0800354:	af5f007c 	sw	ra,124(k0)
a0800358:	401b6000 	mfc0	k1,c0_sr
a080035c:	00000000 	nop
a0800360:	af5b0080 	sw	k1,128(k0)
a0800364:	401be800 	mfc0	k1,c0_taghi
a0800368:	00000000 	nop
a080036c:	af5b0084 	sw	k1,132(k0)
a0800370:	401be000 	mfc0	k1,c0_taglo
a0800374:	00000000 	nop
a0800378:	af5b0088 	sw	k1,136(k0)
a080037c:	401b4000 	mfc0	k1,c0_badvaddr
a0800380:	00000000 	nop
a0800384:	af5b008c 	sw	k1,140(k0)
a0800388:	401b6800 	mfc0	k1,c0_cause
a080038c:	00000000 	nop
a0800390:	af5b0090 	sw	k1,144(k0)
a0800394:	401b7000 	mfc0	k1,c0_epc
a0800398:	00000000 	nop
a080039c:	af5b0094 	sw	k1,148(k0)
a08003a0:	0c201b0e 	jal	a0806c38 <scheduler>
a08003a4:	00000000 	nop
a08003a8:	3c1aa081 	lui	k0,0xa081
a08003ac:	8f5a7290 	lw	k0,29328(k0)
a08003b0:	235a0000 	addi	k0,k0,0
a08003b4:	8f400000 	lw	zero,0(k0)
a08003b8:	8f410004 	lw	at,4(k0)
a08003bc:	8f420008 	lw	v0,8(k0)
a08003c0:	8f43000c 	lw	v1,12(k0)
a08003c4:	8f440010 	lw	a0,16(k0)
a08003c8:	8f450014 	lw	a1,20(k0)
a08003cc:	8f460018 	lw	a2,24(k0)
a08003d0:	8f47001c 	lw	a3,28(k0)
a08003d4:	8f480020 	lw	t0,32(k0)
a08003d8:	8f490024 	lw	t1,36(k0)
a08003dc:	8f4a0028 	lw	t2,40(k0)
a08003e0:	8f4b002c 	lw	t3,44(k0)
a08003e4:	8f4c0030 	lw	t4,48(k0)
a08003e8:	8f4d0034 	lw	t5,52(k0)
a08003ec:	8f4e0038 	lw	t6,56(k0)
a08003f0:	8f4f003c 	lw	t7,60(k0)
a08003f4:	8f580040 	lw	t8,64(k0)
a08003f8:	8f590044 	lw	t9,68(k0)
a08003fc:	8f500048 	lw	s0,72(k0)
a0800400:	8f51004c 	lw	s1,76(k0)
a0800404:	8f520050 	lw	s2,80(k0)
a0800408:	8f530054 	lw	s3,84(k0)
a080040c:	8f540058 	lw	s4,88(k0)
a0800410:	8f55005c 	lw	s5,92(k0)
a0800414:	8f560060 	lw	s6,96(k0)
a0800418:	8f570064 	lw	s7,100(k0)
a080041c:	8f5c0070 	lw	gp,112(k0)
a0800420:	8f5d0074 	lw	sp,116(k0)
a0800424:	8f5e0078 	lw	s8,120(k0)
a0800428:	8f5f007c 	lw	ra,124(k0)
a080042c:	8f5b0080 	lw	k1,128(k0)
a0800430:	409b6000 	mtc0	k1,c0_sr
a0800434:	00000000 	nop
a0800438:	8f5b0084 	lw	k1,132(k0)
a080043c:	409be800 	mtc0	k1,c0_taghi
a0800440:	00000000 	nop
a0800444:	8f5b0088 	lw	k1,136(k0)
a0800448:	409be000 	mtc0	k1,c0_taglo
a080044c:	00000000 	nop
a0800450:	8f5b008c 	lw	k1,140(k0)
a0800454:	409b4000 	mtc0	k1,c0_badvaddr
a0800458:	00000000 	nop
a080045c:	8f5b0090 	lw	k1,144(k0)
a0800460:	409b6800 	mtc0	k1,c0_cause
a0800464:	00000000 	nop
a0800468:	8f5b0094 	lw	k1,148(k0)
a080046c:	409b7000 	mtc0	k1,c0_epc
a0800470:	00000000 	nop
a0800474:	03e00008 	jr	ra
a0800478:	00000000 	nop

a080047c <exception_handler_entry>:
a080047c:	401a6000 	mfc0	k0,c0_sr
a0800480:	00000000 	nop
a0800484:	241bfffe 	li	k1,-2
a0800488:	035bd024 	and	k0,k0,k1
a080048c:	409a6000 	mtc0	k0,c0_sr
a0800490:	00000000 	nop
a0800494:	401a6800 	mfc0	k0,c0_cause
a0800498:	00000000 	nop
a080049c:	335a007c 	andi	k0,k0,0x7c
a08004a0:	3c1ba086 	lui	k1,0xa086
a08004a4:	277b0d0c 	addiu	k1,k1,3340
a08004a8:	035bd020 	add	k0,k0,k1
a08004ac:	8f5a0000 	lw	k0,0(k0)
a08004b0:	03400008 	jr	k0
a08004b4:	00000000 	nop

a08004b8 <handle_others>:
a08004b8:	401b6000 	mfc0	k1,c0_sr
a08004bc:	00000000 	nop
a08004c0:	401b6800 	mfc0	k1,c0_cause
a08004c4:	00000000 	nop
a08004c8:	3c1aa081 	lui	k0,0xa081
a08004cc:	8f5a7290 	lw	k0,29328(k0)
a08004d0:	235a009c 	addi	k0,k0,156
a08004d4:	af400000 	sw	zero,0(k0)
a08004d8:	af410004 	sw	at,4(k0)
a08004dc:	af420008 	sw	v0,8(k0)
a08004e0:	af43000c 	sw	v1,12(k0)
a08004e4:	af440010 	sw	a0,16(k0)
a08004e8:	af450014 	sw	a1,20(k0)
a08004ec:	af460018 	sw	a2,24(k0)
a08004f0:	af47001c 	sw	a3,28(k0)
a08004f4:	af480020 	sw	t0,32(k0)
a08004f8:	af490024 	sw	t1,36(k0)
a08004fc:	af4a0028 	sw	t2,40(k0)
a0800500:	af4b002c 	sw	t3,44(k0)
a0800504:	af4c0030 	sw	t4,48(k0)
a0800508:	af4d0034 	sw	t5,52(k0)
a080050c:	af4e0038 	sw	t6,56(k0)
a0800510:	af4f003c 	sw	t7,60(k0)
a0800514:	af580040 	sw	t8,64(k0)
a0800518:	af590044 	sw	t9,68(k0)
a080051c:	af500048 	sw	s0,72(k0)
a0800520:	af51004c 	sw	s1,76(k0)
a0800524:	af520050 	sw	s2,80(k0)
a0800528:	af530054 	sw	s3,84(k0)
a080052c:	af540058 	sw	s4,88(k0)
a0800530:	af55005c 	sw	s5,92(k0)
a0800534:	af560060 	sw	s6,96(k0)
a0800538:	af570064 	sw	s7,100(k0)
a080053c:	af5c0070 	sw	gp,112(k0)
a0800540:	af5d0074 	sw	sp,116(k0)
a0800544:	af5e0078 	sw	s8,120(k0)
a0800548:	af5f007c 	sw	ra,124(k0)
a080054c:	401b6000 	mfc0	k1,c0_sr
a0800550:	00000000 	nop
a0800554:	af5b0080 	sw	k1,128(k0)
a0800558:	401be800 	mfc0	k1,c0_taghi
a080055c:	00000000 	nop
a0800560:	af5b0084 	sw	k1,132(k0)
a0800564:	401be000 	mfc0	k1,c0_taglo
a0800568:	00000000 	nop
a080056c:	af5b0088 	sw	k1,136(k0)
a0800570:	401b4000 	mfc0	k1,c0_badvaddr
a0800574:	00000000 	nop
a0800578:	af5b008c 	sw	k1,140(k0)
a080057c:	401b6800 	mfc0	k1,c0_cause
a0800580:	00000000 	nop
a0800584:	af5b0090 	sw	k1,144(k0)
a0800588:	401b7000 	mfc0	k1,c0_epc
a080058c:	00000000 	nop
a0800590:	af5b0094 	sw	k1,148(k0)
a0800594:	0c2000b5 	jal	a08002d4 <do_scheduler>
a0800598:	00000000 	nop
a080059c:	3c1aa081 	lui	k0,0xa081
a08005a0:	8f5a7290 	lw	k0,29328(k0)
a08005a4:	235a009c 	addi	k0,k0,156
a08005a8:	8f400000 	lw	zero,0(k0)
a08005ac:	8f410004 	lw	at,4(k0)
a08005b0:	8f420008 	lw	v0,8(k0)
a08005b4:	8f43000c 	lw	v1,12(k0)
a08005b8:	8f440010 	lw	a0,16(k0)
a08005bc:	8f450014 	lw	a1,20(k0)
a08005c0:	8f460018 	lw	a2,24(k0)
a08005c4:	8f47001c 	lw	a3,28(k0)
a08005c8:	8f480020 	lw	t0,32(k0)
a08005cc:	8f490024 	lw	t1,36(k0)
a08005d0:	8f4a0028 	lw	t2,40(k0)
a08005d4:	8f4b002c 	lw	t3,44(k0)
a08005d8:	8f4c0030 	lw	t4,48(k0)
a08005dc:	8f4d0034 	lw	t5,52(k0)
a08005e0:	8f4e0038 	lw	t6,56(k0)
a08005e4:	8f4f003c 	lw	t7,60(k0)
a08005e8:	8f580040 	lw	t8,64(k0)
a08005ec:	8f590044 	lw	t9,68(k0)
a08005f0:	8f500048 	lw	s0,72(k0)
a08005f4:	8f51004c 	lw	s1,76(k0)
a08005f8:	8f520050 	lw	s2,80(k0)
a08005fc:	8f530054 	lw	s3,84(k0)
a0800600:	8f540058 	lw	s4,88(k0)
a0800604:	8f55005c 	lw	s5,92(k0)
a0800608:	8f560060 	lw	s6,96(k0)
a080060c:	8f570064 	lw	s7,100(k0)
a0800610:	8f5c0070 	lw	gp,112(k0)
a0800614:	8f5d0074 	lw	sp,116(k0)
a0800618:	8f5e0078 	lw	s8,120(k0)
a080061c:	8f5f007c 	lw	ra,124(k0)
a0800620:	8f5b0080 	lw	k1,128(k0)
a0800624:	409b6000 	mtc0	k1,c0_sr
a0800628:	00000000 	nop
a080062c:	8f5b0084 	lw	k1,132(k0)
a0800630:	409be800 	mtc0	k1,c0_taghi
a0800634:	00000000 	nop
a0800638:	8f5b0088 	lw	k1,136(k0)
a080063c:	409be000 	mtc0	k1,c0_taglo
a0800640:	00000000 	nop
a0800644:	8f5b008c 	lw	k1,140(k0)
a0800648:	409b4000 	mtc0	k1,c0_badvaddr
a080064c:	00000000 	nop
a0800650:	8f5b0090 	lw	k1,144(k0)
a0800654:	409b6800 	mtc0	k1,c0_cause
a0800658:	00000000 	nop
a080065c:	8f5b0094 	lw	k1,148(k0)
a0800660:	409b7000 	mtc0	k1,c0_epc
a0800664:	00000000 	nop
a0800668:	08200356 	j	a0800d58 <return_from_exception>
a080066c:	00000000 	nop

a0800670 <handle_int>:
a0800670:	3c1aa081 	lui	k0,0xa081
a0800674:	8f5a7290 	lw	k0,29328(k0)
a0800678:	235a009c 	addi	k0,k0,156
a080067c:	af400000 	sw	zero,0(k0)
a0800680:	af410004 	sw	at,4(k0)
a0800684:	af420008 	sw	v0,8(k0)
a0800688:	af43000c 	sw	v1,12(k0)
a080068c:	af440010 	sw	a0,16(k0)
a0800690:	af450014 	sw	a1,20(k0)
a0800694:	af460018 	sw	a2,24(k0)
a0800698:	af47001c 	sw	a3,28(k0)
a080069c:	af480020 	sw	t0,32(k0)
a08006a0:	af490024 	sw	t1,36(k0)
a08006a4:	af4a0028 	sw	t2,40(k0)
a08006a8:	af4b002c 	sw	t3,44(k0)
a08006ac:	af4c0030 	sw	t4,48(k0)
a08006b0:	af4d0034 	sw	t5,52(k0)
a08006b4:	af4e0038 	sw	t6,56(k0)
a08006b8:	af4f003c 	sw	t7,60(k0)
a08006bc:	af580040 	sw	t8,64(k0)
a08006c0:	af590044 	sw	t9,68(k0)
a08006c4:	af500048 	sw	s0,72(k0)
a08006c8:	af51004c 	sw	s1,76(k0)
a08006cc:	af520050 	sw	s2,80(k0)
a08006d0:	af530054 	sw	s3,84(k0)
a08006d4:	af540058 	sw	s4,88(k0)
a08006d8:	af55005c 	sw	s5,92(k0)
a08006dc:	af560060 	sw	s6,96(k0)
a08006e0:	af570064 	sw	s7,100(k0)
a08006e4:	af5c0070 	sw	gp,112(k0)
a08006e8:	af5d0074 	sw	sp,116(k0)
a08006ec:	af5e0078 	sw	s8,120(k0)
a08006f0:	af5f007c 	sw	ra,124(k0)
a08006f4:	401b6000 	mfc0	k1,c0_sr
a08006f8:	00000000 	nop
a08006fc:	af5b0080 	sw	k1,128(k0)
a0800700:	401be800 	mfc0	k1,c0_taghi
a0800704:	00000000 	nop
a0800708:	af5b0084 	sw	k1,132(k0)
a080070c:	401be000 	mfc0	k1,c0_taglo
a0800710:	00000000 	nop
a0800714:	af5b0088 	sw	k1,136(k0)
a0800718:	401b4000 	mfc0	k1,c0_badvaddr
a080071c:	00000000 	nop
a0800720:	af5b008c 	sw	k1,140(k0)
a0800724:	401b6800 	mfc0	k1,c0_cause
a0800728:	00000000 	nop
a080072c:	af5b0090 	sw	k1,144(k0)
a0800730:	401b7000 	mfc0	k1,c0_epc
a0800734:	00000000 	nop
a0800738:	af5b0094 	sw	k1,148(k0)
a080073c:	3c1aa081 	lui	k0,0xa081
a0800740:	8f5a7290 	lw	k0,29328(k0)
a0800744:	235a0000 	addi	k0,k0,0
a0800748:	8f400000 	lw	zero,0(k0)
a080074c:	8f410004 	lw	at,4(k0)
a0800750:	8f420008 	lw	v0,8(k0)
a0800754:	8f43000c 	lw	v1,12(k0)
a0800758:	8f440010 	lw	a0,16(k0)
a080075c:	8f450014 	lw	a1,20(k0)
a0800760:	8f460018 	lw	a2,24(k0)
a0800764:	8f47001c 	lw	a3,28(k0)
a0800768:	8f480020 	lw	t0,32(k0)
a080076c:	8f490024 	lw	t1,36(k0)
a0800770:	8f4a0028 	lw	t2,40(k0)
a0800774:	8f4b002c 	lw	t3,44(k0)
a0800778:	8f4c0030 	lw	t4,48(k0)
a080077c:	8f4d0034 	lw	t5,52(k0)
a0800780:	8f4e0038 	lw	t6,56(k0)
a0800784:	8f4f003c 	lw	t7,60(k0)
a0800788:	8f580040 	lw	t8,64(k0)
a080078c:	8f590044 	lw	t9,68(k0)
a0800790:	8f500048 	lw	s0,72(k0)
a0800794:	8f51004c 	lw	s1,76(k0)
a0800798:	8f520050 	lw	s2,80(k0)
a080079c:	8f530054 	lw	s3,84(k0)
a08007a0:	8f540058 	lw	s4,88(k0)
a08007a4:	8f55005c 	lw	s5,92(k0)
a08007a8:	8f560060 	lw	s6,96(k0)
a08007ac:	8f570064 	lw	s7,100(k0)
a08007b0:	8f5c0070 	lw	gp,112(k0)
a08007b4:	8f5d0074 	lw	sp,116(k0)
a08007b8:	8f5e0078 	lw	s8,120(k0)
a08007bc:	8f5f007c 	lw	ra,124(k0)
a08007c0:	8f5b0080 	lw	k1,128(k0)
a08007c4:	409b6000 	mtc0	k1,c0_sr
a08007c8:	00000000 	nop
a08007cc:	8f5b0084 	lw	k1,132(k0)
a08007d0:	409be800 	mtc0	k1,c0_taghi
a08007d4:	00000000 	nop
a08007d8:	8f5b0088 	lw	k1,136(k0)
a08007dc:	409be000 	mtc0	k1,c0_taglo
a08007e0:	00000000 	nop
a08007e4:	8f5b008c 	lw	k1,140(k0)
a08007e8:	409b4000 	mtc0	k1,c0_badvaddr
a08007ec:	00000000 	nop
a08007f0:	8f5b0090 	lw	k1,144(k0)
a08007f4:	409b6800 	mtc0	k1,c0_cause
a08007f8:	00000000 	nop
a08007fc:	8f5b0094 	lw	k1,148(k0)
a0800800:	409b7000 	mtc0	k1,c0_epc
a0800804:	00000000 	nop
a0800808:	401a6800 	mfc0	k0,c0_cause
a080080c:	00000000 	nop
a0800810:	335aff00 	andi	k0,k0,0xff00
a0800814:	735ad020 	0x735ad020
a0800818:	00000000 	nop
a080081c:	3b5a0017 	xori	k0,k0,0x17
a0800820:	241b0007 	li	k1,7
a0800824:	135b006d 	beq	k0,k1,a08009dc <irq_timer>
a0800828:	00000000 	nop
a080082c:	0c200c28 	jal	a08030a0 <check_irq_mac>
a0800830:	00000000 	nop
a0800834:	0c200292 	jal	a0800a48 <clear_int>
a0800838:	00000000 	nop

a080083c <int_finish>:
a080083c:	3c1aa081 	lui	k0,0xa081
a0800840:	8f5a7290 	lw	k0,29328(k0)
a0800844:	235a0000 	addi	k0,k0,0
a0800848:	af400000 	sw	zero,0(k0)
a080084c:	af410004 	sw	at,4(k0)
a0800850:	af420008 	sw	v0,8(k0)
a0800854:	af43000c 	sw	v1,12(k0)
a0800858:	af440010 	sw	a0,16(k0)
a080085c:	af450014 	sw	a1,20(k0)
a0800860:	af460018 	sw	a2,24(k0)
a0800864:	af47001c 	sw	a3,28(k0)
a0800868:	af480020 	sw	t0,32(k0)
a080086c:	af490024 	sw	t1,36(k0)
a0800870:	af4a0028 	sw	t2,40(k0)
a0800874:	af4b002c 	sw	t3,44(k0)
a0800878:	af4c0030 	sw	t4,48(k0)
a080087c:	af4d0034 	sw	t5,52(k0)
a0800880:	af4e0038 	sw	t6,56(k0)
a0800884:	af4f003c 	sw	t7,60(k0)
a0800888:	af580040 	sw	t8,64(k0)
a080088c:	af590044 	sw	t9,68(k0)
a0800890:	af500048 	sw	s0,72(k0)
a0800894:	af51004c 	sw	s1,76(k0)
a0800898:	af520050 	sw	s2,80(k0)
a080089c:	af530054 	sw	s3,84(k0)
a08008a0:	af540058 	sw	s4,88(k0)
a08008a4:	af55005c 	sw	s5,92(k0)
a08008a8:	af560060 	sw	s6,96(k0)
a08008ac:	af570064 	sw	s7,100(k0)
a08008b0:	af5c0070 	sw	gp,112(k0)
a08008b4:	af5d0074 	sw	sp,116(k0)
a08008b8:	af5e0078 	sw	s8,120(k0)
a08008bc:	af5f007c 	sw	ra,124(k0)
a08008c0:	401b6000 	mfc0	k1,c0_sr
a08008c4:	00000000 	nop
a08008c8:	af5b0080 	sw	k1,128(k0)
a08008cc:	401be800 	mfc0	k1,c0_taghi
a08008d0:	00000000 	nop
a08008d4:	af5b0084 	sw	k1,132(k0)
a08008d8:	401be000 	mfc0	k1,c0_taglo
a08008dc:	00000000 	nop
a08008e0:	af5b0088 	sw	k1,136(k0)
a08008e4:	401b4000 	mfc0	k1,c0_badvaddr
a08008e8:	00000000 	nop
a08008ec:	af5b008c 	sw	k1,140(k0)
a08008f0:	401b6800 	mfc0	k1,c0_cause
a08008f4:	00000000 	nop
a08008f8:	af5b0090 	sw	k1,144(k0)
a08008fc:	401b7000 	mfc0	k1,c0_epc
a0800900:	00000000 	nop
a0800904:	af5b0094 	sw	k1,148(k0)
a0800908:	3c1aa081 	lui	k0,0xa081
a080090c:	8f5a7290 	lw	k0,29328(k0)
a0800910:	235a009c 	addi	k0,k0,156
a0800914:	8f400000 	lw	zero,0(k0)
a0800918:	8f410004 	lw	at,4(k0)
a080091c:	8f420008 	lw	v0,8(k0)
a0800920:	8f43000c 	lw	v1,12(k0)
a0800924:	8f440010 	lw	a0,16(k0)
a0800928:	8f450014 	lw	a1,20(k0)
a080092c:	8f460018 	lw	a2,24(k0)
a0800930:	8f47001c 	lw	a3,28(k0)
a0800934:	8f480020 	lw	t0,32(k0)
a0800938:	8f490024 	lw	t1,36(k0)
a080093c:	8f4a0028 	lw	t2,40(k0)
a0800940:	8f4b002c 	lw	t3,44(k0)
a0800944:	8f4c0030 	lw	t4,48(k0)
a0800948:	8f4d0034 	lw	t5,52(k0)
a080094c:	8f4e0038 	lw	t6,56(k0)
a0800950:	8f4f003c 	lw	t7,60(k0)
a0800954:	8f580040 	lw	t8,64(k0)
a0800958:	8f590044 	lw	t9,68(k0)
a080095c:	8f500048 	lw	s0,72(k0)
a0800960:	8f51004c 	lw	s1,76(k0)
a0800964:	8f520050 	lw	s2,80(k0)
a0800968:	8f530054 	lw	s3,84(k0)
a080096c:	8f540058 	lw	s4,88(k0)
a0800970:	8f55005c 	lw	s5,92(k0)
a0800974:	8f560060 	lw	s6,96(k0)
a0800978:	8f570064 	lw	s7,100(k0)
a080097c:	8f5c0070 	lw	gp,112(k0)
a0800980:	8f5d0074 	lw	sp,116(k0)
a0800984:	8f5e0078 	lw	s8,120(k0)
a0800988:	8f5f007c 	lw	ra,124(k0)
a080098c:	8f5b0080 	lw	k1,128(k0)
a0800990:	409b6000 	mtc0	k1,c0_sr
a0800994:	00000000 	nop
a0800998:	8f5b0084 	lw	k1,132(k0)
a080099c:	409be800 	mtc0	k1,c0_taghi
a08009a0:	00000000 	nop
a08009a4:	8f5b0088 	lw	k1,136(k0)
a08009a8:	409be000 	mtc0	k1,c0_taglo
a08009ac:	00000000 	nop
a08009b0:	8f5b008c 	lw	k1,140(k0)
a08009b4:	409b4000 	mtc0	k1,c0_badvaddr
a08009b8:	00000000 	nop
a08009bc:	8f5b0090 	lw	k1,144(k0)
a08009c0:	409b6800 	mtc0	k1,c0_cause
a08009c4:	00000000 	nop
a08009c8:	8f5b0094 	lw	k1,148(k0)
a08009cc:	409b7000 	mtc0	k1,c0_epc
a08009d0:	00000000 	nop
a08009d4:	08200356 	j	a0800d58 <return_from_exception>
a08009d8:	00000000 	nop

a08009dc <irq_timer>:
a08009dc:	0c20030f 	jal	a0800c3c <reset_timer>
a08009e0:	00000000 	nop
a08009e4:	0c200292 	jal	a0800a48 <clear_int>
a08009e8:	00000000 	nop
a08009ec:	3c1ba082 	lui	k1,0xa082
a08009f0:	8f7ba068 	lw	k1,-24472(k1)
a08009f4:	237b000f 	addi	k1,k1,15
a08009f8:	3c01a082 	lui	at,0xa082
a08009fc:	ac3ba068 	sw	k1,-24472(at)
a0800a00:	0c200b1c 	jal	a0802c70 <check_recv_block_queue>
a0800a04:	00000000 	nop
a0800a08:	3c1ba081 	lui	k1,0xa081
a0800a0c:	8f7b7290 	lw	k1,29328(k1)
a0800a10:	8f7b0144 	lw	k1,324(k1)
a0800a14:	1360ff89 	beqz	k1,a080083c <int_finish>
a0800a18:	00000000 	nop
a0800a1c:	3c1aa081 	lui	k0,0xa081
a0800a20:	8f5a7290 	lw	k0,29328(k0)
a0800a24:	af400144 	sw	zero,324(k0)
a0800a28:	0c2000b5 	jal	a08002d4 <do_scheduler>
a0800a2c:	00000000 	nop
a0800a30:	3c1aa081 	lui	k0,0xa081
a0800a34:	8f5a7290 	lw	k0,29328(k0)
a0800a38:	241b0001 	li	k1,1
a0800a3c:	af5b0144 	sw	k1,324(k0)
a0800a40:	0820020f 	j	a080083c <int_finish>
a0800a44:	00000000 	nop

a0800a48 <clear_int>:
a0800a48:	401a6800 	mfc0	k0,c0_cause
a0800a4c:	00000000 	nop
a0800a50:	335bff00 	andi	k1,k0,0xff00
a0800a54:	035bd026 	xor	k0,k0,k1
a0800a58:	409a6800 	mtc0	k0,c0_cause
a0800a5c:	00000000 	nop
a0800a60:	03e00008 	jr	ra
a0800a64:	00000000 	nop

a0800a68 <handle_syscall>:
a0800a68:	3c1aa081 	lui	k0,0xa081
a0800a6c:	8f5a7290 	lw	k0,29328(k0)
a0800a70:	235a009c 	addi	k0,k0,156
a0800a74:	af400000 	sw	zero,0(k0)
a0800a78:	af410004 	sw	at,4(k0)
a0800a7c:	af420008 	sw	v0,8(k0)
a0800a80:	af43000c 	sw	v1,12(k0)
a0800a84:	af440010 	sw	a0,16(k0)
a0800a88:	af450014 	sw	a1,20(k0)
a0800a8c:	af460018 	sw	a2,24(k0)
a0800a90:	af47001c 	sw	a3,28(k0)
a0800a94:	af480020 	sw	t0,32(k0)
a0800a98:	af490024 	sw	t1,36(k0)
a0800a9c:	af4a0028 	sw	t2,40(k0)
a0800aa0:	af4b002c 	sw	t3,44(k0)
a0800aa4:	af4c0030 	sw	t4,48(k0)
a0800aa8:	af4d0034 	sw	t5,52(k0)
a0800aac:	af4e0038 	sw	t6,56(k0)
a0800ab0:	af4f003c 	sw	t7,60(k0)
a0800ab4:	af580040 	sw	t8,64(k0)
a0800ab8:	af590044 	sw	t9,68(k0)
a0800abc:	af500048 	sw	s0,72(k0)
a0800ac0:	af51004c 	sw	s1,76(k0)
a0800ac4:	af520050 	sw	s2,80(k0)
a0800ac8:	af530054 	sw	s3,84(k0)
a0800acc:	af540058 	sw	s4,88(k0)
a0800ad0:	af55005c 	sw	s5,92(k0)
a0800ad4:	af560060 	sw	s6,96(k0)
a0800ad8:	af570064 	sw	s7,100(k0)
a0800adc:	af5c0070 	sw	gp,112(k0)
a0800ae0:	af5d0074 	sw	sp,116(k0)
a0800ae4:	af5e0078 	sw	s8,120(k0)
a0800ae8:	af5f007c 	sw	ra,124(k0)
a0800aec:	401b6000 	mfc0	k1,c0_sr
a0800af0:	00000000 	nop
a0800af4:	af5b0080 	sw	k1,128(k0)
a0800af8:	401be800 	mfc0	k1,c0_taghi
a0800afc:	00000000 	nop
a0800b00:	af5b0084 	sw	k1,132(k0)
a0800b04:	401be000 	mfc0	k1,c0_taglo
a0800b08:	00000000 	nop
a0800b0c:	af5b0088 	sw	k1,136(k0)
a0800b10:	401b4000 	mfc0	k1,c0_badvaddr
a0800b14:	00000000 	nop
a0800b18:	af5b008c 	sw	k1,140(k0)
a0800b1c:	401b6800 	mfc0	k1,c0_cause
a0800b20:	00000000 	nop
a0800b24:	af5b0090 	sw	k1,144(k0)
a0800b28:	401b7000 	mfc0	k1,c0_epc
a0800b2c:	00000000 	nop
a0800b30:	af5b0094 	sw	k1,148(k0)
a0800b34:	00c03820 	add	a3,a2,zero
a0800b38:	00a03020 	add	a2,a1,zero
a0800b3c:	00802820 	add	a1,a0,zero
a0800b40:	00402020 	add	a0,v0,zero
a0800b44:	401b7000 	mfc0	k1,c0_epc
a0800b48:	00000000 	nop
a0800b4c:	0c2036e0 	jal	a080db80 <system_call_helper>
a0800b50:	00000000 	nop
a0800b54:	401b7000 	mfc0	k1,c0_epc
a0800b58:	00000000 	nop
a0800b5c:	3c1aa081 	lui	k0,0xa081
a0800b60:	8f5a7290 	lw	k0,29328(k0)
a0800b64:	235a009c 	addi	k0,k0,156
a0800b68:	8f400000 	lw	zero,0(k0)
a0800b6c:	8f410004 	lw	at,4(k0)
a0800b70:	8f420008 	lw	v0,8(k0)
a0800b74:	8f43000c 	lw	v1,12(k0)
a0800b78:	8f440010 	lw	a0,16(k0)
a0800b7c:	8f450014 	lw	a1,20(k0)
a0800b80:	8f460018 	lw	a2,24(k0)
a0800b84:	8f47001c 	lw	a3,28(k0)
a0800b88:	8f480020 	lw	t0,32(k0)
a0800b8c:	8f490024 	lw	t1,36(k0)
a0800b90:	8f4a0028 	lw	t2,40(k0)
a0800b94:	8f4b002c 	lw	t3,44(k0)
a0800b98:	8f4c0030 	lw	t4,48(k0)
a0800b9c:	8f4d0034 	lw	t5,52(k0)
a0800ba0:	8f4e0038 	lw	t6,56(k0)
a0800ba4:	8f4f003c 	lw	t7,60(k0)
a0800ba8:	8f580040 	lw	t8,64(k0)
a0800bac:	8f590044 	lw	t9,68(k0)
a0800bb0:	8f500048 	lw	s0,72(k0)
a0800bb4:	8f51004c 	lw	s1,76(k0)
a0800bb8:	8f520050 	lw	s2,80(k0)
a0800bbc:	8f530054 	lw	s3,84(k0)
a0800bc0:	8f540058 	lw	s4,88(k0)
a0800bc4:	8f55005c 	lw	s5,92(k0)
a0800bc8:	8f560060 	lw	s6,96(k0)
a0800bcc:	8f570064 	lw	s7,100(k0)
a0800bd0:	8f5c0070 	lw	gp,112(k0)
a0800bd4:	8f5d0074 	lw	sp,116(k0)
a0800bd8:	8f5e0078 	lw	s8,120(k0)
a0800bdc:	8f5f007c 	lw	ra,124(k0)
a0800be0:	8f5b0080 	lw	k1,128(k0)
a0800be4:	409b6000 	mtc0	k1,c0_sr
a0800be8:	00000000 	nop
a0800bec:	8f5b0084 	lw	k1,132(k0)
a0800bf0:	409be800 	mtc0	k1,c0_taghi
a0800bf4:	00000000 	nop
a0800bf8:	8f5b0088 	lw	k1,136(k0)
a0800bfc:	409be000 	mtc0	k1,c0_taglo
a0800c00:	00000000 	nop
a0800c04:	8f5b008c 	lw	k1,140(k0)
a0800c08:	409b4000 	mtc0	k1,c0_badvaddr
a0800c0c:	00000000 	nop
a0800c10:	8f5b0090 	lw	k1,144(k0)
a0800c14:	409b6800 	mtc0	k1,c0_cause
a0800c18:	00000000 	nop
a0800c1c:	8f5b0094 	lw	k1,148(k0)
a0800c20:	409b7000 	mtc0	k1,c0_epc
	...
a0800c2c:	401b7000 	mfc0	k1,c0_epc
a0800c30:	00000000 	nop
a0800c34:	08200356 	j	a0800d58 <return_from_exception>
a0800c38:	00000000 	nop

a0800c3c <reset_timer>:
a0800c3c:	3c040001 	lui	a0,0x1
a0800c40:	348486a0 	ori	a0,a0,0x86a0
a0800c44:	40804800 	mtc0	zero,c0_count
a0800c48:	00000000 	nop
a0800c4c:	40845800 	mtc0	a0,c0_compare
a0800c50:	00000000 	nop
a0800c54:	03e00008 	jr	ra
a0800c58:	00000000 	nop

a0800c5c <first_entry>:
a0800c5c:	3c1aa081 	lui	k0,0xa081
a0800c60:	8f5a7290 	lw	k0,29328(k0)
a0800c64:	235a0000 	addi	k0,k0,0
a0800c68:	8f400000 	lw	zero,0(k0)
a0800c6c:	8f410004 	lw	at,4(k0)
a0800c70:	8f420008 	lw	v0,8(k0)
a0800c74:	8f43000c 	lw	v1,12(k0)
a0800c78:	8f440010 	lw	a0,16(k0)
a0800c7c:	8f450014 	lw	a1,20(k0)
a0800c80:	8f460018 	lw	a2,24(k0)
a0800c84:	8f47001c 	lw	a3,28(k0)
a0800c88:	8f480020 	lw	t0,32(k0)
a0800c8c:	8f490024 	lw	t1,36(k0)
a0800c90:	8f4a0028 	lw	t2,40(k0)
a0800c94:	8f4b002c 	lw	t3,44(k0)
a0800c98:	8f4c0030 	lw	t4,48(k0)
a0800c9c:	8f4d0034 	lw	t5,52(k0)
a0800ca0:	8f4e0038 	lw	t6,56(k0)
a0800ca4:	8f4f003c 	lw	t7,60(k0)
a0800ca8:	8f580040 	lw	t8,64(k0)
a0800cac:	8f590044 	lw	t9,68(k0)
a0800cb0:	8f500048 	lw	s0,72(k0)
a0800cb4:	8f51004c 	lw	s1,76(k0)
a0800cb8:	8f520050 	lw	s2,80(k0)
a0800cbc:	8f530054 	lw	s3,84(k0)
a0800cc0:	8f540058 	lw	s4,88(k0)
a0800cc4:	8f55005c 	lw	s5,92(k0)
a0800cc8:	8f560060 	lw	s6,96(k0)
a0800ccc:	8f570064 	lw	s7,100(k0)
a0800cd0:	8f5c0070 	lw	gp,112(k0)
a0800cd4:	8f5d0074 	lw	sp,116(k0)
a0800cd8:	8f5e0078 	lw	s8,120(k0)
a0800cdc:	8f5f007c 	lw	ra,124(k0)
a0800ce0:	8f5b0080 	lw	k1,128(k0)
a0800ce4:	409b6000 	mtc0	k1,c0_sr
a0800ce8:	00000000 	nop
a0800cec:	8f5b0084 	lw	k1,132(k0)
a0800cf0:	409be800 	mtc0	k1,c0_taghi
a0800cf4:	00000000 	nop
a0800cf8:	8f5b0088 	lw	k1,136(k0)
a0800cfc:	409be000 	mtc0	k1,c0_taglo
a0800d00:	00000000 	nop
a0800d04:	8f5b008c 	lw	k1,140(k0)
a0800d08:	409b4000 	mtc0	k1,c0_badvaddr
a0800d0c:	00000000 	nop
a0800d10:	8f5b0090 	lw	k1,144(k0)
a0800d14:	409b6800 	mtc0	k1,c0_cause
a0800d18:	00000000 	nop
a0800d1c:	8f5b0094 	lw	k1,148(k0)
a0800d20:	409b7000 	mtc0	k1,c0_epc
a0800d24:	00000000 	nop
a0800d28:	0c20030f 	jal	a0800c3c <reset_timer>
a0800d2c:	00000000 	nop
a0800d30:	0820020f 	j	a080083c <int_finish>
a0800d34:	00000000 	nop

a0800d38 <get_cp0_status>:
a0800d38:	40026000 	mfc0	v0,c0_sr
a0800d3c:	00000000 	nop
a0800d40:	03e00008 	jr	ra
a0800d44:	00000000 	nop

a0800d48 <set_cp0_status>:
a0800d48:	40846000 	mtc0	a0,c0_sr
a0800d4c:	00000000 	nop
a0800d50:	03e00008 	jr	ra
a0800d54:	00000000 	nop

a0800d58 <return_from_exception>:
a0800d58:	401a6000 	mfc0	k0,c0_sr
a0800d5c:	00000000 	nop
a0800d60:	241b0001 	li	k1,1
a0800d64:	035bd025 	or	k0,k0,k1
a0800d68:	409a6000 	mtc0	k0,c0_sr
a0800d6c:	00000000 	nop
a0800d70:	401b7000 	mfc0	k1,c0_epc
a0800d74:	00000000 	nop
a0800d78:	42000018 	eret
a0800d7c:	00000000 	nop

a0800d80 <get_asid>:
a0800d80:	40025000 	mfc0	v0,c0_entryhi
a0800d84:	00000000 	nop
a0800d88:	30420007 	andi	v0,v0,0x7
a0800d8c:	00000000 	nop
a0800d90:	03e00008 	jr	ra
a0800d94:	00000000 	nop

a0800d98 <set_entryhi_asid>:
a0800d98:	241aff00 	li	k0,-256
a0800d9c:	401b5000 	mfc0	k1,c0_entryhi
a0800da0:	00000000 	nop
a0800da4:	037ad824 	and	k1,k1,k0
a0800da8:	0364d825 	or	k1,k1,a0
a0800dac:	409b5000 	mtc0	k1,c0_entryhi
a0800db0:	00000000 	nop
a0800db4:	03e00008 	jr	ra
a0800db8:	00000000 	nop

a0800dbc <get_cp0_index>:
a0800dbc:	40020000 	mfc0	v0,c0_index
a0800dc0:	00000000 	nop
a0800dc4:	03e00008 	jr	ra
a0800dc8:	00000000 	nop

a0800dcc <set_cp0_index>:
a0800dcc:	40840000 	mtc0	a0,c0_index
a0800dd0:	00000000 	nop
a0800dd4:	03e00008 	jr	ra
a0800dd8:	00000000 	nop

a0800ddc <get_cp0_entryhi>:
a0800ddc:	40025000 	mfc0	v0,c0_entryhi
a0800de0:	00000000 	nop
a0800de4:	03e00008 	jr	ra
a0800de8:	00000000 	nop

a0800dec <set_cp0_entryhi>:
a0800dec:	40845000 	mtc0	a0,c0_entryhi
a0800df0:	00000000 	nop
a0800df4:	03e00008 	jr	ra
a0800df8:	00000000 	nop

a0800dfc <get_cp0_badvaddr>:
a0800dfc:	40024000 	mfc0	v0,c0_badvaddr
a0800e00:	00000000 	nop
a0800e04:	03e00008 	jr	ra
a0800e08:	00000000 	nop

a0800e0c <get_cp0_entrylo0>:
a0800e0c:	40021000 	mfc0	v0,c0_entrylo0
a0800e10:	00000000 	nop
a0800e14:	03e00008 	jr	ra
a0800e18:	00000000 	nop

a0800e1c <set_cp0_entrylo0>:
a0800e1c:	40841000 	mtc0	a0,c0_entrylo0
a0800e20:	00000000 	nop
a0800e24:	03e00008 	jr	ra
a0800e28:	00000000 	nop

a0800e2c <get_cp0_entrylo1>:
a0800e2c:	40021800 	mfc0	v0,c0_entrylo1
a0800e30:	00000000 	nop
a0800e34:	03e00008 	jr	ra
a0800e38:	00000000 	nop

a0800e3c <set_cp0_entrylo1>:
a0800e3c:	40841800 	mtc0	a0,c0_entrylo1
a0800e40:	00000000 	nop
a0800e44:	03e00008 	jr	ra
a0800e48:	00000000 	nop

a0800e4c <get_cp0_pagemask>:
a0800e4c:	40022800 	mfc0	v0,c0_pagemask
a0800e50:	00000000 	nop
a0800e54:	03e00008 	jr	ra
a0800e58:	00000000 	nop

a0800e5c <set_cp0_pagemask>:
a0800e5c:	40842800 	mtc0	a0,c0_pagemask
a0800e60:	00000000 	nop
a0800e64:	03e00008 	jr	ra
a0800e68:	00000000 	nop

a0800e6c <get_sp_reg>:
a0800e6c:	03a01020 	add	v0,sp,zero
a0800e70:	00000000 	nop
a0800e74:	03e00008 	jr	ra
a0800e78:	00000000 	nop

a0800e7c <tlb_flush>:
a0800e7c:	401b5000 	mfc0	k1,c0_entryhi
a0800e80:	00000000 	nop
a0800e84:	40845000 	mtc0	a0,c0_entryhi
a0800e88:	00000000 	nop
a0800e8c:	42000008 	tlbp
	...
a0800ea0:	401a0000 	mfc0	k0,c0_index
a0800ea4:	00000000 	nop
a0800ea8:	0740000c 	bltz	k0,a0800edc <NOFOUND>
a0800eac:	00000000 	nop
a0800eb0:	40805000 	mtc0	zero,c0_entryhi
a0800eb4:	00000000 	nop
a0800eb8:	40801000 	mtc0	zero,c0_entrylo0
a0800ebc:	00000000 	nop
a0800ec0:	40801800 	mtc0	zero,c0_entrylo1
a0800ec4:	00000000 	nop
a0800ec8:	42000002 	tlbwi
	...

a0800edc <NOFOUND>:
a0800edc:	409b5000 	mtc0	k1,c0_entryhi
a0800ee0:	00000000 	nop
a0800ee4:	03e00008 	jr	ra
a0800ee8:	00000000 	nop

a0800eec <tlb_flush_no_check>:
a0800eec:	40805000 	mtc0	zero,c0_entryhi
a0800ef0:	00000000 	nop
a0800ef4:	40801000 	mtc0	zero,c0_entrylo0
a0800ef8:	00000000 	nop
a0800efc:	40801800 	mtc0	zero,c0_entrylo1
a0800f00:	00000000 	nop
a0800f04:	40802800 	mtc0	zero,c0_pagemask
a0800f08:	00000000 	nop
a0800f0c:	42000002 	tlbwi
	...
a0800f20:	03e00008 	jr	ra
a0800f24:	00000000 	nop

a0800f28 <tlb_flush_all>:
a0800f28:	24070000 	li	a3,0
a0800f2c:	40802800 	mtc0	zero,c0_pagemask
a0800f30:	24060020 	li	a2,32
a0800f34:	3c058000 	lui	a1,0x8000
a0800f38:	40855000 	mtc0	a1,c0_entryhi
a0800f3c:	40801000 	mtc0	zero,c0_entrylo0
a0800f40:	40801800 	mtc0	zero,c0_entrylo1
a0800f44:	40870000 	mtc0	a3,c0_index
a0800f48:	24e70001 	addiu	a3,a3,1
a0800f4c:	42000002 	tlbwi
a0800f50:	14e6fff9 	bne	a3,a2,a0800f38 <tlb_flush_all+0x10>
a0800f54:	00000000 	nop

a0800f58 <handle_tlb>:
a0800f58:	3c1aa081 	lui	k0,0xa081
a0800f5c:	8f5a7290 	lw	k0,29328(k0)
a0800f60:	235a009c 	addi	k0,k0,156
a0800f64:	af400000 	sw	zero,0(k0)
a0800f68:	af410004 	sw	at,4(k0)
a0800f6c:	af420008 	sw	v0,8(k0)
a0800f70:	af43000c 	sw	v1,12(k0)
a0800f74:	af440010 	sw	a0,16(k0)
a0800f78:	af450014 	sw	a1,20(k0)
a0800f7c:	af460018 	sw	a2,24(k0)
a0800f80:	af47001c 	sw	a3,28(k0)
a0800f84:	af480020 	sw	t0,32(k0)
a0800f88:	af490024 	sw	t1,36(k0)
a0800f8c:	af4a0028 	sw	t2,40(k0)
a0800f90:	af4b002c 	sw	t3,44(k0)
a0800f94:	af4c0030 	sw	t4,48(k0)
a0800f98:	af4d0034 	sw	t5,52(k0)
a0800f9c:	af4e0038 	sw	t6,56(k0)
a0800fa0:	af4f003c 	sw	t7,60(k0)
a0800fa4:	af580040 	sw	t8,64(k0)
a0800fa8:	af590044 	sw	t9,68(k0)
a0800fac:	af500048 	sw	s0,72(k0)
a0800fb0:	af51004c 	sw	s1,76(k0)
a0800fb4:	af520050 	sw	s2,80(k0)
a0800fb8:	af530054 	sw	s3,84(k0)
a0800fbc:	af540058 	sw	s4,88(k0)
a0800fc0:	af55005c 	sw	s5,92(k0)
a0800fc4:	af560060 	sw	s6,96(k0)
a0800fc8:	af570064 	sw	s7,100(k0)
a0800fcc:	af5c0070 	sw	gp,112(k0)
a0800fd0:	af5d0074 	sw	sp,116(k0)
a0800fd4:	af5e0078 	sw	s8,120(k0)
a0800fd8:	af5f007c 	sw	ra,124(k0)
a0800fdc:	401b6000 	mfc0	k1,c0_sr
a0800fe0:	00000000 	nop
a0800fe4:	af5b0080 	sw	k1,128(k0)
a0800fe8:	401be800 	mfc0	k1,c0_taghi
a0800fec:	00000000 	nop
a0800ff0:	af5b0084 	sw	k1,132(k0)
a0800ff4:	401be000 	mfc0	k1,c0_taglo
a0800ff8:	00000000 	nop
a0800ffc:	af5b0088 	sw	k1,136(k0)
a0801000:	401b4000 	mfc0	k1,c0_badvaddr
a0801004:	00000000 	nop
a0801008:	af5b008c 	sw	k1,140(k0)
a080100c:	401b6800 	mfc0	k1,c0_cause
a0801010:	00000000 	nop
a0801014:	af5b0090 	sw	k1,144(k0)
a0801018:	401b7000 	mfc0	k1,c0_epc
a080101c:	00000000 	nop
a0801020:	af5b0094 	sw	k1,148(k0)
a0801024:	3c1aa081 	lui	k0,0xa081
a0801028:	8f5a7290 	lw	k0,29328(k0)
a080102c:	235a0000 	addi	k0,k0,0
a0801030:	8f400000 	lw	zero,0(k0)
a0801034:	8f410004 	lw	at,4(k0)
a0801038:	8f420008 	lw	v0,8(k0)
a080103c:	8f43000c 	lw	v1,12(k0)
a0801040:	8f440010 	lw	a0,16(k0)
a0801044:	8f450014 	lw	a1,20(k0)
a0801048:	8f460018 	lw	a2,24(k0)
a080104c:	8f47001c 	lw	a3,28(k0)
a0801050:	8f480020 	lw	t0,32(k0)
a0801054:	8f490024 	lw	t1,36(k0)
a0801058:	8f4a0028 	lw	t2,40(k0)
a080105c:	8f4b002c 	lw	t3,44(k0)
a0801060:	8f4c0030 	lw	t4,48(k0)
a0801064:	8f4d0034 	lw	t5,52(k0)
a0801068:	8f4e0038 	lw	t6,56(k0)
a080106c:	8f4f003c 	lw	t7,60(k0)
a0801070:	8f580040 	lw	t8,64(k0)
a0801074:	8f590044 	lw	t9,68(k0)
a0801078:	8f500048 	lw	s0,72(k0)
a080107c:	8f51004c 	lw	s1,76(k0)
a0801080:	8f520050 	lw	s2,80(k0)
a0801084:	8f530054 	lw	s3,84(k0)
a0801088:	8f540058 	lw	s4,88(k0)
a080108c:	8f55005c 	lw	s5,92(k0)
a0801090:	8f560060 	lw	s6,96(k0)
a0801094:	8f570064 	lw	s7,100(k0)
a0801098:	8f5c0070 	lw	gp,112(k0)
a080109c:	8f5d0074 	lw	sp,116(k0)
a08010a0:	8f5e0078 	lw	s8,120(k0)
a08010a4:	8f5f007c 	lw	ra,124(k0)
a08010a8:	8f5b0080 	lw	k1,128(k0)
a08010ac:	409b6000 	mtc0	k1,c0_sr
a08010b0:	00000000 	nop
a08010b4:	8f5b0084 	lw	k1,132(k0)
a08010b8:	409be800 	mtc0	k1,c0_taghi
a08010bc:	00000000 	nop
a08010c0:	8f5b0088 	lw	k1,136(k0)
a08010c4:	409be000 	mtc0	k1,c0_taglo
a08010c8:	00000000 	nop
a08010cc:	8f5b008c 	lw	k1,140(k0)
a08010d0:	409b4000 	mtc0	k1,c0_badvaddr
a08010d4:	00000000 	nop
a08010d8:	8f5b0090 	lw	k1,144(k0)
a08010dc:	409b6800 	mtc0	k1,c0_cause
a08010e0:	00000000 	nop
a08010e4:	8f5b0094 	lw	k1,148(k0)
a08010e8:	409b7000 	mtc0	k1,c0_epc
a08010ec:	00000000 	nop
a08010f0:	0c2016e0 	jal	a0805b80 <handle_tlb_exception_helper>
a08010f4:	00000000 	nop
a08010f8:	3c1aa081 	lui	k0,0xa081
a08010fc:	8f5a7290 	lw	k0,29328(k0)
a0801100:	235a0000 	addi	k0,k0,0
a0801104:	af400000 	sw	zero,0(k0)
a0801108:	af410004 	sw	at,4(k0)
a080110c:	af420008 	sw	v0,8(k0)
a0801110:	af43000c 	sw	v1,12(k0)
a0801114:	af440010 	sw	a0,16(k0)
a0801118:	af450014 	sw	a1,20(k0)
a080111c:	af460018 	sw	a2,24(k0)
a0801120:	af47001c 	sw	a3,28(k0)
a0801124:	af480020 	sw	t0,32(k0)
a0801128:	af490024 	sw	t1,36(k0)
a080112c:	af4a0028 	sw	t2,40(k0)
a0801130:	af4b002c 	sw	t3,44(k0)
a0801134:	af4c0030 	sw	t4,48(k0)
a0801138:	af4d0034 	sw	t5,52(k0)
a080113c:	af4e0038 	sw	t6,56(k0)
a0801140:	af4f003c 	sw	t7,60(k0)
a0801144:	af580040 	sw	t8,64(k0)
a0801148:	af590044 	sw	t9,68(k0)
a080114c:	af500048 	sw	s0,72(k0)
a0801150:	af51004c 	sw	s1,76(k0)
a0801154:	af520050 	sw	s2,80(k0)
a0801158:	af530054 	sw	s3,84(k0)
a080115c:	af540058 	sw	s4,88(k0)
a0801160:	af55005c 	sw	s5,92(k0)
a0801164:	af560060 	sw	s6,96(k0)
a0801168:	af570064 	sw	s7,100(k0)
a080116c:	af5c0070 	sw	gp,112(k0)
a0801170:	af5d0074 	sw	sp,116(k0)
a0801174:	af5e0078 	sw	s8,120(k0)
a0801178:	af5f007c 	sw	ra,124(k0)
a080117c:	401b6000 	mfc0	k1,c0_sr
a0801180:	00000000 	nop
a0801184:	af5b0080 	sw	k1,128(k0)
a0801188:	401be800 	mfc0	k1,c0_taghi
a080118c:	00000000 	nop
a0801190:	af5b0084 	sw	k1,132(k0)
a0801194:	401be000 	mfc0	k1,c0_taglo
a0801198:	00000000 	nop
a080119c:	af5b0088 	sw	k1,136(k0)
a08011a0:	401b4000 	mfc0	k1,c0_badvaddr
a08011a4:	00000000 	nop
a08011a8:	af5b008c 	sw	k1,140(k0)
a08011ac:	401b6800 	mfc0	k1,c0_cause
a08011b0:	00000000 	nop
a08011b4:	af5b0090 	sw	k1,144(k0)
a08011b8:	401b7000 	mfc0	k1,c0_epc
a08011bc:	00000000 	nop
a08011c0:	af5b0094 	sw	k1,148(k0)
a08011c4:	3c1aa081 	lui	k0,0xa081
a08011c8:	8f5a7290 	lw	k0,29328(k0)
a08011cc:	235a009c 	addi	k0,k0,156
a08011d0:	8f400000 	lw	zero,0(k0)
a08011d4:	8f410004 	lw	at,4(k0)
a08011d8:	8f420008 	lw	v0,8(k0)
a08011dc:	8f43000c 	lw	v1,12(k0)
a08011e0:	8f440010 	lw	a0,16(k0)
a08011e4:	8f450014 	lw	a1,20(k0)
a08011e8:	8f460018 	lw	a2,24(k0)
a08011ec:	8f47001c 	lw	a3,28(k0)
a08011f0:	8f480020 	lw	t0,32(k0)
a08011f4:	8f490024 	lw	t1,36(k0)
a08011f8:	8f4a0028 	lw	t2,40(k0)
a08011fc:	8f4b002c 	lw	t3,44(k0)
a0801200:	8f4c0030 	lw	t4,48(k0)
a0801204:	8f4d0034 	lw	t5,52(k0)
a0801208:	8f4e0038 	lw	t6,56(k0)
a080120c:	8f4f003c 	lw	t7,60(k0)
a0801210:	8f580040 	lw	t8,64(k0)
a0801214:	8f590044 	lw	t9,68(k0)
a0801218:	8f500048 	lw	s0,72(k0)
a080121c:	8f51004c 	lw	s1,76(k0)
a0801220:	8f520050 	lw	s2,80(k0)
a0801224:	8f530054 	lw	s3,84(k0)
a0801228:	8f540058 	lw	s4,88(k0)
a080122c:	8f55005c 	lw	s5,92(k0)
a0801230:	8f560060 	lw	s6,96(k0)
a0801234:	8f570064 	lw	s7,100(k0)
a0801238:	8f5c0070 	lw	gp,112(k0)
a080123c:	8f5d0074 	lw	sp,116(k0)
a0801240:	8f5e0078 	lw	s8,120(k0)
a0801244:	8f5f007c 	lw	ra,124(k0)
a0801248:	8f5b0080 	lw	k1,128(k0)
a080124c:	409b6000 	mtc0	k1,c0_sr
a0801250:	00000000 	nop
a0801254:	8f5b0084 	lw	k1,132(k0)
a0801258:	409be800 	mtc0	k1,c0_taghi
a080125c:	00000000 	nop
a0801260:	8f5b0088 	lw	k1,136(k0)
a0801264:	409be000 	mtc0	k1,c0_taglo
a0801268:	00000000 	nop
a080126c:	8f5b008c 	lw	k1,140(k0)
a0801270:	409b4000 	mtc0	k1,c0_badvaddr
a0801274:	00000000 	nop
a0801278:	8f5b0090 	lw	k1,144(k0)
a080127c:	409b6800 	mtc0	k1,c0_cause
a0801280:	00000000 	nop
a0801284:	8f5b0094 	lw	k1,148(k0)
a0801288:	409b7000 	mtc0	k1,c0_epc
	...
a0801294:	401b7000 	mfc0	k1,c0_epc
a0801298:	00000000 	nop
a080129c:	08200356 	j	a0800d58 <return_from_exception>
a08012a0:	00000000 	nop
	...

a08012b0 <invoke_syscall>:
a08012b0:	00801020 	add	v0,a0,zero
a08012b4:	00a02020 	add	a0,a1,zero
a08012b8:	00c02820 	add	a1,a2,zero
a08012bc:	00e03020 	add	a2,a3,zero
a08012c0:	0000000c 	syscall
a08012c4:	03e00008 	jr	ra
a08012c8:	00000000 	nop
a08012cc:	00000000 	nop

a08012d0 <port_write_ch>:
a08012d0:	27bdffe0 	addiu	sp,sp,-32
a08012d4:	afbf001c 	sw	ra,28(sp)
a08012d8:	afbe0018 	sw	s8,24(sp)
a08012dc:	03a0f021 	move	s8,sp
a08012e0:	00801021 	move	v0,a0
a08012e4:	a3c20020 	sb	v0,32(s8)
a08012e8:	3c028007 	lui	v0,0x8007
a08012ec:	3442ba00 	ori	v0,v0,0xba00
a08012f0:	afc20010 	sw	v0,16(s8)
a08012f4:	83c20020 	lb	v0,32(s8)
a08012f8:	8fc30010 	lw	v1,16(s8)
a08012fc:	00402021 	move	a0,v0
a0801300:	0060f809 	jalr	v1
a0801304:	00000000 	nop
a0801308:	03c0e821 	move	sp,s8
a080130c:	8fbf001c 	lw	ra,28(sp)
a0801310:	8fbe0018 	lw	s8,24(sp)
a0801314:	27bd0020 	addiu	sp,sp,32
a0801318:	03e00008 	jr	ra
a080131c:	00000000 	nop

a0801320 <port_write>:
a0801320:	27bdffe0 	addiu	sp,sp,-32
a0801324:	afbf001c 	sw	ra,28(sp)
a0801328:	afbe0018 	sw	s8,24(sp)
a080132c:	03a0f021 	move	s8,sp
a0801330:	afc40020 	sw	a0,32(s8)
a0801334:	3c028007 	lui	v0,0x8007
a0801338:	3442b980 	ori	v0,v0,0xb980
a080133c:	afc20010 	sw	v0,16(s8)
a0801340:	8fc20010 	lw	v0,16(s8)
a0801344:	8fc40020 	lw	a0,32(s8)
a0801348:	0040f809 	jalr	v0
a080134c:	00000000 	nop
a0801350:	03c0e821 	move	sp,s8
a0801354:	8fbf001c 	lw	ra,28(sp)
a0801358:	8fbe0018 	lw	s8,24(sp)
a080135c:	27bd0020 	addiu	sp,sp,32
a0801360:	03e00008 	jr	ra
a0801364:	00000000 	nop
	...

a0801370 <vt100_move_cursor>:
a0801370:	27bdffe8 	addiu	sp,sp,-24
a0801374:	afbf0014 	sw	ra,20(sp)
a0801378:	afbe0010 	sw	s8,16(sp)
a080137c:	03a0f021 	move	s8,sp
a0801380:	afc40018 	sw	a0,24(s8)
a0801384:	afc5001c 	sw	a1,28(s8)
a0801388:	3c02a081 	lui	v0,0xa081
a080138c:	244458a0 	addiu	a0,v0,22688
a0801390:	2405001b 	li	a1,27
a0801394:	8fc6001c 	lw	a2,28(s8)
a0801398:	8fc70018 	lw	a3,24(s8)
a080139c:	0c203fd5 	jal	a080ff54 <printk>
a08013a0:	00000000 	nop
a08013a4:	03c0e821 	move	sp,s8
a08013a8:	8fbf0014 	lw	ra,20(sp)
a08013ac:	8fbe0010 	lw	s8,16(sp)
a08013b0:	27bd0018 	addiu	sp,sp,24
a08013b4:	03e00008 	jr	ra
a08013b8:	00000000 	nop

a08013bc <vt100_clear>:
a08013bc:	27bdffe8 	addiu	sp,sp,-24
a08013c0:	afbf0014 	sw	ra,20(sp)
a08013c4:	afbe0010 	sw	s8,16(sp)
a08013c8:	03a0f021 	move	s8,sp
a08013cc:	3c02a081 	lui	v0,0xa081
a08013d0:	244458ac 	addiu	a0,v0,22700
a08013d4:	2405001b 	li	a1,27
a08013d8:	0c203fd5 	jal	a080ff54 <printk>
a08013dc:	00000000 	nop
a08013e0:	03c0e821 	move	sp,s8
a08013e4:	8fbf0014 	lw	ra,20(sp)
a08013e8:	8fbe0010 	lw	s8,16(sp)
a08013ec:	27bd0018 	addiu	sp,sp,24
a08013f0:	03e00008 	jr	ra
a08013f4:	00000000 	nop

a08013f8 <vt100_hidden_cursor>:
a08013f8:	27bdffe8 	addiu	sp,sp,-24
a08013fc:	afbf0014 	sw	ra,20(sp)
a0801400:	afbe0010 	sw	s8,16(sp)
a0801404:	03a0f021 	move	s8,sp
a0801408:	3c02a081 	lui	v0,0xa081
a080140c:	244458b4 	addiu	a0,v0,22708
a0801410:	2405001b 	li	a1,27
a0801414:	0c203fd5 	jal	a080ff54 <printk>
a0801418:	00000000 	nop
a080141c:	03c0e821 	move	sp,s8
a0801420:	8fbf0014 	lw	ra,20(sp)
a0801424:	8fbe0010 	lw	s8,16(sp)
a0801428:	27bd0018 	addiu	sp,sp,24
a080142c:	03e00008 	jr	ra
a0801430:	00000000 	nop

a0801434 <screen_scroll>:
a0801434:	27bdfff0 	addiu	sp,sp,-16
a0801438:	afbe000c 	sw	s8,12(sp)
a080143c:	03a0f021 	move	s8,sp
a0801440:	afc40010 	sw	a0,16(s8)
a0801444:	afc50014 	sw	a1,20(s8)
a0801448:	8fc20010 	lw	v0,16(s8)
a080144c:	afc20004 	sw	v0,4(s8)
a0801450:	0820052d 	j	a08014b4 <screen_scroll+0x80>
a0801454:	00000000 	nop
a0801458:	afc00000 	sw	zero,0(s8)
a080145c:	08200526 	j	a0801498 <screen_scroll+0x64>
a0801460:	00000000 	nop
a0801464:	8fc20004 	lw	v0,4(s8)
a0801468:	00021900 	sll	v1,v0,0x4
a080146c:	00031080 	sll	v0,v1,0x2
a0801470:	00621821 	addu	v1,v1,v0
a0801474:	8fc20000 	lw	v0,0(s8)
a0801478:	00621821 	addu	v1,v1,v0
a080147c:	3c02a082 	lui	v0,0xa082
a0801480:	24428da0 	addiu	v0,v0,-29280
a0801484:	00621021 	addu	v0,v1,v0
a0801488:	a0400000 	sb	zero,0(v0)
a080148c:	8fc20000 	lw	v0,0(s8)
a0801490:	24420001 	addiu	v0,v0,1
a0801494:	afc20000 	sw	v0,0(s8)
a0801498:	8fc20000 	lw	v0,0(s8)
a080149c:	28420050 	slti	v0,v0,80
a08014a0:	1440fff0 	bnez	v0,a0801464 <screen_scroll+0x30>
a08014a4:	00000000 	nop
a08014a8:	8fc20004 	lw	v0,4(s8)
a08014ac:	24420001 	addiu	v0,v0,1
a08014b0:	afc20004 	sw	v0,4(s8)
a08014b4:	8fc20004 	lw	v0,4(s8)
a08014b8:	8fc30014 	lw	v1,20(s8)
a08014bc:	0062102a 	slt	v0,v1,v0
a08014c0:	1040ffe5 	beqz	v0,a0801458 <screen_scroll+0x24>
a08014c4:	00000000 	nop
a08014c8:	8fc20010 	lw	v0,16(s8)
a08014cc:	afc20004 	sw	v0,4(s8)
a08014d0:	08200569 	j	a08015a4 <screen_scroll+0x170>
a08014d4:	00000000 	nop
a08014d8:	afc00000 	sw	zero,0(s8)
a08014dc:	08200562 	j	a0801588 <screen_scroll+0x154>
a08014e0:	00000000 	nop
a08014e4:	8fc30004 	lw	v1,4(s8)
a08014e8:	8fc20014 	lw	v0,20(s8)
a08014ec:	1462000e 	bne	v1,v0,a0801528 <screen_scroll+0xf4>
a08014f0:	00000000 	nop
a08014f4:	8fc20004 	lw	v0,4(s8)
a08014f8:	00021900 	sll	v1,v0,0x4
a08014fc:	00031080 	sll	v0,v1,0x2
a0801500:	00621821 	addu	v1,v1,v0
a0801504:	8fc20000 	lw	v0,0(s8)
a0801508:	00621821 	addu	v1,v1,v0
a080150c:	3c02a081 	lui	v0,0xa081
a0801510:	24427ae0 	addiu	v0,v0,31456
a0801514:	00621821 	addu	v1,v1,v0
a0801518:	24020020 	li	v0,32
a080151c:	a0620000 	sb	v0,0(v1)
a0801520:	0820055f 	j	a080157c <screen_scroll+0x148>
a0801524:	00000000 	nop
a0801528:	8fc20004 	lw	v0,4(s8)
a080152c:	00021900 	sll	v1,v0,0x4
a0801530:	00031080 	sll	v0,v1,0x2
a0801534:	00621821 	addu	v1,v1,v0
a0801538:	8fc20000 	lw	v0,0(s8)
a080153c:	00622021 	addu	a0,v1,v0
a0801540:	8fc20004 	lw	v0,4(s8)
a0801544:	24420001 	addiu	v0,v0,1
a0801548:	00021900 	sll	v1,v0,0x4
a080154c:	00031080 	sll	v0,v1,0x2
a0801550:	00621821 	addu	v1,v1,v0
a0801554:	8fc20000 	lw	v0,0(s8)
a0801558:	00621821 	addu	v1,v1,v0
a080155c:	3c02a081 	lui	v0,0xa081
a0801560:	24427ae0 	addiu	v0,v0,31456
a0801564:	00621021 	addu	v0,v1,v0
a0801568:	80430000 	lb	v1,0(v0)
a080156c:	3c02a081 	lui	v0,0xa081
a0801570:	24427ae0 	addiu	v0,v0,31456
a0801574:	00821021 	addu	v0,a0,v0
a0801578:	a0430000 	sb	v1,0(v0)
a080157c:	8fc20000 	lw	v0,0(s8)
a0801580:	24420001 	addiu	v0,v0,1
a0801584:	afc20000 	sw	v0,0(s8)
a0801588:	8fc20000 	lw	v0,0(s8)
a080158c:	28420050 	slti	v0,v0,80
a0801590:	1440ffd4 	bnez	v0,a08014e4 <screen_scroll+0xb0>
a0801594:	00000000 	nop
a0801598:	8fc20004 	lw	v0,4(s8)
a080159c:	24420001 	addiu	v0,v0,1
a08015a0:	afc20004 	sw	v0,4(s8)
a08015a4:	8fc20004 	lw	v0,4(s8)
a08015a8:	8fc30014 	lw	v1,20(s8)
a08015ac:	0062102a 	slt	v0,v1,v0
a08015b0:	1040ffc9 	beqz	v0,a08014d8 <screen_scroll+0xa4>
a08015b4:	00000000 	nop
a08015b8:	03c0e821 	move	sp,s8
a08015bc:	8fbe000c 	lw	s8,12(sp)
a08015c0:	27bd0010 	addiu	sp,sp,16
a08015c4:	03e00008 	jr	ra
a08015c8:	00000000 	nop

a08015cc <screen_write_ch>:
a08015cc:	27bdffe8 	addiu	sp,sp,-24
a08015d0:	afbf0014 	sw	ra,20(sp)
a08015d4:	afbe0010 	sw	s8,16(sp)
a08015d8:	03a0f021 	move	s8,sp
a08015dc:	00801021 	move	v0,a0
a08015e0:	a3c20018 	sb	v0,24(s8)
a08015e4:	83c30018 	lb	v1,24(s8)
a08015e8:	2402000a 	li	v0,10
a08015ec:	1462000a 	bne	v1,v0,a0801618 <screen_write_ch+0x4c>
a08015f0:	00000000 	nop
a08015f4:	3c02a081 	lui	v0,0xa081
a08015f8:	ac407aa4 	sw	zero,31396(v0)
a08015fc:	3c02a081 	lui	v0,0xa081
a0801600:	8c427aa8 	lw	v0,31400(v0)
a0801604:	24430001 	addiu	v1,v0,1
a0801608:	3c02a081 	lui	v0,0xa081
a080160c:	ac437aa8 	sw	v1,31400(v0)
a0801610:	082005c1 	j	a0801704 <screen_write_ch+0x138>
a0801614:	00000000 	nop
a0801618:	83c30018 	lb	v1,24(s8)
a080161c:	24020008 	li	v0,8
a0801620:	14620019 	bne	v1,v0,a0801688 <screen_write_ch+0xbc>
a0801624:	00000000 	nop
a0801628:	3c02a081 	lui	v0,0xa081
a080162c:	8c427aa4 	lw	v0,31396(v0)
a0801630:	18400034 	blez	v0,a0801704 <screen_write_ch+0x138>
a0801634:	00000000 	nop
a0801638:	3c02a081 	lui	v0,0xa081
a080163c:	8c427aa4 	lw	v0,31396(v0)
a0801640:	2443ffff 	addiu	v1,v0,-1
a0801644:	3c02a081 	lui	v0,0xa081
a0801648:	ac437aa4 	sw	v1,31396(v0)
a080164c:	3c02a081 	lui	v0,0xa081
a0801650:	8c427aa8 	lw	v0,31400(v0)
a0801654:	00021900 	sll	v1,v0,0x4
a0801658:	00031080 	sll	v0,v1,0x2
a080165c:	00621821 	addu	v1,v1,v0
a0801660:	3c02a081 	lui	v0,0xa081
a0801664:	8c427aa4 	lw	v0,31396(v0)
a0801668:	00621821 	addu	v1,v1,v0
a080166c:	3c02a081 	lui	v0,0xa081
a0801670:	24427ae0 	addiu	v0,v0,31456
a0801674:	00621821 	addu	v1,v1,v0
a0801678:	24020020 	li	v0,32
a080167c:	a0620000 	sb	v0,0(v1)
a0801680:	082005c1 	j	a0801704 <screen_write_ch+0x138>
a0801684:	00000000 	nop
a0801688:	83c30018 	lb	v1,24(s8)
a080168c:	2402000d 	li	v0,13
a0801690:	1462000a 	bne	v1,v0,a08016bc <screen_write_ch+0xf0>
a0801694:	00000000 	nop
a0801698:	3c02a081 	lui	v0,0xa081
a080169c:	ac407aa4 	sw	zero,31396(v0)
a08016a0:	3c02a081 	lui	v0,0xa081
a08016a4:	8c427aa8 	lw	v0,31400(v0)
a08016a8:	24430001 	addiu	v1,v0,1
a08016ac:	3c02a081 	lui	v0,0xa081
a08016b0:	ac437aa8 	sw	v1,31400(v0)
a08016b4:	082005c1 	j	a0801704 <screen_write_ch+0x138>
a08016b8:	00000000 	nop
a08016bc:	3c02a081 	lui	v0,0xa081
a08016c0:	8c427aa8 	lw	v0,31400(v0)
a08016c4:	00021900 	sll	v1,v0,0x4
a08016c8:	00031080 	sll	v0,v1,0x2
a08016cc:	00621821 	addu	v1,v1,v0
a08016d0:	3c02a081 	lui	v0,0xa081
a08016d4:	8c427aa4 	lw	v0,31396(v0)
a08016d8:	00621821 	addu	v1,v1,v0
a08016dc:	3c02a081 	lui	v0,0xa081
a08016e0:	24427ae0 	addiu	v0,v0,31456
a08016e4:	00621821 	addu	v1,v1,v0
a08016e8:	93c20018 	lbu	v0,24(s8)
a08016ec:	a0620000 	sb	v0,0(v1)
a08016f0:	3c02a081 	lui	v0,0xa081
a08016f4:	8c427aa4 	lw	v0,31396(v0)
a08016f8:	24430001 	addiu	v1,v0,1
a08016fc:	3c02a081 	lui	v0,0xa081
a0801700:	ac437aa4 	sw	v1,31396(v0)
a0801704:	3c02a081 	lui	v0,0xa081
a0801708:	8c427aa4 	lw	v0,31396(v0)
a080170c:	04410003 	bgez	v0,a080171c <screen_write_ch+0x150>
a0801710:	00000000 	nop
a0801714:	3c02a081 	lui	v0,0xa081
a0801718:	ac407aa4 	sw	zero,31396(v0)
a080171c:	3c02a081 	lui	v0,0xa081
a0801720:	8c427aa4 	lw	v0,31396(v0)
a0801724:	28420050 	slti	v0,v0,80
a0801728:	14400008 	bnez	v0,a080174c <screen_write_ch+0x180>
a080172c:	00000000 	nop
a0801730:	3c02a081 	lui	v0,0xa081
a0801734:	8c427aa8 	lw	v0,31400(v0)
a0801738:	24430001 	addiu	v1,v0,1
a080173c:	3c02a081 	lui	v0,0xa081
a0801740:	ac437aa8 	sw	v1,31400(v0)
a0801744:	3c02a081 	lui	v0,0xa081
a0801748:	ac407aa4 	sw	zero,31396(v0)
a080174c:	3c02a081 	lui	v0,0xa081
a0801750:	8c427aa8 	lw	v0,31400(v0)
a0801754:	04410003 	bgez	v0,a0801764 <screen_write_ch+0x198>
a0801758:	00000000 	nop
a080175c:	3c02a081 	lui	v0,0xa081
a0801760:	ac407aa8 	sw	zero,31400(v0)
a0801764:	3c02a081 	lui	v0,0xa081
a0801768:	8c427aa8 	lw	v0,31400(v0)
a080176c:	2842003c 	slti	v0,v0,60
a0801770:	1440000a 	bnez	v0,a080179c <screen_write_ch+0x1d0>
a0801774:	00000000 	nop
a0801778:	2404001f 	li	a0,31
a080177c:	2405003b 	li	a1,59
a0801780:	0c20050d 	jal	a0801434 <screen_scroll>
a0801784:	00000000 	nop
a0801788:	3c02a081 	lui	v0,0xa081
a080178c:	ac407aa4 	sw	zero,31396(v0)
a0801790:	3c03a081 	lui	v1,0xa081
a0801794:	2402003b 	li	v0,59
a0801798:	ac627aa8 	sw	v0,31400(v1)
a080179c:	03c0e821 	move	sp,s8
a08017a0:	8fbf0014 	lw	ra,20(sp)
a08017a4:	8fbe0010 	lw	s8,16(sp)
a08017a8:	27bd0018 	addiu	sp,sp,24
a08017ac:	03e00008 	jr	ra
a08017b0:	00000000 	nop

a08017b4 <init_screen>:
a08017b4:	27bdffe8 	addiu	sp,sp,-24
a08017b8:	afbf0014 	sw	ra,20(sp)
a08017bc:	afbe0010 	sw	s8,16(sp)
a08017c0:	03a0f021 	move	s8,sp
a08017c4:	0c2004fe 	jal	a08013f8 <vt100_hidden_cursor>
a08017c8:	00000000 	nop
a08017cc:	0c2004ef 	jal	a08013bc <vt100_clear>
a08017d0:	00000000 	nop
a08017d4:	00002021 	move	a0,zero
a08017d8:	2405003b 	li	a1,59
a08017dc:	0c2005ff 	jal	a08017fc <screen_clear>
a08017e0:	00000000 	nop
a08017e4:	03c0e821 	move	sp,s8
a08017e8:	8fbf0014 	lw	ra,20(sp)
a08017ec:	8fbe0010 	lw	s8,16(sp)
a08017f0:	27bd0018 	addiu	sp,sp,24
a08017f4:	03e00008 	jr	ra
a08017f8:	00000000 	nop

a08017fc <screen_clear>:
a08017fc:	27bdffe0 	addiu	sp,sp,-32
a0801800:	afbf001c 	sw	ra,28(sp)
a0801804:	afbe0018 	sw	s8,24(sp)
a0801808:	03a0f021 	move	s8,sp
a080180c:	afc40020 	sw	a0,32(s8)
a0801810:	afc50024 	sw	a1,36(s8)
a0801814:	afc00014 	sw	zero,20(s8)
a0801818:	0820062a 	j	a08018a8 <screen_clear+0xac>
a080181c:	00000000 	nop
a0801820:	afc00010 	sw	zero,16(s8)
a0801824:	08200623 	j	a080188c <screen_clear+0x90>
a0801828:	00000000 	nop
a080182c:	8fc20014 	lw	v0,20(s8)
a0801830:	00021900 	sll	v1,v0,0x4
a0801834:	00031080 	sll	v0,v1,0x2
a0801838:	00621821 	addu	v1,v1,v0
a080183c:	8fc20010 	lw	v0,16(s8)
a0801840:	00621821 	addu	v1,v1,v0
a0801844:	3c02a081 	lui	v0,0xa081
a0801848:	24427ae0 	addiu	v0,v0,31456
a080184c:	00621821 	addu	v1,v1,v0
a0801850:	24020020 	li	v0,32
a0801854:	a0620000 	sb	v0,0(v1)
a0801858:	8fc20014 	lw	v0,20(s8)
a080185c:	00021900 	sll	v1,v0,0x4
a0801860:	00031080 	sll	v0,v1,0x2
a0801864:	00621821 	addu	v1,v1,v0
a0801868:	8fc20010 	lw	v0,16(s8)
a080186c:	00621821 	addu	v1,v1,v0
a0801870:	3c02a082 	lui	v0,0xa082
a0801874:	24428da0 	addiu	v0,v0,-29280
a0801878:	00621021 	addu	v0,v1,v0
a080187c:	a0400000 	sb	zero,0(v0)
a0801880:	8fc20010 	lw	v0,16(s8)
a0801884:	24420001 	addiu	v0,v0,1
a0801888:	afc20010 	sw	v0,16(s8)
a080188c:	8fc20010 	lw	v0,16(s8)
a0801890:	28420050 	slti	v0,v0,80
a0801894:	1440ffe5 	bnez	v0,a080182c <screen_clear+0x30>
a0801898:	00000000 	nop
a080189c:	8fc20014 	lw	v0,20(s8)
a08018a0:	24420001 	addiu	v0,v0,1
a08018a4:	afc20014 	sw	v0,20(s8)
a08018a8:	8fc20014 	lw	v0,20(s8)
a08018ac:	2842003c 	slti	v0,v0,60
a08018b0:	1440ffdb 	bnez	v0,a0801820 <screen_clear+0x24>
a08018b4:	00000000 	nop
a08018b8:	3c02a081 	lui	v0,0xa081
a08018bc:	ac407aa4 	sw	zero,31396(v0)
a08018c0:	3c02a081 	lui	v0,0xa081
a08018c4:	ac407aa8 	sw	zero,31400(v0)
a08018c8:	0c200682 	jal	a0801a08 <screen_reflush>
a08018cc:	00000000 	nop
a08018d0:	03c0e821 	move	sp,s8
a08018d4:	8fbf001c 	lw	ra,28(sp)
a08018d8:	8fbe0018 	lw	s8,24(sp)
a08018dc:	27bd0020 	addiu	sp,sp,32
a08018e0:	03e00008 	jr	ra
a08018e4:	00000000 	nop

a08018e8 <screen_move_cursor>:
a08018e8:	27bdfff8 	addiu	sp,sp,-8
a08018ec:	afbe0004 	sw	s8,4(sp)
a08018f0:	03a0f021 	move	s8,sp
a08018f4:	afc40008 	sw	a0,8(s8)
a08018f8:	afc5000c 	sw	a1,12(s8)
a08018fc:	3c03a081 	lui	v1,0xa081
a0801900:	8fc20008 	lw	v0,8(s8)
a0801904:	ac627aa4 	sw	v0,31396(v1)
a0801908:	3c03a081 	lui	v1,0xa081
a080190c:	8fc2000c 	lw	v0,12(s8)
a0801910:	ac627aa8 	sw	v0,31400(v1)
a0801914:	03c0e821 	move	sp,s8
a0801918:	8fbe0004 	lw	s8,4(sp)
a080191c:	27bd0008 	addiu	sp,sp,8
a0801920:	03e00008 	jr	ra
a0801924:	00000000 	nop

a0801928 <screen_write>:
a0801928:	27bdffe0 	addiu	sp,sp,-32
a080192c:	afbf001c 	sw	ra,28(sp)
a0801930:	afbe0018 	sw	s8,24(sp)
a0801934:	03a0f021 	move	s8,sp
a0801938:	afc40020 	sw	a0,32(s8)
a080193c:	afc00014 	sw	zero,20(s8)
a0801940:	8fc40020 	lw	a0,32(s8)
a0801944:	0c203a84 	jal	a080ea10 <strlen>
a0801948:	00000000 	nop
a080194c:	afc20010 	sw	v0,16(s8)
a0801950:	afc00014 	sw	zero,20(s8)
a0801954:	08200661 	j	a0801984 <screen_write+0x5c>
a0801958:	00000000 	nop
a080195c:	8fc30014 	lw	v1,20(s8)
a0801960:	8fc20020 	lw	v0,32(s8)
a0801964:	00431021 	addu	v0,v0,v1
a0801968:	80420000 	lb	v0,0(v0)
a080196c:	00402021 	move	a0,v0
a0801970:	0c200573 	jal	a08015cc <screen_write_ch>
a0801974:	00000000 	nop
a0801978:	8fc20014 	lw	v0,20(s8)
a080197c:	24420001 	addiu	v0,v0,1
a0801980:	afc20014 	sw	v0,20(s8)
a0801984:	8fc20014 	lw	v0,20(s8)
a0801988:	8fc30010 	lw	v1,16(s8)
a080198c:	0043102a 	slt	v0,v0,v1
a0801990:	1440fff2 	bnez	v0,a080195c <screen_write+0x34>
a0801994:	00000000 	nop
a0801998:	03c0e821 	move	sp,s8
a080199c:	8fbf001c 	lw	ra,28(sp)
a08019a0:	8fbe0018 	lw	s8,24(sp)
a08019a4:	27bd0020 	addiu	sp,sp,32
a08019a8:	03e00008 	jr	ra
a08019ac:	00000000 	nop

a08019b0 <screen_cursor_add>:
a08019b0:	27bdfff8 	addiu	sp,sp,-8
a08019b4:	afbe0004 	sw	s8,4(sp)
a08019b8:	03a0f021 	move	s8,sp
a08019bc:	afc40008 	sw	a0,8(s8)
a08019c0:	afc5000c 	sw	a1,12(s8)
a08019c4:	3c02a081 	lui	v0,0xa081
a08019c8:	8c437aa4 	lw	v1,31396(v0)
a08019cc:	8fc20008 	lw	v0,8(s8)
a08019d0:	00621821 	addu	v1,v1,v0
a08019d4:	3c02a081 	lui	v0,0xa081
a08019d8:	ac437aa4 	sw	v1,31396(v0)
a08019dc:	3c02a081 	lui	v0,0xa081
a08019e0:	8c437aa8 	lw	v1,31400(v0)
a08019e4:	8fc2000c 	lw	v0,12(s8)
a08019e8:	00621821 	addu	v1,v1,v0
a08019ec:	3c02a081 	lui	v0,0xa081
a08019f0:	ac437aa8 	sw	v1,31400(v0)
a08019f4:	03c0e821 	move	sp,s8
a08019f8:	8fbe0004 	lw	s8,4(sp)
a08019fc:	27bd0008 	addiu	sp,sp,8
a0801a00:	03e00008 	jr	ra
a0801a04:	00000000 	nop

a0801a08 <screen_reflush>:
a0801a08:	27bdffe0 	addiu	sp,sp,-32
a0801a0c:	afbf001c 	sw	ra,28(sp)
a0801a10:	afbe0018 	sw	s8,24(sp)
a0801a14:	03a0f021 	move	s8,sp
a0801a18:	afc00014 	sw	zero,20(s8)
a0801a1c:	082006d5 	j	a0801b54 <screen_reflush+0x14c>
a0801a20:	00000000 	nop
a0801a24:	afc00010 	sw	zero,16(s8)
a0801a28:	082006ce 	j	a0801b38 <screen_reflush+0x130>
a0801a2c:	00000000 	nop
a0801a30:	8fc20014 	lw	v0,20(s8)
a0801a34:	00021900 	sll	v1,v0,0x4
a0801a38:	00031080 	sll	v0,v1,0x2
a0801a3c:	00621821 	addu	v1,v1,v0
a0801a40:	8fc20010 	lw	v0,16(s8)
a0801a44:	00621821 	addu	v1,v1,v0
a0801a48:	3c02a081 	lui	v0,0xa081
a0801a4c:	24427ae0 	addiu	v0,v0,31456
a0801a50:	00621021 	addu	v0,v1,v0
a0801a54:	80440000 	lb	a0,0(v0)
a0801a58:	8fc20014 	lw	v0,20(s8)
a0801a5c:	00021900 	sll	v1,v0,0x4
a0801a60:	00031080 	sll	v0,v1,0x2
a0801a64:	00621821 	addu	v1,v1,v0
a0801a68:	8fc20010 	lw	v0,16(s8)
a0801a6c:	00621821 	addu	v1,v1,v0
a0801a70:	3c02a082 	lui	v0,0xa082
a0801a74:	24428da0 	addiu	v0,v0,-29280
a0801a78:	00621021 	addu	v0,v1,v0
a0801a7c:	80420000 	lb	v0,0(v0)
a0801a80:	1082002a 	beq	a0,v0,a0801b2c <screen_reflush+0x124>
a0801a84:	00000000 	nop
a0801a88:	8fc20010 	lw	v0,16(s8)
a0801a8c:	24430001 	addiu	v1,v0,1
a0801a90:	8fc20014 	lw	v0,20(s8)
a0801a94:	24420001 	addiu	v0,v0,1
a0801a98:	00602021 	move	a0,v1
a0801a9c:	00402821 	move	a1,v0
a0801aa0:	0c2004dc 	jal	a0801370 <vt100_move_cursor>
a0801aa4:	00000000 	nop
a0801aa8:	8fc20014 	lw	v0,20(s8)
a0801aac:	00021900 	sll	v1,v0,0x4
a0801ab0:	00031080 	sll	v0,v1,0x2
a0801ab4:	00621821 	addu	v1,v1,v0
a0801ab8:	8fc20010 	lw	v0,16(s8)
a0801abc:	00621821 	addu	v1,v1,v0
a0801ac0:	3c02a081 	lui	v0,0xa081
a0801ac4:	24427ae0 	addiu	v0,v0,31456
a0801ac8:	00621021 	addu	v0,v1,v0
a0801acc:	80420000 	lb	v0,0(v0)
a0801ad0:	00402021 	move	a0,v0
a0801ad4:	0c2004b4 	jal	a08012d0 <port_write_ch>
a0801ad8:	00000000 	nop
a0801adc:	8fc20014 	lw	v0,20(s8)
a0801ae0:	00021900 	sll	v1,v0,0x4
a0801ae4:	00031080 	sll	v0,v1,0x2
a0801ae8:	00621821 	addu	v1,v1,v0
a0801aec:	8fc20010 	lw	v0,16(s8)
a0801af0:	00622021 	addu	a0,v1,v0
a0801af4:	8fc20014 	lw	v0,20(s8)
a0801af8:	00021900 	sll	v1,v0,0x4
a0801afc:	00031080 	sll	v0,v1,0x2
a0801b00:	00621821 	addu	v1,v1,v0
a0801b04:	8fc20010 	lw	v0,16(s8)
a0801b08:	00621821 	addu	v1,v1,v0
a0801b0c:	3c02a081 	lui	v0,0xa081
a0801b10:	24427ae0 	addiu	v0,v0,31456
a0801b14:	00621021 	addu	v0,v1,v0
a0801b18:	80430000 	lb	v1,0(v0)
a0801b1c:	3c02a082 	lui	v0,0xa082
a0801b20:	24428da0 	addiu	v0,v0,-29280
a0801b24:	00821021 	addu	v0,a0,v0
a0801b28:	a0430000 	sb	v1,0(v0)
a0801b2c:	8fc20010 	lw	v0,16(s8)
a0801b30:	24420001 	addiu	v0,v0,1
a0801b34:	afc20010 	sw	v0,16(s8)
a0801b38:	8fc20010 	lw	v0,16(s8)
a0801b3c:	28420050 	slti	v0,v0,80
a0801b40:	1440ffbb 	bnez	v0,a0801a30 <screen_reflush+0x28>
a0801b44:	00000000 	nop
a0801b48:	8fc20014 	lw	v0,20(s8)
a0801b4c:	24420001 	addiu	v0,v0,1
a0801b50:	afc20014 	sw	v0,20(s8)
a0801b54:	8fc20014 	lw	v0,20(s8)
a0801b58:	2842003c 	slti	v0,v0,60
a0801b5c:	1440ffb1 	bnez	v0,a0801a24 <screen_reflush+0x1c>
a0801b60:	00000000 	nop
a0801b64:	3c02a081 	lui	v0,0xa081
a0801b68:	8c437aa4 	lw	v1,31396(v0)
a0801b6c:	3c02a081 	lui	v0,0xa081
a0801b70:	8c427aa8 	lw	v0,31400(v0)
a0801b74:	00602021 	move	a0,v1
a0801b78:	00402821 	move	a1,v0
a0801b7c:	0c2004dc 	jal	a0801370 <vt100_move_cursor>
a0801b80:	00000000 	nop
a0801b84:	03c0e821 	move	sp,s8
a0801b88:	8fbf001c 	lw	ra,28(sp)
a0801b8c:	8fbe0018 	lw	s8,24(sp)
a0801b90:	27bd0020 	addiu	sp,sp,32
a0801b94:	03e00008 	jr	ra
a0801b98:	00000000 	nop

a0801b9c <do_write>:
a0801b9c:	27bdffe8 	addiu	sp,sp,-24
a0801ba0:	afbf0014 	sw	ra,20(sp)
a0801ba4:	afbe0010 	sw	s8,16(sp)
a0801ba8:	03a0f021 	move	s8,sp
a0801bac:	afc40018 	sw	a0,24(s8)
a0801bb0:	8fc40018 	lw	a0,24(s8)
a0801bb4:	0c20064a 	jal	a0801928 <screen_write>
a0801bb8:	00000000 	nop
a0801bbc:	0c200682 	jal	a0801a08 <screen_reflush>
a0801bc0:	00000000 	nop
a0801bc4:	03c0e821 	move	sp,s8
a0801bc8:	8fbf0014 	lw	ra,20(sp)
a0801bcc:	8fbe0010 	lw	s8,16(sp)
a0801bd0:	27bd0018 	addiu	sp,sp,24
a0801bd4:	03e00008 	jr	ra
a0801bd8:	00000000 	nop
a0801bdc:	00000000 	nop

a0801be0 <reg_read_32>:
a0801be0:	27bdfff8 	addiu	sp,sp,-8
a0801be4:	afbe0004 	sw	s8,4(sp)
a0801be8:	03a0f021 	move	s8,sp
a0801bec:	afc40008 	sw	a0,8(s8)
a0801bf0:	8fc20008 	lw	v0,8(s8)
a0801bf4:	8c420000 	lw	v0,0(v0)
a0801bf8:	03c0e821 	move	sp,s8
a0801bfc:	8fbe0004 	lw	s8,4(sp)
a0801c00:	27bd0008 	addiu	sp,sp,8
a0801c04:	03e00008 	jr	ra
a0801c08:	00000000 	nop

a0801c0c <read_register>:
a0801c0c:	27bdfff0 	addiu	sp,sp,-16
a0801c10:	afbe000c 	sw	s8,12(sp)
a0801c14:	03a0f021 	move	s8,sp
a0801c18:	afc40010 	sw	a0,16(s8)
a0801c1c:	afc50014 	sw	a1,20(s8)
a0801c20:	8fc30010 	lw	v1,16(s8)
a0801c24:	8fc20014 	lw	v0,20(s8)
a0801c28:	00621021 	addu	v0,v1,v0
a0801c2c:	afc20004 	sw	v0,4(s8)
a0801c30:	8fc20004 	lw	v0,4(s8)
a0801c34:	8c420000 	lw	v0,0(v0)
a0801c38:	afc20000 	sw	v0,0(s8)
a0801c3c:	8fc20000 	lw	v0,0(s8)
a0801c40:	03c0e821 	move	sp,s8
a0801c44:	8fbe000c 	lw	s8,12(sp)
a0801c48:	27bd0010 	addiu	sp,sp,16
a0801c4c:	03e00008 	jr	ra
a0801c50:	00000000 	nop

a0801c54 <reg_write_32>:
a0801c54:	27bdfff8 	addiu	sp,sp,-8
a0801c58:	afbe0004 	sw	s8,4(sp)
a0801c5c:	03a0f021 	move	s8,sp
a0801c60:	afc40008 	sw	a0,8(s8)
a0801c64:	afc5000c 	sw	a1,12(s8)
a0801c68:	8fc30008 	lw	v1,8(s8)
a0801c6c:	8fc2000c 	lw	v0,12(s8)
a0801c70:	ac620000 	sw	v0,0(v1)
a0801c74:	03c0e821 	move	sp,s8
a0801c78:	8fbe0004 	lw	s8,4(sp)
a0801c7c:	27bd0008 	addiu	sp,sp,8
a0801c80:	03e00008 	jr	ra
a0801c84:	00000000 	nop

a0801c88 <gmac_get_mac_addr>:
a0801c88:	27bdffe0 	addiu	sp,sp,-32
a0801c8c:	afbf001c 	sw	ra,28(sp)
a0801c90:	afbe0018 	sw	s8,24(sp)
a0801c94:	03a0f021 	move	s8,sp
a0801c98:	afc40020 	sw	a0,32(s8)
a0801c9c:	3c04bfe1 	lui	a0,0xbfe1
a0801ca0:	24050044 	li	a1,68
a0801ca4:	0c200703 	jal	a0801c0c <read_register>
a0801ca8:	00000000 	nop
a0801cac:	afc20010 	sw	v0,16(s8)
a0801cb0:	8fc20010 	lw	v0,16(s8)
a0801cb4:	304300ff 	andi	v1,v0,0xff
a0801cb8:	8fc20020 	lw	v0,32(s8)
a0801cbc:	a0430000 	sb	v1,0(v0)
a0801cc0:	8fc20020 	lw	v0,32(s8)
a0801cc4:	24430001 	addiu	v1,v0,1
a0801cc8:	8fc20010 	lw	v0,16(s8)
a0801ccc:	00021202 	srl	v0,v0,0x8
a0801cd0:	304200ff 	andi	v0,v0,0xff
a0801cd4:	a0620000 	sb	v0,0(v1)
a0801cd8:	8fc20020 	lw	v0,32(s8)
a0801cdc:	24430002 	addiu	v1,v0,2
a0801ce0:	8fc20010 	lw	v0,16(s8)
a0801ce4:	00021402 	srl	v0,v0,0x10
a0801ce8:	304200ff 	andi	v0,v0,0xff
a0801cec:	a0620000 	sb	v0,0(v1)
a0801cf0:	8fc20020 	lw	v0,32(s8)
a0801cf4:	24430003 	addiu	v1,v0,3
a0801cf8:	8fc20010 	lw	v0,16(s8)
a0801cfc:	00021602 	srl	v0,v0,0x18
a0801d00:	304200ff 	andi	v0,v0,0xff
a0801d04:	a0620000 	sb	v0,0(v1)
a0801d08:	3c04bfe1 	lui	a0,0xbfe1
a0801d0c:	24050040 	li	a1,64
a0801d10:	0c200703 	jal	a0801c0c <read_register>
a0801d14:	00000000 	nop
a0801d18:	afc20010 	sw	v0,16(s8)
a0801d1c:	8fc20020 	lw	v0,32(s8)
a0801d20:	24430004 	addiu	v1,v0,4
a0801d24:	8fc20010 	lw	v0,16(s8)
a0801d28:	304200ff 	andi	v0,v0,0xff
a0801d2c:	a0620000 	sb	v0,0(v1)
a0801d30:	8fc20020 	lw	v0,32(s8)
a0801d34:	24430005 	addiu	v1,v0,5
a0801d38:	8fc20010 	lw	v0,16(s8)
a0801d3c:	00021202 	srl	v0,v0,0x8
a0801d40:	304200ff 	andi	v0,v0,0xff
a0801d44:	a0620000 	sb	v0,0(v1)
a0801d48:	03c0e821 	move	sp,s8
a0801d4c:	8fbf001c 	lw	ra,28(sp)
a0801d50:	8fbe0018 	lw	s8,24(sp)
a0801d54:	27bd0020 	addiu	sp,sp,32
a0801d58:	03e00008 	jr	ra
a0801d5c:	00000000 	nop

a0801d60 <print_dma_regs>:
a0801d60:	27bdffe0 	addiu	sp,sp,-32
a0801d64:	afbf001c 	sw	ra,28(sp)
a0801d68:	afbe0018 	sw	s8,24(sp)
a0801d6c:	03a0f021 	move	s8,sp
a0801d70:	3c02a081 	lui	v0,0xa081
a0801d74:	244458c0 	addiu	a0,v0,22720
a0801d78:	0c203fd5 	jal	a080ff54 <printk>
a0801d7c:	00000000 	nop
a0801d80:	3c02bfe1 	lui	v0,0xbfe1
a0801d84:	34441000 	ori	a0,v0,0x1000
a0801d88:	00002821 	move	a1,zero
a0801d8c:	0c200703 	jal	a0801c0c <read_register>
a0801d90:	00000000 	nop
a0801d94:	afc20014 	sw	v0,20(s8)
a0801d98:	3c02a081 	lui	v0,0xa081
a0801d9c:	244458d4 	addiu	a0,v0,22740
a0801da0:	8fc50014 	lw	a1,20(s8)
a0801da4:	0c203fd5 	jal	a080ff54 <printk>
a0801da8:	00000000 	nop
a0801dac:	3c02bfe1 	lui	v0,0xbfe1
a0801db0:	34441000 	ori	a0,v0,0x1000
a0801db4:	2405000c 	li	a1,12
a0801db8:	0c200703 	jal	a0801c0c <read_register>
a0801dbc:	00000000 	nop
a0801dc0:	afc20014 	sw	v0,20(s8)
a0801dc4:	3c02bfe1 	lui	v0,0xbfe1
a0801dc8:	34441000 	ori	a0,v0,0x1000
a0801dcc:	24050010 	li	a1,16
a0801dd0:	0c200703 	jal	a0801c0c <read_register>
a0801dd4:	00000000 	nop
a0801dd8:	afc20010 	sw	v0,16(s8)
a0801ddc:	3c02a081 	lui	v0,0xa081
a0801de0:	244458ec 	addiu	a0,v0,22764
a0801de4:	8fc50010 	lw	a1,16(s8)
a0801de8:	8fc60014 	lw	a2,20(s8)
a0801dec:	0c203fd5 	jal	a080ff54 <printk>
a0801df0:	00000000 	nop
a0801df4:	3c02bfe1 	lui	v0,0xbfe1
a0801df8:	34441000 	ori	a0,v0,0x1000
a0801dfc:	24050014 	li	a1,20
a0801e00:	0c200703 	jal	a0801c0c <read_register>
a0801e04:	00000000 	nop
a0801e08:	afc20014 	sw	v0,20(s8)
a0801e0c:	3c02a081 	lui	v0,0xa081
a0801e10:	24445908 	addiu	a0,v0,22792
a0801e14:	8fc50014 	lw	a1,20(s8)
a0801e18:	0c203fd5 	jal	a080ff54 <printk>
a0801e1c:	00000000 	nop
a0801e20:	3c02bfe1 	lui	v0,0xbfe1
a0801e24:	34441000 	ori	a0,v0,0x1000
a0801e28:	24050018 	li	a1,24
a0801e2c:	0c200703 	jal	a0801c0c <read_register>
a0801e30:	00000000 	nop
a0801e34:	afc20014 	sw	v0,20(s8)
a0801e38:	3c02a081 	lui	v0,0xa081
a0801e3c:	24445920 	addiu	a0,v0,22816
a0801e40:	8fc50014 	lw	a1,20(s8)
a0801e44:	0c203fd5 	jal	a080ff54 <printk>
a0801e48:	00000000 	nop
a0801e4c:	3c02bfe1 	lui	v0,0xbfe1
a0801e50:	34441000 	ori	a0,v0,0x1000
a0801e54:	2405001c 	li	a1,28
a0801e58:	0c200703 	jal	a0801c0c <read_register>
a0801e5c:	00000000 	nop
a0801e60:	afc20014 	sw	v0,20(s8)
a0801e64:	3c02a081 	lui	v0,0xa081
a0801e68:	24445938 	addiu	a0,v0,22840
a0801e6c:	8fc50014 	lw	a1,20(s8)
a0801e70:	0c203fd5 	jal	a080ff54 <printk>
a0801e74:	00000000 	nop
a0801e78:	3c02bfe1 	lui	v0,0xbfe1
a0801e7c:	34441000 	ori	a0,v0,0x1000
a0801e80:	24050020 	li	a1,32
a0801e84:	0c200703 	jal	a0801c0c <read_register>
a0801e88:	00000000 	nop
a0801e8c:	afc20014 	sw	v0,20(s8)
a0801e90:	3c02a081 	lui	v0,0xa081
a0801e94:	24445954 	addiu	a0,v0,22868
a0801e98:	8fc50014 	lw	a1,20(s8)
a0801e9c:	0c203fd5 	jal	a080ff54 <printk>
a0801ea0:	00000000 	nop
a0801ea4:	3c02bfe1 	lui	v0,0xbfe1
a0801ea8:	34441000 	ori	a0,v0,0x1000
a0801eac:	24050048 	li	a1,72
a0801eb0:	0c200703 	jal	a0801c0c <read_register>
a0801eb4:	00000000 	nop
a0801eb8:	afc20014 	sw	v0,20(s8)
a0801ebc:	3c02bfe1 	lui	v0,0xbfe1
a0801ec0:	34441000 	ori	a0,v0,0x1000
a0801ec4:	2405004c 	li	a1,76
a0801ec8:	0c200703 	jal	a0801c0c <read_register>
a0801ecc:	00000000 	nop
a0801ed0:	afc20010 	sw	v0,16(s8)
a0801ed4:	3c02a081 	lui	v0,0xa081
a0801ed8:	2444596c 	addiu	a0,v0,22892
a0801edc:	8fc50014 	lw	a1,20(s8)
a0801ee0:	8fc60010 	lw	a2,16(s8)
a0801ee4:	0c203fd5 	jal	a080ff54 <printk>
a0801ee8:	00000000 	nop
a0801eec:	3c02bfe1 	lui	v0,0xbfe1
a0801ef0:	34441000 	ori	a0,v0,0x1000
a0801ef4:	24050050 	li	a1,80
a0801ef8:	0c200703 	jal	a0801c0c <read_register>
a0801efc:	00000000 	nop
a0801f00:	afc20014 	sw	v0,20(s8)
a0801f04:	3c02bfe1 	lui	v0,0xbfe1
a0801f08:	34441000 	ori	a0,v0,0x1000
a0801f0c:	24050054 	li	a1,84
a0801f10:	0c200703 	jal	a0801c0c <read_register>
a0801f14:	00000000 	nop
a0801f18:	afc20010 	sw	v0,16(s8)
a0801f1c:	3c02a081 	lui	v0,0xa081
a0801f20:	244459a4 	addiu	a0,v0,22948
a0801f24:	8fc50014 	lw	a1,20(s8)
a0801f28:	8fc60010 	lw	a2,16(s8)
a0801f2c:	0c203fd5 	jal	a080ff54 <printk>
a0801f30:	00000000 	nop
a0801f34:	03c0e821 	move	sp,s8
a0801f38:	8fbf001c 	lw	ra,28(sp)
a0801f3c:	8fbe0018 	lw	s8,24(sp)
a0801f40:	27bd0020 	addiu	sp,sp,32
a0801f44:	03e00008 	jr	ra
a0801f48:	00000000 	nop

a0801f4c <print_mac_regs>:
a0801f4c:	27bdffc8 	addiu	sp,sp,-56
a0801f50:	afbf0034 	sw	ra,52(sp)
a0801f54:	afbe0030 	sw	s8,48(sp)
a0801f58:	03a0f021 	move	s8,sp
a0801f5c:	3c02a081 	lui	v0,0xa081
a0801f60:	244459e0 	addiu	a0,v0,23008
a0801f64:	0c203fd5 	jal	a080ff54 <printk>
a0801f68:	00000000 	nop
a0801f6c:	3c04bfe1 	lui	a0,0xbfe1
a0801f70:	00002821 	move	a1,zero
a0801f74:	0c200703 	jal	a0801c0c <read_register>
a0801f78:	00000000 	nop
a0801f7c:	afc20024 	sw	v0,36(s8)
a0801f80:	3c02a081 	lui	v0,0xa081
a0801f84:	244459f4 	addiu	a0,v0,23028
a0801f88:	8fc50024 	lw	a1,36(s8)
a0801f8c:	0c203fd5 	jal	a080ff54 <printk>
a0801f90:	00000000 	nop
a0801f94:	3c04bfe1 	lui	a0,0xbfe1
a0801f98:	24050004 	li	a1,4
a0801f9c:	0c200703 	jal	a0801c0c <read_register>
a0801fa0:	00000000 	nop
a0801fa4:	afc20024 	sw	v0,36(s8)
a0801fa8:	3c02a081 	lui	v0,0xa081
a0801fac:	24445a10 	addiu	a0,v0,23056
a0801fb0:	8fc50024 	lw	a1,36(s8)
a0801fb4:	0c203fd5 	jal	a080ff54 <printk>
a0801fb8:	00000000 	nop
a0801fbc:	3c04bfe1 	lui	a0,0xbfe1
a0801fc0:	24050008 	li	a1,8
a0801fc4:	0c200703 	jal	a0801c0c <read_register>
a0801fc8:	00000000 	nop
a0801fcc:	afc20024 	sw	v0,36(s8)
a0801fd0:	3c04bfe1 	lui	a0,0xbfe1
a0801fd4:	2405000c 	li	a1,12
a0801fd8:	0c200703 	jal	a0801c0c <read_register>
a0801fdc:	00000000 	nop
a0801fe0:	afc20020 	sw	v0,32(s8)
a0801fe4:	3c02a081 	lui	v0,0xa081
a0801fe8:	24445a2c 	addiu	a0,v0,23084
a0801fec:	8fc50024 	lw	a1,36(s8)
a0801ff0:	8fc60020 	lw	a2,32(s8)
a0801ff4:	0c203fd5 	jal	a080ff54 <printk>
a0801ff8:	00000000 	nop
a0801ffc:	3c04bfe1 	lui	a0,0xbfe1
a0802000:	24050018 	li	a1,24
a0802004:	0c200703 	jal	a0801c0c <read_register>
a0802008:	00000000 	nop
a080200c:	afc20024 	sw	v0,36(s8)
a0802010:	3c02a081 	lui	v0,0xa081
a0802014:	24445a58 	addiu	a0,v0,23128
a0802018:	8fc50024 	lw	a1,36(s8)
a080201c:	0c203fd5 	jal	a080ff54 <printk>
a0802020:	00000000 	nop
a0802024:	3c04bfe1 	lui	a0,0xbfe1
a0802028:	24050020 	li	a1,32
a080202c:	0c200703 	jal	a0801c0c <read_register>
a0802030:	00000000 	nop
a0802034:	afc20024 	sw	v0,36(s8)
a0802038:	3c02a081 	lui	v0,0xa081
a080203c:	24445a74 	addiu	a0,v0,23156
a0802040:	8fc50024 	lw	a1,36(s8)
a0802044:	0c203fd5 	jal	a080ff54 <printk>
a0802048:	00000000 	nop
a080204c:	3c04bfe1 	lui	a0,0xbfe1
a0802050:	24050038 	li	a1,56
a0802054:	0c200703 	jal	a0801c0c <read_register>
a0802058:	00000000 	nop
a080205c:	afc20024 	sw	v0,36(s8)
a0802060:	3c04bfe1 	lui	a0,0xbfe1
a0802064:	2405003c 	li	a1,60
a0802068:	0c200703 	jal	a0801c0c <read_register>
a080206c:	00000000 	nop
a0802070:	afc20020 	sw	v0,32(s8)
a0802074:	3c02a081 	lui	v0,0xa081
a0802078:	24445a8c 	addiu	a0,v0,23180
a080207c:	8fc50024 	lw	a1,36(s8)
a0802080:	8fc60020 	lw	a2,32(s8)
a0802084:	0c203fd5 	jal	a080ff54 <printk>
a0802088:	00000000 	nop
a080208c:	27c20028 	addiu	v0,s8,40
a0802090:	00402021 	move	a0,v0
a0802094:	0c200722 	jal	a0801c88 <gmac_get_mac_addr>
a0802098:	00000000 	nop
a080209c:	93c20028 	lbu	v0,40(s8)
a08020a0:	00402821 	move	a1,v0
a08020a4:	93c20029 	lbu	v0,41(s8)
a08020a8:	00403021 	move	a2,v0
a08020ac:	93c2002a 	lbu	v0,42(s8)
a08020b0:	00403821 	move	a3,v0
a08020b4:	93c2002b 	lbu	v0,43(s8)
a08020b8:	00401821 	move	v1,v0
a08020bc:	93c2002c 	lbu	v0,44(s8)
a08020c0:	00402021 	move	a0,v0
a08020c4:	93c2002d 	lbu	v0,45(s8)
a08020c8:	afa30010 	sw	v1,16(sp)
a08020cc:	afa40014 	sw	a0,20(sp)
a08020d0:	afa20018 	sw	v0,24(sp)
a08020d4:	3c02a081 	lui	v0,0xa081
a08020d8:	24445abc 	addiu	a0,v0,23228
a08020dc:	0c203fd5 	jal	a080ff54 <printk>
a08020e0:	00000000 	nop
a08020e4:	03c0e821 	move	sp,s8
a08020e8:	8fbf0034 	lw	ra,52(sp)
a08020ec:	8fbe0030 	lw	s8,48(sp)
a08020f0:	27bd0038 	addiu	sp,sp,56
a08020f4:	03e00008 	jr	ra
a08020f8:	00000000 	nop

a08020fc <printf_dma_regs>:
a08020fc:	27bdffe0 	addiu	sp,sp,-32
a0802100:	afbf001c 	sw	ra,28(sp)
a0802104:	afbe0018 	sw	s8,24(sp)
a0802108:	03a0f021 	move	s8,sp
a080210c:	3c02a081 	lui	v0,0xa081
a0802110:	244458c0 	addiu	a0,v0,22720
a0802114:	0c203ff7 	jal	a080ffdc <printf>
a0802118:	00000000 	nop
a080211c:	3c02bfe1 	lui	v0,0xbfe1
a0802120:	34441000 	ori	a0,v0,0x1000
a0802124:	00002821 	move	a1,zero
a0802128:	0c200703 	jal	a0801c0c <read_register>
a080212c:	00000000 	nop
a0802130:	afc20014 	sw	v0,20(s8)
a0802134:	3c02a081 	lui	v0,0xa081
a0802138:	244458d4 	addiu	a0,v0,22740
a080213c:	8fc50014 	lw	a1,20(s8)
a0802140:	0c203ff7 	jal	a080ffdc <printf>
a0802144:	00000000 	nop
a0802148:	3c02bfe1 	lui	v0,0xbfe1
a080214c:	34441000 	ori	a0,v0,0x1000
a0802150:	2405000c 	li	a1,12
a0802154:	0c200703 	jal	a0801c0c <read_register>
a0802158:	00000000 	nop
a080215c:	afc20014 	sw	v0,20(s8)
a0802160:	3c02bfe1 	lui	v0,0xbfe1
a0802164:	34441000 	ori	a0,v0,0x1000
a0802168:	24050010 	li	a1,16
a080216c:	0c200703 	jal	a0801c0c <read_register>
a0802170:	00000000 	nop
a0802174:	afc20010 	sw	v0,16(s8)
a0802178:	3c02a081 	lui	v0,0xa081
a080217c:	24445ae4 	addiu	a0,v0,23268
a0802180:	8fc50014 	lw	a1,20(s8)
a0802184:	8fc60010 	lw	a2,16(s8)
a0802188:	0c203ff7 	jal	a080ffdc <printf>
a080218c:	00000000 	nop
a0802190:	3c02bfe1 	lui	v0,0xbfe1
a0802194:	34441000 	ori	a0,v0,0x1000
a0802198:	24050014 	li	a1,20
a080219c:	0c200703 	jal	a0801c0c <read_register>
a08021a0:	00000000 	nop
a08021a4:	afc20014 	sw	v0,20(s8)
a08021a8:	3c02a081 	lui	v0,0xa081
a08021ac:	24445908 	addiu	a0,v0,22792
a08021b0:	8fc50014 	lw	a1,20(s8)
a08021b4:	0c203ff7 	jal	a080ffdc <printf>
a08021b8:	00000000 	nop
a08021bc:	3c02bfe1 	lui	v0,0xbfe1
a08021c0:	34441000 	ori	a0,v0,0x1000
a08021c4:	24050018 	li	a1,24
a08021c8:	0c200703 	jal	a0801c0c <read_register>
a08021cc:	00000000 	nop
a08021d0:	afc20014 	sw	v0,20(s8)
a08021d4:	3c02a081 	lui	v0,0xa081
a08021d8:	24445920 	addiu	a0,v0,22816
a08021dc:	8fc50014 	lw	a1,20(s8)
a08021e0:	0c203ff7 	jal	a080ffdc <printf>
a08021e4:	00000000 	nop
a08021e8:	3c02bfe1 	lui	v0,0xbfe1
a08021ec:	34441000 	ori	a0,v0,0x1000
a08021f0:	2405001c 	li	a1,28
a08021f4:	0c200703 	jal	a0801c0c <read_register>
a08021f8:	00000000 	nop
a08021fc:	afc20014 	sw	v0,20(s8)
a0802200:	3c02a081 	lui	v0,0xa081
a0802204:	24445938 	addiu	a0,v0,22840
a0802208:	8fc50014 	lw	a1,20(s8)
a080220c:	0c203ff7 	jal	a080ffdc <printf>
a0802210:	00000000 	nop
a0802214:	3c02bfe1 	lui	v0,0xbfe1
a0802218:	34441000 	ori	a0,v0,0x1000
a080221c:	24050020 	li	a1,32
a0802220:	0c200703 	jal	a0801c0c <read_register>
a0802224:	00000000 	nop
a0802228:	afc20014 	sw	v0,20(s8)
a080222c:	3c02a081 	lui	v0,0xa081
a0802230:	24445954 	addiu	a0,v0,22868
a0802234:	8fc50014 	lw	a1,20(s8)
a0802238:	0c203ff7 	jal	a080ffdc <printf>
a080223c:	00000000 	nop
a0802240:	3c02bfe1 	lui	v0,0xbfe1
a0802244:	34441000 	ori	a0,v0,0x1000
a0802248:	24050048 	li	a1,72
a080224c:	0c200703 	jal	a0801c0c <read_register>
a0802250:	00000000 	nop
a0802254:	afc20014 	sw	v0,20(s8)
a0802258:	3c02bfe1 	lui	v0,0xbfe1
a080225c:	34441000 	ori	a0,v0,0x1000
a0802260:	2405004c 	li	a1,76
a0802264:	0c200703 	jal	a0801c0c <read_register>
a0802268:	00000000 	nop
a080226c:	afc20010 	sw	v0,16(s8)
a0802270:	3c02a081 	lui	v0,0xa081
a0802274:	2444596c 	addiu	a0,v0,22892
a0802278:	8fc50014 	lw	a1,20(s8)
a080227c:	8fc60010 	lw	a2,16(s8)
a0802280:	0c203ff7 	jal	a080ffdc <printf>
a0802284:	00000000 	nop
a0802288:	3c02bfe1 	lui	v0,0xbfe1
a080228c:	34441000 	ori	a0,v0,0x1000
a0802290:	24050050 	li	a1,80
a0802294:	0c200703 	jal	a0801c0c <read_register>
a0802298:	00000000 	nop
a080229c:	afc20014 	sw	v0,20(s8)
a08022a0:	3c02bfe1 	lui	v0,0xbfe1
a08022a4:	34441000 	ori	a0,v0,0x1000
a08022a8:	24050054 	li	a1,84
a08022ac:	0c200703 	jal	a0801c0c <read_register>
a08022b0:	00000000 	nop
a08022b4:	afc20010 	sw	v0,16(s8)
a08022b8:	3c02a081 	lui	v0,0xa081
a08022bc:	244459a4 	addiu	a0,v0,22948
a08022c0:	8fc50014 	lw	a1,20(s8)
a08022c4:	8fc60010 	lw	a2,16(s8)
a08022c8:	0c203fd5 	jal	a080ff54 <printk>
a08022cc:	00000000 	nop
a08022d0:	03c0e821 	move	sp,s8
a08022d4:	8fbf001c 	lw	ra,28(sp)
a08022d8:	8fbe0018 	lw	s8,24(sp)
a08022dc:	27bd0020 	addiu	sp,sp,32
a08022e0:	03e00008 	jr	ra
a08022e4:	00000000 	nop

a08022e8 <printf_mac_regs>:
a08022e8:	27bdffc8 	addiu	sp,sp,-56
a08022ec:	afbf0034 	sw	ra,52(sp)
a08022f0:	afbe0030 	sw	s8,48(sp)
a08022f4:	03a0f021 	move	s8,sp
a08022f8:	3c02a081 	lui	v0,0xa081
a08022fc:	244459e0 	addiu	a0,v0,23008
a0802300:	0c203ff7 	jal	a080ffdc <printf>
a0802304:	00000000 	nop
a0802308:	3c04bfe1 	lui	a0,0xbfe1
a080230c:	00002821 	move	a1,zero
a0802310:	0c200703 	jal	a0801c0c <read_register>
a0802314:	00000000 	nop
a0802318:	afc20024 	sw	v0,36(s8)
a080231c:	3c02a081 	lui	v0,0xa081
a0802320:	244459f4 	addiu	a0,v0,23028
a0802324:	8fc50024 	lw	a1,36(s8)
a0802328:	0c203ff7 	jal	a080ffdc <printf>
a080232c:	00000000 	nop
a0802330:	3c04bfe1 	lui	a0,0xbfe1
a0802334:	24050004 	li	a1,4
a0802338:	0c200703 	jal	a0801c0c <read_register>
a080233c:	00000000 	nop
a0802340:	afc20024 	sw	v0,36(s8)
a0802344:	3c02a081 	lui	v0,0xa081
a0802348:	24445a10 	addiu	a0,v0,23056
a080234c:	8fc50024 	lw	a1,36(s8)
a0802350:	0c203ff7 	jal	a080ffdc <printf>
a0802354:	00000000 	nop
a0802358:	3c04bfe1 	lui	a0,0xbfe1
a080235c:	24050008 	li	a1,8
a0802360:	0c200703 	jal	a0801c0c <read_register>
a0802364:	00000000 	nop
a0802368:	afc20024 	sw	v0,36(s8)
a080236c:	3c04bfe1 	lui	a0,0xbfe1
a0802370:	2405000c 	li	a1,12
a0802374:	0c200703 	jal	a0801c0c <read_register>
a0802378:	00000000 	nop
a080237c:	afc20020 	sw	v0,32(s8)
a0802380:	3c02a081 	lui	v0,0xa081
a0802384:	24445a2c 	addiu	a0,v0,23084
a0802388:	8fc50024 	lw	a1,36(s8)
a080238c:	8fc60020 	lw	a2,32(s8)
a0802390:	0c203ff7 	jal	a080ffdc <printf>
a0802394:	00000000 	nop
a0802398:	3c04bfe1 	lui	a0,0xbfe1
a080239c:	24050018 	li	a1,24
a08023a0:	0c200703 	jal	a0801c0c <read_register>
a08023a4:	00000000 	nop
a08023a8:	afc20024 	sw	v0,36(s8)
a08023ac:	3c02a081 	lui	v0,0xa081
a08023b0:	24445a58 	addiu	a0,v0,23128
a08023b4:	8fc50024 	lw	a1,36(s8)
a08023b8:	0c203ff7 	jal	a080ffdc <printf>
a08023bc:	00000000 	nop
a08023c0:	3c04bfe1 	lui	a0,0xbfe1
a08023c4:	24050020 	li	a1,32
a08023c8:	0c200703 	jal	a0801c0c <read_register>
a08023cc:	00000000 	nop
a08023d0:	afc20024 	sw	v0,36(s8)
a08023d4:	3c02a081 	lui	v0,0xa081
a08023d8:	24445a74 	addiu	a0,v0,23156
a08023dc:	8fc50024 	lw	a1,36(s8)
a08023e0:	0c203ff7 	jal	a080ffdc <printf>
a08023e4:	00000000 	nop
a08023e8:	3c04bfe1 	lui	a0,0xbfe1
a08023ec:	24050038 	li	a1,56
a08023f0:	0c200703 	jal	a0801c0c <read_register>
a08023f4:	00000000 	nop
a08023f8:	afc20024 	sw	v0,36(s8)
a08023fc:	3c04bfe1 	lui	a0,0xbfe1
a0802400:	2405003c 	li	a1,60
a0802404:	0c200703 	jal	a0801c0c <read_register>
a0802408:	00000000 	nop
a080240c:	afc20020 	sw	v0,32(s8)
a0802410:	3c02a081 	lui	v0,0xa081
a0802414:	24445a8c 	addiu	a0,v0,23180
a0802418:	8fc50024 	lw	a1,36(s8)
a080241c:	8fc60020 	lw	a2,32(s8)
a0802420:	0c203ff7 	jal	a080ffdc <printf>
a0802424:	00000000 	nop
a0802428:	27c20028 	addiu	v0,s8,40
a080242c:	00402021 	move	a0,v0
a0802430:	0c200722 	jal	a0801c88 <gmac_get_mac_addr>
a0802434:	00000000 	nop
a0802438:	93c20028 	lbu	v0,40(s8)
a080243c:	00402821 	move	a1,v0
a0802440:	93c20029 	lbu	v0,41(s8)
a0802444:	00403021 	move	a2,v0
a0802448:	93c2002a 	lbu	v0,42(s8)
a080244c:	00403821 	move	a3,v0
a0802450:	93c2002b 	lbu	v0,43(s8)
a0802454:	00401821 	move	v1,v0
a0802458:	93c2002c 	lbu	v0,44(s8)
a080245c:	00402021 	move	a0,v0
a0802460:	93c2002d 	lbu	v0,45(s8)
a0802464:	afa30010 	sw	v1,16(sp)
a0802468:	afa40014 	sw	a0,20(sp)
a080246c:	afa20018 	sw	v0,24(sp)
a0802470:	3c02a081 	lui	v0,0xa081
a0802474:	24445abc 	addiu	a0,v0,23228
a0802478:	0c203ff7 	jal	a080ffdc <printf>
a080247c:	00000000 	nop
a0802480:	03c0e821 	move	sp,s8
a0802484:	8fbf0034 	lw	ra,52(sp)
a0802488:	8fbe0030 	lw	s8,48(sp)
a080248c:	27bd0038 	addiu	sp,sp,56
a0802490:	03e00008 	jr	ra
a0802494:	00000000 	nop

a0802498 <print_tx_dscrb>:
a0802498:	27bdffe0 	addiu	sp,sp,-32
a080249c:	afbf001c 	sw	ra,28(sp)
a08024a0:	afbe0018 	sw	s8,24(sp)
a08024a4:	03a0f021 	move	s8,sp
a08024a8:	afc40020 	sw	a0,32(s8)
a08024ac:	8fc20020 	lw	v0,32(s8)
a08024b0:	8c430010 	lw	v1,16(v0)
a08024b4:	3c02a081 	lui	v0,0xa081
a08024b8:	24445b00 	addiu	a0,v0,23296
a08024bc:	00602821 	move	a1,v1
a08024c0:	0c203ff7 	jal	a080ffdc <printf>
a08024c4:	00000000 	nop
a08024c8:	8fc20020 	lw	v0,32(s8)
a08024cc:	8c430018 	lw	v1,24(v0)
a08024d0:	3c02a081 	lui	v0,0xa081
a08024d4:	24445b20 	addiu	a0,v0,23328
a08024d8:	00602821 	move	a1,v1
a08024dc:	0c203ff7 	jal	a080ffdc <printf>
a08024e0:	00000000 	nop
a08024e4:	8fc20020 	lw	v0,32(s8)
a08024e8:	8c430028 	lw	v1,40(v0)
a08024ec:	3c02a081 	lui	v0,0xa081
a08024f0:	24445b38 	addiu	a0,v0,23352
a08024f4:	00602821 	move	a1,v1
a08024f8:	0c203ff7 	jal	a080ffdc <printf>
a08024fc:	00000000 	nop
a0802500:	03c0e821 	move	sp,s8
a0802504:	8fbf001c 	lw	ra,28(sp)
a0802508:	8fbe0018 	lw	s8,24(sp)
a080250c:	27bd0020 	addiu	sp,sp,32
a0802510:	03e00008 	jr	ra
a0802514:	00000000 	nop

a0802518 <print_rx_dscrb>:
a0802518:	27bdffe0 	addiu	sp,sp,-32
a080251c:	afbf001c 	sw	ra,28(sp)
a0802520:	afbe0018 	sw	s8,24(sp)
a0802524:	03a0f021 	move	s8,sp
a0802528:	afc40020 	sw	a0,32(s8)
a080252c:	8fc20020 	lw	v0,32(s8)
a0802530:	8c430014 	lw	v1,20(v0)
a0802534:	3c02a081 	lui	v0,0xa081
a0802538:	24445b58 	addiu	a0,v0,23384
a080253c:	00602821 	move	a1,v1
a0802540:	0c203ff7 	jal	a080ffdc <printf>
a0802544:	00000000 	nop
a0802548:	8fc20020 	lw	v0,32(s8)
a080254c:	8c43001c 	lw	v1,28(v0)
a0802550:	3c02a081 	lui	v0,0xa081
a0802554:	24445b7c 	addiu	a0,v0,23420
a0802558:	00602821 	move	a1,v1
a080255c:	0c203ff7 	jal	a080ffdc <printf>
a0802560:	00000000 	nop
a0802564:	8fc20020 	lw	v0,32(s8)
a0802568:	8c43002c 	lw	v1,44(v0)
a080256c:	3c02a081 	lui	v0,0xa081
a0802570:	24445b94 	addiu	a0,v0,23444
a0802574:	00602821 	move	a1,v1
a0802578:	0c203ff7 	jal	a080ffdc <printf>
a080257c:	00000000 	nop
a0802580:	8fc20020 	lw	v0,32(s8)
a0802584:	8c420024 	lw	v0,36(v0)
a0802588:	afc20010 	sw	v0,16(s8)
a080258c:	03c0e821 	move	sp,s8
a0802590:	8fbf001c 	lw	ra,28(sp)
a0802594:	8fbe0018 	lw	s8,24(sp)
a0802598:	27bd0020 	addiu	sp,sp,32
a080259c:	03e00008 	jr	ra
a08025a0:	00000000 	nop

a08025a4 <irq_mac>:
a08025a4:	27bdffe8 	addiu	sp,sp,-24
a08025a8:	afbf0014 	sw	ra,20(sp)
a08025ac:	afbe0010 	sw	s8,16(sp)
a08025b0:	03a0f021 	move	s8,sp
a08025b4:	0c2051a8 	jal	a08146a0 <clear_interrupt>
a08025b8:	00000000 	nop
a08025bc:	3c02a081 	lui	v0,0xa081
a08025c0:	24447ad0 	addiu	a0,v0,31440
a08025c4:	0c201bd3 	jal	a0806f4c <do_unblock_one>
a08025c8:	00000000 	nop
a08025cc:	03c0e821 	move	sp,s8
a08025d0:	8fbf0014 	lw	ra,20(sp)
a08025d4:	8fbe0010 	lw	s8,16(sp)
a08025d8:	27bd0018 	addiu	sp,sp,24
a08025dc:	03e00008 	jr	ra
a08025e0:	00000000 	nop

a08025e4 <irq_enable>:
a08025e4:	27bdfff8 	addiu	sp,sp,-8
a08025e8:	afbe0004 	sw	s8,4(sp)
a08025ec:	03a0f021 	move	s8,sp
a08025f0:	afc40008 	sw	a0,8(s8)
a08025f4:	03c0e821 	move	sp,s8
a08025f8:	8fbe0004 	lw	s8,4(sp)
a08025fc:	27bd0008 	addiu	sp,sp,8
a0802600:	03e00008 	jr	ra
a0802604:	00000000 	nop

a0802608 <check_recv>:
a0802608:	27bdfff0 	addiu	sp,sp,-16
a080260c:	afbe000c 	sw	s8,12(sp)
a0802610:	03a0f021 	move	s8,sp
a0802614:	afc40010 	sw	a0,16(s8)
a0802618:	afc00000 	sw	zero,0(s8)
a080261c:	08200994 	j	a0802650 <check_recv+0x48>
a0802620:	00000000 	nop
a0802624:	3c02a081 	lui	v0,0xa081
a0802628:	8c437aac 	lw	v1,31404(v0)
a080262c:	8fc20000 	lw	v0,0(s8)
a0802630:	00021100 	sll	v0,v0,0x4
a0802634:	00621021 	addu	v0,v1,v0
a0802638:	8c420000 	lw	v0,0(v0)
a080263c:	04400008 	bltz	v0,a0802660 <check_recv+0x58>
a0802640:	00000000 	nop
a0802644:	8fc20000 	lw	v0,0(s8)
a0802648:	24420001 	addiu	v0,v0,1
a080264c:	afc20000 	sw	v0,0(s8)
a0802650:	8fc20000 	lw	v0,0(s8)
a0802654:	2842003f 	slti	v0,v0,63
a0802658:	1440fff2 	bnez	v0,a0802624 <check_recv+0x1c>
a080265c:	00000000 	nop
a0802660:	03c0e821 	move	sp,s8
a0802664:	8fbe000c 	lw	s8,12(sp)
a0802668:	27bd0010 	addiu	sp,sp,16
a080266c:	03e00008 	jr	ra
a0802670:	00000000 	nop

a0802674 <set_sram_ctr>:
a0802674:	27bdfff8 	addiu	sp,sp,-8
a0802678:	afbe0004 	sw	s8,4(sp)
a080267c:	03a0f021 	move	s8,sp
a0802680:	3c02bfd0 	lui	v0,0xbfd0
a0802684:	34430420 	ori	v1,v0,0x420
a0802688:	34028000 	li	v0,0x8000
a080268c:	ac620000 	sw	v0,0(v1)
a0802690:	03c0e821 	move	sp,s8
a0802694:	8fbe0004 	lw	s8,4(sp)
a0802698:	27bd0008 	addiu	sp,sp,8
a080269c:	03e00008 	jr	ra
a08026a0:	00000000 	nop

a08026a4 <s_reset>:
a08026a4:	27bdffe0 	addiu	sp,sp,-32
a08026a8:	afbf001c 	sw	ra,28(sp)
a08026ac:	afbe0018 	sw	s8,24(sp)
a08026b0:	03a0f021 	move	s8,sp
a08026b4:	afc40020 	sw	a0,32(s8)
a08026b8:	3c02000f 	lui	v0,0xf
a08026bc:	34424240 	ori	v0,v0,0x4240
a08026c0:	afc20010 	sw	v0,16(s8)
a08026c4:	8fc20020 	lw	v0,32(s8)
a08026c8:	8c42000c 	lw	v0,12(v0)
a08026cc:	00402021 	move	a0,v0
a08026d0:	24050001 	li	a1,1
a08026d4:	0c200715 	jal	a0801c54 <reg_write_32>
a08026d8:	00000000 	nop
a08026dc:	082009c7 	j	a080271c <s_reset+0x78>
a08026e0:	00000000 	nop
a08026e4:	8fc20020 	lw	v0,32(s8)
a08026e8:	8c42000c 	lw	v0,12(v0)
a08026ec:	00402021 	move	a0,v0
a08026f0:	24050001 	li	a1,1
a08026f4:	0c200715 	jal	a0801c54 <reg_write_32>
a08026f8:	00000000 	nop
a08026fc:	082009c4 	j	a0802710 <s_reset+0x6c>
a0802700:	00000000 	nop
a0802704:	8fc20010 	lw	v0,16(s8)
a0802708:	2442ffff 	addiu	v0,v0,-1
a080270c:	afc20010 	sw	v0,16(s8)
a0802710:	8fc20010 	lw	v0,16(s8)
a0802714:	1440fffb 	bnez	v0,a0802704 <s_reset+0x60>
a0802718:	00000000 	nop
a080271c:	8fc20020 	lw	v0,32(s8)
a0802720:	8c42000c 	lw	v0,12(v0)
a0802724:	00402021 	move	a0,v0
a0802728:	0c2006f8 	jal	a0801be0 <reg_read_32>
a080272c:	00000000 	nop
a0802730:	30420001 	andi	v0,v0,0x1
a0802734:	304200ff 	andi	v0,v0,0xff
a0802738:	1440ffea 	bnez	v0,a08026e4 <s_reset+0x40>
a080273c:	00000000 	nop
a0802740:	03c0e821 	move	sp,s8
a0802744:	8fbf001c 	lw	ra,28(sp)
a0802748:	8fbe0018 	lw	s8,24(sp)
a080274c:	27bd0020 	addiu	sp,sp,32
a0802750:	03e00008 	jr	ra
a0802754:	00000000 	nop

a0802758 <disable_interrupt_all>:
a0802758:	27bdffe8 	addiu	sp,sp,-24
a080275c:	afbf0014 	sw	ra,20(sp)
a0802760:	afbe0010 	sw	s8,16(sp)
a0802764:	03a0f021 	move	s8,sp
a0802768:	afc40018 	sw	a0,24(s8)
a080276c:	8fc20018 	lw	v0,24(s8)
a0802770:	8c42000c 	lw	v0,12(v0)
a0802774:	2442001c 	addiu	v0,v0,28
a0802778:	00402021 	move	a0,v0
a080277c:	00002821 	move	a1,zero
a0802780:	0c200715 	jal	a0801c54 <reg_write_32>
a0802784:	00000000 	nop
a0802788:	03c0e821 	move	sp,s8
a080278c:	8fbf0014 	lw	ra,20(sp)
a0802790:	8fbe0010 	lw	s8,16(sp)
a0802794:	27bd0018 	addiu	sp,sp,24
a0802798:	03e00008 	jr	ra
a080279c:	00000000 	nop

a08027a0 <set_mac_addr>:
a08027a0:	27bdffd0 	addiu	sp,sp,-48
a08027a4:	afbf002c 	sw	ra,44(sp)
a08027a8:	afbe0028 	sw	s8,40(sp)
a08027ac:	03a0f021 	move	s8,sp
a08027b0:	afc40030 	sw	a0,48(s8)
a08027b4:	3c03a081 	lui	v1,0xa081
a08027b8:	8c625bbc 	lw	v0,23484(v1)
a08027bc:	afc2001c 	sw	v0,28(s8)
a08027c0:	24625bbc 	addiu	v0,v1,23484
a08027c4:	94420004 	lhu	v0,4(v0)
a08027c8:	a7c20020 	sh	v0,32(s8)
a08027cc:	24020040 	li	v0,64
a08027d0:	afc20014 	sw	v0,20(s8)
a08027d4:	24020044 	li	v0,68
a08027d8:	afc20010 	sw	v0,16(s8)
a08027dc:	93c20021 	lbu	v0,33(s8)
a08027e0:	00021a00 	sll	v1,v0,0x8
a08027e4:	93c20020 	lbu	v0,32(s8)
a08027e8:	00621025 	or	v0,v1,v0
a08027ec:	afc20018 	sw	v0,24(s8)
a08027f0:	8fc20030 	lw	v0,48(s8)
a08027f4:	8c430008 	lw	v1,8(v0)
a08027f8:	8fc20014 	lw	v0,20(s8)
a08027fc:	00621021 	addu	v0,v1,v0
a0802800:	00402021 	move	a0,v0
a0802804:	8fc50018 	lw	a1,24(s8)
a0802808:	0c200715 	jal	a0801c54 <reg_write_32>
a080280c:	00000000 	nop
a0802810:	93c2001f 	lbu	v0,31(s8)
a0802814:	00021e00 	sll	v1,v0,0x18
a0802818:	93c2001e 	lbu	v0,30(s8)
a080281c:	00021400 	sll	v0,v0,0x10
a0802820:	00621825 	or	v1,v1,v0
a0802824:	93c2001d 	lbu	v0,29(s8)
a0802828:	00021200 	sll	v0,v0,0x8
a080282c:	00621825 	or	v1,v1,v0
a0802830:	93c2001c 	lbu	v0,28(s8)
a0802834:	00621025 	or	v0,v1,v0
a0802838:	afc20018 	sw	v0,24(s8)
a080283c:	8fc20030 	lw	v0,48(s8)
a0802840:	8c430008 	lw	v1,8(v0)
a0802844:	8fc20010 	lw	v0,16(s8)
a0802848:	00621021 	addu	v0,v1,v0
a080284c:	00402021 	move	a0,v0
a0802850:	8fc50018 	lw	a1,24(s8)
a0802854:	0c200715 	jal	a0801c54 <reg_write_32>
a0802858:	00000000 	nop
a080285c:	03c0e821 	move	sp,s8
a0802860:	8fbf002c 	lw	ra,44(sp)
a0802864:	8fbe0028 	lw	s8,40(sp)
a0802868:	27bd0030 	addiu	sp,sp,48
a080286c:	03e00008 	jr	ra
a0802870:	00000000 	nop

a0802874 <do_net_recv>:
a0802874:	27bdffe0 	addiu	sp,sp,-32
a0802878:	afbf001c 	sw	ra,28(sp)
a080287c:	afbe0018 	sw	s8,24(sp)
a0802880:	03a0f021 	move	s8,sp
a0802884:	afc40020 	sw	a0,32(s8)
a0802888:	afc50024 	sw	a1,36(s8)
a080288c:	afc60028 	sw	a2,40(s8)
a0802890:	3c02a081 	lui	v0,0xa081
a0802894:	8c427aac 	lw	v0,31404(v0)
a0802898:	00401821 	move	v1,v0
a080289c:	3c02bfe1 	lui	v0,0xbfe1
a08028a0:	3444100c 	ori	a0,v0,0x100c
a08028a4:	00602821 	move	a1,v1
a08028a8:	0c200715 	jal	a0801c54 <reg_write_32>
a08028ac:	00000000 	nop
a08028b0:	3c04bfe1 	lui	a0,0xbfe1
a08028b4:	0c2006f8 	jal	a0801be0 <reg_read_32>
a08028b8:	00000000 	nop
a08028bc:	34420004 	ori	v0,v0,0x4
a08028c0:	3c04bfe1 	lui	a0,0xbfe1
a08028c4:	00402821 	move	a1,v0
a08028c8:	0c200715 	jal	a0801c54 <reg_write_32>
a08028cc:	00000000 	nop
a08028d0:	3c02bfe1 	lui	v0,0xbfe1
a08028d4:	34441018 	ori	a0,v0,0x1018
a08028d8:	0c2006f8 	jal	a0801be0 <reg_read_32>
a08028dc:	00000000 	nop
a08028e0:	00401821 	move	v1,v0
a08028e4:	3c020220 	lui	v0,0x220
a08028e8:	34420002 	ori	v0,v0,0x2
a08028ec:	00621825 	or	v1,v1,v0
a08028f0:	3c02bfe1 	lui	v0,0xbfe1
a08028f4:	34441018 	ori	a0,v0,0x1018
a08028f8:	00602821 	move	a1,v1
a08028fc:	0c200715 	jal	a0801c54 <reg_write_32>
a0802900:	00000000 	nop
a0802904:	3c02bfe1 	lui	v0,0xbfe1
a0802908:	3444101c 	ori	a0,v0,0x101c
a080290c:	3c020001 	lui	v0,0x1
a0802910:	34450041 	ori	a1,v0,0x41
a0802914:	0c200715 	jal	a0801c54 <reg_write_32>
a0802918:	00000000 	nop
a080291c:	afc00010 	sw	zero,16(s8)
a0802920:	08200a55 	j	a0802954 <do_net_recv+0xe0>
a0802924:	00000000 	nop
a0802928:	8fc20010 	lw	v0,16(s8)
a080292c:	00021100 	sll	v0,v0,0x4
a0802930:	00401821 	move	v1,v0
a0802934:	8fc20020 	lw	v0,32(s8)
a0802938:	00621021 	addu	v0,v1,v0
a080293c:	00401821 	move	v1,v0
a0802940:	3c028000 	lui	v0,0x8000
a0802944:	ac620000 	sw	v0,0(v1)
a0802948:	8fc20010 	lw	v0,16(s8)
a080294c:	24420001 	addiu	v0,v0,1
a0802950:	afc20010 	sw	v0,16(s8)
a0802954:	8fc20010 	lw	v0,16(s8)
a0802958:	28420040 	slti	v0,v0,64
a080295c:	1440fff2 	bnez	v0,a0802928 <do_net_recv+0xb4>
a0802960:	00000000 	nop
a0802964:	afc00010 	sw	zero,16(s8)
a0802968:	08200a64 	j	a0802990 <do_net_recv+0x11c>
a080296c:	00000000 	nop
a0802970:	3c02bfe1 	lui	v0,0xbfe1
a0802974:	34441008 	ori	a0,v0,0x1008
a0802978:	24050001 	li	a1,1
a080297c:	0c200715 	jal	a0801c54 <reg_write_32>
a0802980:	00000000 	nop
a0802984:	8fc20010 	lw	v0,16(s8)
a0802988:	24420001 	addiu	v0,v0,1
a080298c:	afc20010 	sw	v0,16(s8)
a0802990:	8fc20010 	lw	v0,16(s8)
a0802994:	28420040 	slti	v0,v0,64
a0802998:	1440fff5 	bnez	v0,a0802970 <do_net_recv+0xfc>
a080299c:	00000000 	nop
a08029a0:	00001021 	move	v0,zero
a08029a4:	03c0e821 	move	sp,s8
a08029a8:	8fbf001c 	lw	ra,28(sp)
a08029ac:	8fbe0018 	lw	s8,24(sp)
a08029b0:	27bd0020 	addiu	sp,sp,32
a08029b4:	03e00008 	jr	ra
a08029b8:	00000000 	nop

a08029bc <do_net_send>:
a08029bc:	27bdffe0 	addiu	sp,sp,-32
a08029c0:	afbf001c 	sw	ra,28(sp)
a08029c4:	afbe0018 	sw	s8,24(sp)
a08029c8:	03a0f021 	move	s8,sp
a08029cc:	afc40020 	sw	a0,32(s8)
a08029d0:	afc50024 	sw	a1,36(s8)
a08029d4:	3c02bfe1 	lui	v0,0xbfe1
a08029d8:	34441010 	ori	a0,v0,0x1010
a08029dc:	8fc50024 	lw	a1,36(s8)
a08029e0:	0c200715 	jal	a0801c54 <reg_write_32>
a08029e4:	00000000 	nop
a08029e8:	3c04bfe1 	lui	a0,0xbfe1
a08029ec:	0c2006f8 	jal	a0801be0 <reg_read_32>
a08029f0:	00000000 	nop
a08029f4:	3442000c 	ori	v0,v0,0xc
a08029f8:	3c04bfe1 	lui	a0,0xbfe1
a08029fc:	00402821 	move	a1,v0
a0802a00:	0c200715 	jal	a0801c54 <reg_write_32>
a0802a04:	00000000 	nop
a0802a08:	3c02bfe1 	lui	v0,0xbfe1
a0802a0c:	34441018 	ori	a0,v0,0x1018
a0802a10:	0c2006f8 	jal	a0801be0 <reg_read_32>
a0802a14:	00000000 	nop
a0802a18:	00401821 	move	v1,v0
a0802a1c:	3c020220 	lui	v0,0x220
a0802a20:	34422000 	ori	v0,v0,0x2000
a0802a24:	00621825 	or	v1,v1,v0
a0802a28:	3c02bfe1 	lui	v0,0xbfe1
a0802a2c:	34441018 	ori	a0,v0,0x1018
a0802a30:	00602821 	move	a1,v1
a0802a34:	0c200715 	jal	a0801c54 <reg_write_32>
a0802a38:	00000000 	nop
a0802a3c:	3c02bfe1 	lui	v0,0xbfe1
a0802a40:	3444101c 	ori	a0,v0,0x101c
a0802a44:	3c020001 	lui	v0,0x1
a0802a48:	34450041 	ori	a1,v0,0x41
a0802a4c:	0c200715 	jal	a0801c54 <reg_write_32>
a0802a50:	00000000 	nop
a0802a54:	afc00010 	sw	zero,16(s8)
a0802a58:	08200aa3 	j	a0802a8c <do_net_send+0xd0>
a0802a5c:	00000000 	nop
a0802a60:	8fc20010 	lw	v0,16(s8)
a0802a64:	00021100 	sll	v0,v0,0x4
a0802a68:	00401821 	move	v1,v0
a0802a6c:	8fc20020 	lw	v0,32(s8)
a0802a70:	00621021 	addu	v0,v1,v0
a0802a74:	00401821 	move	v1,v0
a0802a78:	3c028000 	lui	v0,0x8000
a0802a7c:	ac620000 	sw	v0,0(v1)
a0802a80:	8fc20010 	lw	v0,16(s8)
a0802a84:	24420001 	addiu	v0,v0,1
a0802a88:	afc20010 	sw	v0,16(s8)
a0802a8c:	8fc20010 	lw	v0,16(s8)
a0802a90:	28420040 	slti	v0,v0,64
a0802a94:	1440fff2 	bnez	v0,a0802a60 <do_net_send+0xa4>
a0802a98:	00000000 	nop
a0802a9c:	afc00010 	sw	zero,16(s8)
a0802aa0:	08200aba 	j	a0802ae8 <do_net_send+0x12c>
a0802aa4:	00000000 	nop
a0802aa8:	3c02bfe1 	lui	v0,0xbfe1
a0802aac:	34441004 	ori	a0,v0,0x1004
a0802ab0:	24050001 	li	a1,1
a0802ab4:	0c200715 	jal	a0801c54 <reg_write_32>
a0802ab8:	00000000 	nop
a0802abc:	8fc20010 	lw	v0,16(s8)
a0802ac0:	00021100 	sll	v0,v0,0x4
a0802ac4:	00401821 	move	v1,v0
a0802ac8:	8fc20020 	lw	v0,32(s8)
a0802acc:	00621021 	addu	v0,v1,v0
a0802ad0:	8c420000 	lw	v0,0(v0)
a0802ad4:	0440fff9 	bltz	v0,a0802abc <do_net_send+0x100>
a0802ad8:	00000000 	nop
a0802adc:	8fc20010 	lw	v0,16(s8)
a0802ae0:	24420001 	addiu	v0,v0,1
a0802ae4:	afc20010 	sw	v0,16(s8)
a0802ae8:	8fc20010 	lw	v0,16(s8)
a0802aec:	28420040 	slti	v0,v0,64
a0802af0:	1440ffed 	bnez	v0,a0802aa8 <do_net_send+0xec>
a0802af4:	00000000 	nop
a0802af8:	03c0e821 	move	sp,s8
a0802afc:	8fbf001c 	lw	ra,28(sp)
a0802b00:	8fbe0018 	lw	s8,24(sp)
a0802b04:	27bd0020 	addiu	sp,sp,32
a0802b08:	03e00008 	jr	ra
a0802b0c:	00000000 	nop

a0802b10 <do_init_mac>:
a0802b10:	27bdffb0 	addiu	sp,sp,-80
a0802b14:	afbf004c 	sw	ra,76(sp)
a0802b18:	afbe0048 	sw	s8,72(sp)
a0802b1c:	03a0f021 	move	s8,sp
a0802b20:	3c02bfe1 	lui	v0,0xbfe1
a0802b24:	afc2001c 	sw	v0,28(s8)
a0802b28:	3c02bfe1 	lui	v0,0xbfe1
a0802b2c:	34421000 	ori	v0,v0,0x1000
a0802b30:	afc20020 	sw	v0,32(s8)
a0802b34:	24020400 	li	v0,1024
a0802b38:	afc20014 	sw	v0,20(s8)
a0802b3c:	24020040 	li	v0,64
a0802b40:	afc20018 	sw	v0,24(s8)
a0802b44:	0c20099d 	jal	a0802674 <set_sram_ctr>
a0802b48:	00000000 	nop
a0802b4c:	27c20014 	addiu	v0,s8,20
a0802b50:	00402021 	move	a0,v0
a0802b54:	0c2009a9 	jal	a08026a4 <s_reset>
a0802b58:	00000000 	nop
a0802b5c:	27c20014 	addiu	v0,s8,20
a0802b60:	00402021 	move	a0,v0
a0802b64:	0c2009d6 	jal	a0802758 <disable_interrupt_all>
a0802b68:	00000000 	nop
a0802b6c:	27c20014 	addiu	v0,s8,20
a0802b70:	00402021 	move	a0,v0
a0802b74:	0c2009e8 	jal	a08027a0 <set_mac_addr>
a0802b78:	00000000 	nop
a0802b7c:	3c02bfd0 	lui	v0,0xbfd0
a0802b80:	34431064 	ori	v1,v0,0x1064
a0802b84:	2402ffff 	li	v0,-1
a0802b88:	ac620000 	sw	v0,0(v1)
a0802b8c:	3c02bfd0 	lui	v0,0xbfd0
a0802b90:	34431068 	ori	v1,v0,0x1068
a0802b94:	2402ffff 	li	v0,-1
a0802b98:	ac620000 	sw	v0,0(v1)
a0802b9c:	3c02bfd0 	lui	v0,0xbfd0
a0802ba0:	3442106c 	ori	v0,v0,0x106c
a0802ba4:	ac400000 	sw	zero,0(v0)
a0802ba8:	3c03a081 	lui	v1,0xa081
a0802bac:	3c02a086 	lui	v0,0xa086
a0802bb0:	2442a500 	addiu	v0,v0,-23296
a0802bb4:	ac627ab0 	sw	v0,31408(v1)
a0802bb8:	3c03a081 	lui	v1,0xa081
a0802bbc:	3c02a086 	lui	v0,0xa086
a0802bc0:	2442a100 	addiu	v0,v0,-24320
a0802bc4:	ac627aac 	sw	v0,31404(v1)
a0802bc8:	3c02a081 	lui	v0,0xa081
a0802bcc:	8c427ab0 	lw	v0,31408(v0)
a0802bd0:	00402021 	move	a0,v0
a0802bd4:	24050400 	li	a1,1024
a0802bd8:	0c203ad3 	jal	a080eb4c <bzero>
a0802bdc:	00000000 	nop
a0802be0:	3c02a081 	lui	v0,0xa081
a0802be4:	8c427aac 	lw	v0,31404(v0)
a0802be8:	00402021 	move	a0,v0
a0802bec:	24050400 	li	a1,1024
a0802bf0:	0c203ad3 	jal	a080eb4c <bzero>
a0802bf4:	00000000 	nop
a0802bf8:	03c0e821 	move	sp,s8
a0802bfc:	8fbf004c 	lw	ra,76(sp)
a0802c00:	8fbe0048 	lw	s8,72(sp)
a0802c04:	27bd0050 	addiu	sp,sp,80
a0802c08:	03e00008 	jr	ra
a0802c0c:	00000000 	nop

a0802c10 <do_wait_recv_package>:
a0802c10:	27bdffe0 	addiu	sp,sp,-32
a0802c14:	afbf001c 	sw	ra,28(sp)
a0802c18:	afbe0018 	sw	s8,24(sp)
a0802c1c:	03a0f021 	move	s8,sp
a0802c20:	3c02a081 	lui	v0,0xa081
a0802c24:	8c427aac 	lw	v0,31404(v0)
a0802c28:	afc20010 	sw	v0,16(s8)
a0802c2c:	0c200c1c 	jal	a0803070 <enable_mac_int>
a0802c30:	00000000 	nop
a0802c34:	8fc20010 	lw	v0,16(s8)
a0802c38:	244203f0 	addiu	v0,v0,1008
a0802c3c:	8c420000 	lw	v0,0(v0)
a0802c40:	04410005 	bgez	v0,a0802c58 <do_wait_recv_package+0x48>
a0802c44:	00000000 	nop
a0802c48:	3c02a081 	lui	v0,0xa081
a0802c4c:	24447ad0 	addiu	a0,v0,31440
a0802c50:	0c201bb7 	jal	a0806edc <do_block>
a0802c54:	00000000 	nop
a0802c58:	03c0e821 	move	sp,s8
a0802c5c:	8fbf001c 	lw	ra,28(sp)
a0802c60:	8fbe0018 	lw	s8,24(sp)
a0802c64:	27bd0020 	addiu	sp,sp,32
a0802c68:	03e00008 	jr	ra
a0802c6c:	00000000 	nop

a0802c70 <check_recv_block_queue>:
a0802c70:	27bdffd8 	addiu	sp,sp,-40
a0802c74:	afbf0024 	sw	ra,36(sp)
a0802c78:	afbe0020 	sw	s8,32(sp)
a0802c7c:	03a0f021 	move	s8,sp
a0802c80:	3c02a081 	lui	v0,0xa081
a0802c84:	8c427ad0 	lw	v0,31440(v0)
a0802c88:	10400043 	beqz	v0,a0802d98 <check_recv_block_queue+0x128>
a0802c8c:	00000000 	nop
a0802c90:	afc00018 	sw	zero,24(s8)
a0802c94:	08200b32 	j	a0802cc8 <check_recv_block_queue+0x58>
a0802c98:	00000000 	nop
a0802c9c:	3c02a081 	lui	v0,0xa081
a0802ca0:	8c437aac 	lw	v1,31404(v0)
a0802ca4:	8fc20018 	lw	v0,24(s8)
a0802ca8:	00021100 	sll	v0,v0,0x4
a0802cac:	00621021 	addu	v0,v1,v0
a0802cb0:	8c420000 	lw	v0,0(v0)
a0802cb4:	04400038 	bltz	v0,a0802d98 <check_recv_block_queue+0x128>
a0802cb8:	00000000 	nop
a0802cbc:	8fc20018 	lw	v0,24(s8)
a0802cc0:	24420001 	addiu	v0,v0,1
a0802cc4:	afc20018 	sw	v0,24(s8)
a0802cc8:	8fc20018 	lw	v0,24(s8)
a0802ccc:	2842003f 	slti	v0,v0,63
a0802cd0:	1440fff2 	bnez	v0,a0802c9c <check_recv_block_queue+0x2c>
a0802cd4:	00000000 	nop
a0802cd8:	24040001 	li	a0,1
a0802cdc:	2405000f 	li	a1,15
a0802ce0:	0c2004dc 	jal	a0801370 <vt100_move_cursor>
a0802ce4:	00000000 	nop
a0802ce8:	2402001e 	li	v0,30
a0802cec:	afc20014 	sw	v0,20(s8)
a0802cf0:	08200b5f 	j	a0802d7c <check_recv_block_queue+0x10c>
a0802cf4:	00000000 	nop
a0802cf8:	afc00010 	sw	zero,16(s8)
a0802cfc:	08200b54 	j	a0802d50 <check_recv_block_queue+0xe0>
a0802d00:	00000000 	nop
a0802d04:	24030040 	li	v1,64
a0802d08:	8fc20014 	lw	v0,20(s8)
a0802d0c:	00621023 	subu	v0,v1,v0
a0802d10:	00021a00 	sll	v1,v0,0x8
a0802d14:	8fc20010 	lw	v0,16(s8)
a0802d18:	00621021 	addu	v0,v1,v0
a0802d1c:	3c03a085 	lui	v1,0xa085
a0802d20:	00022080 	sll	a0,v0,0x2
a0802d24:	2462a0c0 	addiu	v0,v1,-24384
a0802d28:	00821021 	addu	v0,a0,v0
a0802d2c:	8c430000 	lw	v1,0(v0)
a0802d30:	3c02a081 	lui	v0,0xa081
a0802d34:	24445bc4 	addiu	a0,v0,23492
a0802d38:	00602821 	move	a1,v1
a0802d3c:	0c203fd5 	jal	a080ff54 <printk>
a0802d40:	00000000 	nop
a0802d44:	8fc20010 	lw	v0,16(s8)
a0802d48:	24420001 	addiu	v0,v0,1
a0802d4c:	afc20010 	sw	v0,16(s8)
a0802d50:	8fc20010 	lw	v0,16(s8)
a0802d54:	28420010 	slti	v0,v0,16
a0802d58:	1440ffea 	bnez	v0,a0802d04 <check_recv_block_queue+0x94>
a0802d5c:	00000000 	nop
a0802d60:	3c02a081 	lui	v0,0xa081
a0802d64:	24445bc8 	addiu	a0,v0,23496
a0802d68:	0c203fd5 	jal	a080ff54 <printk>
a0802d6c:	00000000 	nop
a0802d70:	8fc20014 	lw	v0,20(s8)
a0802d74:	2442ffff 	addiu	v0,v0,-1
a0802d78:	afc20014 	sw	v0,20(s8)
a0802d7c:	8fc20014 	lw	v0,20(s8)
a0802d80:	1c40ffdd 	bgtz	v0,a0802cf8 <check_recv_block_queue+0x88>
a0802d84:	00000000 	nop
a0802d88:	3c02a081 	lui	v0,0xa081
a0802d8c:	24447ad0 	addiu	a0,v0,31440
a0802d90:	0c201bd3 	jal	a0806f4c <do_unblock_one>
a0802d94:	00000000 	nop
a0802d98:	03c0e821 	move	sp,s8
a0802d9c:	8fbf0024 	lw	ra,36(sp)
a0802da0:	8fbe0020 	lw	s8,32(sp)
a0802da4:	27bd0028 	addiu	sp,sp,40
a0802da8:	03e00008 	jr	ra
a0802dac:	00000000 	nop

a0802db0 <do_recv_desc_init>:
a0802db0:	27bdffe8 	addiu	sp,sp,-24
a0802db4:	afbe0014 	sw	s8,20(sp)
a0802db8:	03a0f021 	move	s8,sp
a0802dbc:	afc40018 	sw	a0,24(s8)
a0802dc0:	afc5001c 	sw	a1,28(s8)
a0802dc4:	afc60020 	sw	a2,32(s8)
a0802dc8:	afc70024 	sw	a3,36(s8)
a0802dcc:	afc00008 	sw	zero,8(s8)
a0802dd0:	8fc20018 	lw	v0,24(s8)
a0802dd4:	afc20004 	sw	v0,4(s8)
a0802dd8:	8fc20018 	lw	v0,24(s8)
a0802ddc:	afc20000 	sw	v0,0(s8)
a0802de0:	08200b9a 	j	a0802e68 <do_recv_desc_init+0xb8>
a0802de4:	00000000 	nop
a0802de8:	8fc20000 	lw	v0,0(s8)
a0802dec:	ac400000 	sw	zero,0(v0)
a0802df0:	8fc40000 	lw	a0,0(s8)
a0802df4:	8fc20020 	lw	v0,32(s8)
a0802df8:	304307ff 	andi	v1,v0,0x7ff
a0802dfc:	3c028100 	lui	v0,0x8100
a0802e00:	00621025 	or	v0,v1,v0
a0802e04:	ac820004 	sw	v0,4(a0)
a0802e08:	8fc40000 	lw	a0,0(s8)
a0802e0c:	8fc20008 	lw	v0,8(s8)
a0802e10:	2442ffff 	addiu	v0,v0,-1
a0802e14:	00401821 	move	v1,v0
a0802e18:	8fc20020 	lw	v0,32(s8)
a0802e1c:	00620018 	mult	v1,v0
a0802e20:	00001812 	mflo	v1
a0802e24:	8fc2001c 	lw	v0,28(s8)
a0802e28:	00431021 	addu	v0,v0,v1
a0802e2c:	00401821 	move	v1,v0
a0802e30:	3c021fff 	lui	v0,0x1fff
a0802e34:	3442ffff 	ori	v0,v0,0xffff
a0802e38:	00621024 	and	v0,v1,v0
a0802e3c:	ac820008 	sw	v0,8(a0)
a0802e40:	8fc40000 	lw	a0,0(s8)
a0802e44:	8fc20000 	lw	v0,0(s8)
a0802e48:	24430010 	addiu	v1,v0,16
a0802e4c:	3c021fff 	lui	v0,0x1fff
a0802e50:	3442ffff 	ori	v0,v0,0xffff
a0802e54:	00621024 	and	v0,v1,v0
a0802e58:	ac82000c 	sw	v0,12(a0)
a0802e5c:	8fc20000 	lw	v0,0(s8)
a0802e60:	24420010 	addiu	v0,v0,16
a0802e64:	afc20000 	sw	v0,0(s8)
a0802e68:	8fc20008 	lw	v0,8(s8)
a0802e6c:	24420001 	addiu	v0,v0,1
a0802e70:	afc20008 	sw	v0,8(s8)
a0802e74:	8fc30008 	lw	v1,8(s8)
a0802e78:	8fc20024 	lw	v0,36(s8)
a0802e7c:	0062102b 	sltu	v0,v1,v0
a0802e80:	1440ffd9 	bnez	v0,a0802de8 <do_recv_desc_init+0x38>
a0802e84:	00000000 	nop
a0802e88:	8fc20000 	lw	v0,0(s8)
a0802e8c:	ac400000 	sw	zero,0(v0)
a0802e90:	8fc40000 	lw	a0,0(s8)
a0802e94:	8fc20020 	lw	v0,32(s8)
a0802e98:	304307ff 	andi	v1,v0,0x7ff
a0802e9c:	3c020200 	lui	v0,0x200
a0802ea0:	00621025 	or	v0,v1,v0
a0802ea4:	ac820004 	sw	v0,4(a0)
a0802ea8:	8fc40000 	lw	a0,0(s8)
a0802eac:	8fc20008 	lw	v0,8(s8)
a0802eb0:	2442ffff 	addiu	v0,v0,-1
a0802eb4:	00401821 	move	v1,v0
a0802eb8:	8fc20020 	lw	v0,32(s8)
a0802ebc:	00620018 	mult	v1,v0
a0802ec0:	00001812 	mflo	v1
a0802ec4:	8fc2001c 	lw	v0,28(s8)
a0802ec8:	00431021 	addu	v0,v0,v1
a0802ecc:	00401821 	move	v1,v0
a0802ed0:	3c021fff 	lui	v0,0x1fff
a0802ed4:	3442ffff 	ori	v0,v0,0xffff
a0802ed8:	00621024 	and	v0,v1,v0
a0802edc:	ac820008 	sw	v0,8(a0)
a0802ee0:	8fc40000 	lw	a0,0(s8)
a0802ee4:	8fc30004 	lw	v1,4(s8)
a0802ee8:	3c021fff 	lui	v0,0x1fff
a0802eec:	3442ffff 	ori	v0,v0,0xffff
a0802ef0:	00621024 	and	v0,v1,v0
a0802ef4:	ac82000c 	sw	v0,12(a0)
a0802ef8:	8fc20000 	lw	v0,0(s8)
a0802efc:	24420010 	addiu	v0,v0,16
a0802f00:	afc20000 	sw	v0,0(s8)
a0802f04:	8fc20004 	lw	v0,4(s8)
a0802f08:	03c0e821 	move	sp,s8
a0802f0c:	8fbe0014 	lw	s8,20(sp)
a0802f10:	27bd0018 	addiu	sp,sp,24
a0802f14:	03e00008 	jr	ra
a0802f18:	00000000 	nop

a0802f1c <do_send_desc_init>:
a0802f1c:	27bdffe8 	addiu	sp,sp,-24
a0802f20:	afbe0014 	sw	s8,20(sp)
a0802f24:	03a0f021 	move	s8,sp
a0802f28:	afc40018 	sw	a0,24(s8)
a0802f2c:	afc5001c 	sw	a1,28(s8)
a0802f30:	afc60020 	sw	a2,32(s8)
a0802f34:	afc70024 	sw	a3,36(s8)
a0802f38:	afc00008 	sw	zero,8(s8)
a0802f3c:	8fc20018 	lw	v0,24(s8)
a0802f40:	afc20004 	sw	v0,4(s8)
a0802f44:	8fc20018 	lw	v0,24(s8)
a0802f48:	afc20000 	sw	v0,0(s8)
a0802f4c:	08200bed 	j	a0802fb4 <do_send_desc_init+0x98>
a0802f50:	00000000 	nop
a0802f54:	8fc20000 	lw	v0,0(s8)
a0802f58:	ac400000 	sw	zero,0(v0)
a0802f5c:	8fc40000 	lw	a0,0(s8)
a0802f60:	8fc20020 	lw	v0,32(s8)
a0802f64:	304307ff 	andi	v1,v0,0x7ff
a0802f68:	3c026100 	lui	v0,0x6100
a0802f6c:	00621025 	or	v0,v1,v0
a0802f70:	ac820004 	sw	v0,4(a0)
a0802f74:	8fc40000 	lw	a0,0(s8)
a0802f78:	8fc3001c 	lw	v1,28(s8)
a0802f7c:	3c021fff 	lui	v0,0x1fff
a0802f80:	3442ffff 	ori	v0,v0,0xffff
a0802f84:	00621024 	and	v0,v1,v0
a0802f88:	ac820008 	sw	v0,8(a0)
a0802f8c:	8fc40000 	lw	a0,0(s8)
a0802f90:	8fc20000 	lw	v0,0(s8)
a0802f94:	24430010 	addiu	v1,v0,16
a0802f98:	3c021fff 	lui	v0,0x1fff
a0802f9c:	3442ffff 	ori	v0,v0,0xffff
a0802fa0:	00621024 	and	v0,v1,v0
a0802fa4:	ac82000c 	sw	v0,12(a0)
a0802fa8:	8fc20000 	lw	v0,0(s8)
a0802fac:	24420010 	addiu	v0,v0,16
a0802fb0:	afc20000 	sw	v0,0(s8)
a0802fb4:	8fc20008 	lw	v0,8(s8)
a0802fb8:	24420001 	addiu	v0,v0,1
a0802fbc:	afc20008 	sw	v0,8(s8)
a0802fc0:	8fc30008 	lw	v1,8(s8)
a0802fc4:	8fc20024 	lw	v0,36(s8)
a0802fc8:	0062102b 	sltu	v0,v1,v0
a0802fcc:	1440ffe1 	bnez	v0,a0802f54 <do_send_desc_init+0x38>
a0802fd0:	00000000 	nop
a0802fd4:	8fc20000 	lw	v0,0(s8)
a0802fd8:	ac400000 	sw	zero,0(v0)
a0802fdc:	8fc40000 	lw	a0,0(s8)
a0802fe0:	8fc20020 	lw	v0,32(s8)
a0802fe4:	304307ff 	andi	v1,v0,0x7ff
a0802fe8:	3c026300 	lui	v0,0x6300
a0802fec:	00621025 	or	v0,v1,v0
a0802ff0:	ac820004 	sw	v0,4(a0)
a0802ff4:	8fc40000 	lw	a0,0(s8)
a0802ff8:	8fc3001c 	lw	v1,28(s8)
a0802ffc:	3c021fff 	lui	v0,0x1fff
a0803000:	3442ffff 	ori	v0,v0,0xffff
a0803004:	00621024 	and	v0,v1,v0
a0803008:	ac820008 	sw	v0,8(a0)
a080300c:	8fc40000 	lw	a0,0(s8)
a0803010:	8fc30004 	lw	v1,4(s8)
a0803014:	3c021fff 	lui	v0,0x1fff
a0803018:	3442ffff 	ori	v0,v0,0xffff
a080301c:	00621024 	and	v0,v1,v0
a0803020:	ac82000c 	sw	v0,12(a0)
a0803024:	8fc20000 	lw	v0,0(s8)
a0803028:	24420010 	addiu	v0,v0,16
a080302c:	afc20000 	sw	v0,0(s8)
a0803030:	8fc20004 	lw	v0,4(s8)
a0803034:	03c0e821 	move	sp,s8
a0803038:	8fbe0014 	lw	s8,20(sp)
a080303c:	27bd0018 	addiu	sp,sp,24
a0803040:	03e00008 	jr	ra
a0803044:	00000000 	nop

a0803048 <register_irq_handler>:
a0803048:	27bdfff0 	addiu	sp,sp,-16
a080304c:	afbe000c 	sw	s8,12(sp)
a0803050:	03a0f021 	move	s8,sp
a0803054:	afc40010 	sw	a0,16(s8)
a0803058:	afc50014 	sw	a1,20(s8)
a080305c:	03c0e821 	move	sp,s8
a0803060:	8fbe000c 	lw	s8,12(sp)
a0803064:	27bd0010 	addiu	sp,sp,16
a0803068:	03e00008 	jr	ra
a080306c:	00000000 	nop

a0803070 <enable_mac_int>:
a0803070:	27bdfff8 	addiu	sp,sp,-8
a0803074:	afbe0004 	sw	s8,4(sp)
a0803078:	03a0f021 	move	s8,sp
a080307c:	3c02bfd0 	lui	v0,0xbfd0
a0803080:	3443105c 	ori	v1,v0,0x105c
a0803084:	24020008 	li	v0,8
a0803088:	ac620000 	sw	v0,0(v1)
a080308c:	03c0e821 	move	sp,s8
a0803090:	8fbe0004 	lw	s8,4(sp)
a0803094:	27bd0008 	addiu	sp,sp,8
a0803098:	03e00008 	jr	ra
a080309c:	00000000 	nop

a08030a0 <check_irq_mac>:
a08030a0:	27bdffe0 	addiu	sp,sp,-32
a08030a4:	afbf001c 	sw	ra,28(sp)
a08030a8:	afbe0018 	sw	s8,24(sp)
a08030ac:	03a0f021 	move	s8,sp
a08030b0:	0c20034e 	jal	a0800d38 <get_cp0_status>
a08030b4:	00000000 	nop
a08030b8:	afc20014 	sw	v0,20(s8)
a08030bc:	8fc20014 	lw	v0,20(s8)
a08030c0:	00021202 	srl	v0,v0,0x8
a08030c4:	304200ff 	andi	v0,v0,0xff
a08030c8:	afc20010 	sw	v0,16(s8)
a08030cc:	8fc20010 	lw	v0,16(s8)
a08030d0:	30420008 	andi	v0,v0,0x8
a08030d4:	10400009 	beqz	v0,a08030fc <check_irq_mac+0x5c>
a08030d8:	00000000 	nop
a08030dc:	3c02bfd0 	lui	v0,0xbfd0
a08030e0:	34421058 	ori	v0,v0,0x1058
a08030e4:	8c420000 	lw	v0,0(v0)
a08030e8:	30420008 	andi	v0,v0,0x8
a08030ec:	10400003 	beqz	v0,a08030fc <check_irq_mac+0x5c>
a08030f0:	00000000 	nop
a08030f4:	0c200969 	jal	a08025a4 <irq_mac>
a08030f8:	00000000 	nop
a08030fc:	03c0e821 	move	sp,s8
a0803100:	8fbf001c 	lw	ra,28(sp)
a0803104:	8fbe0018 	lw	s8,24(sp)
a0803108:	27bd0020 	addiu	sp,sp,32
a080310c:	03e00008 	jr	ra
a0803110:	00000000 	nop

a0803114 <do_net_fast_recv>:
a0803114:	27bdffe0 	addiu	sp,sp,-32
a0803118:	afbf001c 	sw	ra,28(sp)
a080311c:	afbe0018 	sw	s8,24(sp)
a0803120:	03a0f021 	move	s8,sp
a0803124:	afc40020 	sw	a0,32(s8)
a0803128:	afc50024 	sw	a1,36(s8)
a080312c:	afc60028 	sw	a2,40(s8)
a0803130:	3c02a081 	lui	v0,0xa081
a0803134:	8c427aac 	lw	v0,31404(v0)
a0803138:	00401821 	move	v1,v0
a080313c:	3c02bfe1 	lui	v0,0xbfe1
a0803140:	3444100c 	ori	a0,v0,0x100c
a0803144:	00602821 	move	a1,v1
a0803148:	0c200715 	jal	a0801c54 <reg_write_32>
a080314c:	00000000 	nop
a0803150:	3c04bfe1 	lui	a0,0xbfe1
a0803154:	0c2006f8 	jal	a0801be0 <reg_read_32>
a0803158:	00000000 	nop
a080315c:	34420004 	ori	v0,v0,0x4
a0803160:	3c04bfe1 	lui	a0,0xbfe1
a0803164:	00402821 	move	a1,v0
a0803168:	0c200715 	jal	a0801c54 <reg_write_32>
a080316c:	00000000 	nop
a0803170:	3c02bfe1 	lui	v0,0xbfe1
a0803174:	34441018 	ori	a0,v0,0x1018
a0803178:	0c2006f8 	jal	a0801be0 <reg_read_32>
a080317c:	00000000 	nop
a0803180:	00401821 	move	v1,v0
a0803184:	3c020220 	lui	v0,0x220
a0803188:	34420002 	ori	v0,v0,0x2
a080318c:	00621825 	or	v1,v1,v0
a0803190:	3c02bfe1 	lui	v0,0xbfe1
a0803194:	34441018 	ori	a0,v0,0x1018
a0803198:	00602821 	move	a1,v1
a080319c:	0c200715 	jal	a0801c54 <reg_write_32>
a08031a0:	00000000 	nop
a08031a4:	3c02bfe1 	lui	v0,0xbfe1
a08031a8:	3444101c 	ori	a0,v0,0x101c
a08031ac:	3c020001 	lui	v0,0x1
a08031b0:	34450041 	ori	a1,v0,0x41
a08031b4:	0c200715 	jal	a0801c54 <reg_write_32>
a08031b8:	00000000 	nop
a08031bc:	afc00010 	sw	zero,16(s8)
a08031c0:	08200c7d 	j	a08031f4 <do_net_fast_recv+0xe0>
a08031c4:	00000000 	nop
a08031c8:	8fc20010 	lw	v0,16(s8)
a08031cc:	00021100 	sll	v0,v0,0x4
a08031d0:	00401821 	move	v1,v0
a08031d4:	8fc20020 	lw	v0,32(s8)
a08031d8:	00621021 	addu	v0,v1,v0
a08031dc:	00401821 	move	v1,v0
a08031e0:	3c028000 	lui	v0,0x8000
a08031e4:	ac620000 	sw	v0,0(v1)
a08031e8:	8fc20010 	lw	v0,16(s8)
a08031ec:	24420001 	addiu	v0,v0,1
a08031f0:	afc20010 	sw	v0,16(s8)
a08031f4:	8fc20010 	lw	v0,16(s8)
a08031f8:	28420100 	slti	v0,v0,256
a08031fc:	1440fff2 	bnez	v0,a08031c8 <do_net_fast_recv+0xb4>
a0803200:	00000000 	nop
a0803204:	afc00010 	sw	zero,16(s8)
a0803208:	08200c8c 	j	a0803230 <do_net_fast_recv+0x11c>
a080320c:	00000000 	nop
a0803210:	3c02bfe1 	lui	v0,0xbfe1
a0803214:	34441008 	ori	a0,v0,0x1008
a0803218:	24050001 	li	a1,1
a080321c:	0c200715 	jal	a0801c54 <reg_write_32>
a0803220:	00000000 	nop
a0803224:	8fc20010 	lw	v0,16(s8)
a0803228:	24420001 	addiu	v0,v0,1
a080322c:	afc20010 	sw	v0,16(s8)
a0803230:	8fc20010 	lw	v0,16(s8)
a0803234:	28420100 	slti	v0,v0,256
a0803238:	1440fff5 	bnez	v0,a0803210 <do_net_fast_recv+0xfc>
a080323c:	00000000 	nop
a0803240:	00001021 	move	v0,zero
a0803244:	03c0e821 	move	sp,s8
a0803248:	8fbf001c 	lw	ra,28(sp)
a080324c:	8fbe0018 	lw	s8,24(sp)
a0803250:	27bd0020 	addiu	sp,sp,32
a0803254:	03e00008 	jr	ra
a0803258:	00000000 	nop
a080325c:	00000000 	nop

a0803260 <init_pcb>:
a0803260:	27bdffe0 	addiu	sp,sp,-32
a0803264:	afbf001c 	sw	ra,28(sp)
a0803268:	afbe0018 	sw	s8,24(sp)
a080326c:	03a0f021 	move	s8,sp
a0803270:	afc00014 	sw	zero,20(s8)
a0803274:	3c02a082 	lui	v0,0xa082
a0803278:	8c42a064 	lw	v0,-24476(v0)
a080327c:	24430001 	addiu	v1,v0,1
a0803280:	3c02a082 	lui	v0,0xa082
a0803284:	ac43a064 	sw	v1,-24476(v0)
a0803288:	08200cb5 	j	a08032d4 <init_pcb+0x74>
a080328c:	00000000 	nop
a0803290:	8fc40014 	lw	a0,20(s8)
a0803294:	3c05a086 	lui	a1,0xa086
a0803298:	00801021 	move	v0,a0
a080329c:	00021900 	sll	v1,v0,0x4
a08032a0:	00031080 	sll	v0,v1,0x2
a08032a4:	00431023 	subu	v0,v0,v1
a08032a8:	00441023 	subu	v0,v0,a0
a08032ac:	000218c0 	sll	v1,v0,0x3
a08032b0:	00431021 	addu	v0,v0,v1
a08032b4:	00441821 	addu	v1,v0,a0
a08032b8:	24a2cacc 	addiu	v0,a1,-13620
a08032bc:	00621821 	addu	v1,v1,v0
a08032c0:	24020003 	li	v0,3
a08032c4:	ac620158 	sw	v0,344(v1)
a08032c8:	8fc20014 	lw	v0,20(s8)
a08032cc:	24420001 	addiu	v0,v0,1
a08032d0:	afc20014 	sw	v0,20(s8)
a08032d4:	8fc20014 	lw	v0,20(s8)
a08032d8:	28420028 	slti	v0,v0,40
a08032dc:	1440ffec 	bnez	v0,a0803290 <init_pcb+0x30>
a08032e0:	00000000 	nop
a08032e4:	3c03a085 	lui	v1,0xa085
a08032e8:	3c02a087 	lui	v0,0xa087
a08032ec:	24424b14 	addiu	v0,v0,19220
a08032f0:	ac62a020 	sw	v0,-24544(v1)
a08032f4:	3c02a085 	lui	v0,0xa085
a08032f8:	2443a020 	addiu	v1,v0,-24544
a08032fc:	3c02a087 	lui	v0,0xa087
a0803300:	24424b20 	addiu	v0,v0,19232
a0803304:	ac620004 	sw	v0,4(v1)
a0803308:	24020002 	li	v0,2
a080330c:	afc20014 	sw	v0,20(s8)
a0803310:	08200cdd 	j	a0803374 <init_pcb+0x114>
a0803314:	00000000 	nop
a0803318:	8fc50014 	lw	a1,20(s8)
a080331c:	8fc20014 	lw	v0,20(s8)
a0803320:	2444fffe 	addiu	a0,v0,-2
a0803324:	00801021 	move	v0,a0
a0803328:	000218c0 	sll	v1,v0,0x3
a080332c:	000310c0 	sll	v0,v1,0x3
a0803330:	00431023 	subu	v0,v0,v1
a0803334:	00441023 	subu	v0,v0,a0
a0803338:	00021880 	sll	v1,v0,0x2
a080333c:	00431021 	addu	v0,v0,v1
a0803340:	00021080 	sll	v0,v0,0x2
a0803344:	24430028 	addiu	v1,v0,40
a0803348:	3c02a087 	lui	v0,0xa087
a080334c:	2442becc 	addiu	v0,v0,-16692
a0803350:	00622021 	addu	a0,v1,v0
a0803354:	3c02a085 	lui	v0,0xa085
a0803358:	00051880 	sll	v1,a1,0x2
a080335c:	2442a020 	addiu	v0,v0,-24544
a0803360:	00621021 	addu	v0,v1,v0
a0803364:	ac440000 	sw	a0,0(v0)
a0803368:	8fc20014 	lw	v0,20(s8)
a080336c:	24420001 	addiu	v0,v0,1
a0803370:	afc20014 	sw	v0,20(s8)
a0803374:	8fc20014 	lw	v0,20(s8)
a0803378:	28420022 	slti	v0,v0,34
a080337c:	1440ffe6 	bnez	v0,a0803318 <init_pcb+0xb8>
a0803380:	00000000 	nop
a0803384:	afc00014 	sw	zero,20(s8)
a0803388:	08200cf7 	j	a08033dc <init_pcb+0x17c>
a080338c:	00000000 	nop
a0803390:	8fc20014 	lw	v0,20(s8)
a0803394:	3c03a085 	lui	v1,0xa085
a0803398:	00022080 	sll	a0,v0,0x2
a080339c:	2462a020 	addiu	v0,v1,-24544
a08033a0:	00821021 	addu	v0,a0,v0
a08033a4:	8c420000 	lw	v0,0(v0)
a08033a8:	ac400008 	sw	zero,8(v0)
a08033ac:	8fc20014 	lw	v0,20(s8)
a08033b0:	3c03a085 	lui	v1,0xa085
a08033b4:	00022080 	sll	a0,v0,0x2
a08033b8:	2462a020 	addiu	v0,v1,-24544
a08033bc:	00821021 	addu	v0,a0,v0
a08033c0:	8c420000 	lw	v0,0(v0)
a08033c4:	00402021 	move	a0,v0
a08033c8:	0c20213c 	jal	a08084f0 <queue_init>
a08033cc:	00000000 	nop
a08033d0:	8fc20014 	lw	v0,20(s8)
a08033d4:	24420001 	addiu	v0,v0,1
a08033d8:	afc20014 	sw	v0,20(s8)
a08033dc:	8fc20014 	lw	v0,20(s8)
a08033e0:	28420002 	slti	v0,v0,2
a08033e4:	1440ffea 	bnez	v0,a0803390 <init_pcb+0x130>
a08033e8:	00000000 	nop
a08033ec:	3c02a081 	lui	v0,0xa081
a08033f0:	24447abc 	addiu	a0,v0,31420
a08033f4:	0c20213c 	jal	a08084f0 <queue_init>
a08033f8:	00000000 	nop
a08033fc:	3c02a081 	lui	v0,0xa081
a0803400:	24447ab4 	addiu	a0,v0,31412
a0803404:	0c20213c 	jal	a08084f0 <queue_init>
a0803408:	00000000 	nop
a080340c:	3c02a081 	lui	v0,0xa081
a0803410:	24447ac4 	addiu	a0,v0,31428
a0803414:	0c20213c 	jal	a08084f0 <queue_init>
a0803418:	00000000 	nop
a080341c:	3c02a086 	lui	v0,0xa086
a0803420:	2444ce0c 	addiu	a0,v0,-12788
a0803424:	0c20213c 	jal	a08084f0 <queue_init>
a0803428:	00000000 	nop
a080342c:	3c02a086 	lui	v0,0xa086
a0803430:	2444cc74 	addiu	a0,v0,-13196
a0803434:	2405009c 	li	a1,156
a0803438:	0c203ad3 	jal	a080eb4c <bzero>
a080343c:	00000000 	nop
a0803440:	3c02a086 	lui	v0,0xa086
a0803444:	2444cd10 	addiu	a0,v0,-13040
a0803448:	2405009c 	li	a1,156
a080344c:	0c203ad3 	jal	a080eb4c <bzero>
a0803450:	00000000 	nop
a0803454:	afc00010 	sw	zero,16(s8)
a0803458:	08200d2a 	j	a08034a8 <init_pcb+0x248>
a080345c:	00000000 	nop
a0803460:	8fc40014 	lw	a0,20(s8)
a0803464:	8fc50010 	lw	a1,16(s8)
a0803468:	3c06a086 	lui	a2,0xa086
a080346c:	00801021 	move	v0,a0
a0803470:	000218c0 	sll	v1,v0,0x3
a0803474:	00641823 	subu	v1,v1,a0
a0803478:	00031100 	sll	v0,v1,0x4
a080347c:	00431023 	subu	v0,v0,v1
a0803480:	00441021 	addu	v0,v0,a0
a0803484:	00451021 	addu	v0,v0,a1
a0803488:	2442005a 	addiu	v0,v0,90
a080348c:	24c3cacc 	addiu	v1,a2,-13620
a0803490:	00021080 	sll	v0,v0,0x2
a0803494:	00621021 	addu	v0,v1,v0
a0803498:	ac400004 	sw	zero,4(v0)
a080349c:	8fc20010 	lw	v0,16(s8)
a08034a0:	24420001 	addiu	v0,v0,1
a08034a4:	afc20010 	sw	v0,16(s8)
a08034a8:	8fc20010 	lw	v0,16(s8)
a08034ac:	2842000a 	slti	v0,v0,10
a08034b0:	1440ffeb 	bnez	v0,a0803460 <init_pcb+0x200>
a08034b4:	00000000 	nop
a08034b8:	3c02a081 	lui	v0,0xa081
a08034bc:	8c437294 	lw	v1,29332(v0)
a08034c0:	3c02a086 	lui	v0,0xa086
a08034c4:	2442cacc 	addiu	v0,v0,-13620
a08034c8:	ac43021c 	sw	v1,540(v0)
a08034cc:	3c02a081 	lui	v0,0xa081
a08034d0:	8c437294 	lw	v1,29332(v0)
a08034d4:	3c020008 	lui	v0,0x8
a08034d8:	00621821 	addu	v1,v1,v0
a08034dc:	3c02a086 	lui	v0,0xa086
a08034e0:	2442cacc 	addiu	v0,v0,-13620
a08034e4:	ac4302b8 	sw	v1,696(v0)
a08034e8:	3c02a081 	lui	v0,0xa081
a08034ec:	8c437294 	lw	v1,29332(v0)
a08034f0:	3c02a086 	lui	v0,0xa086
a08034f4:	2442cacc 	addiu	v0,v0,-13620
a08034f8:	ac430220 	sw	v1,544(v0)
a08034fc:	3c02a081 	lui	v0,0xa081
a0803500:	8c437294 	lw	v1,29332(v0)
a0803504:	3c020008 	lui	v0,0x8
a0803508:	00621821 	addu	v1,v1,v0
a080350c:	3c02a086 	lui	v0,0xa086
a0803510:	2442cacc 	addiu	v0,v0,-13620
a0803514:	ac4302bc 	sw	v1,700(v0)
a0803518:	3c02a081 	lui	v0,0xa081
a080351c:	8c437294 	lw	v1,29332(v0)
a0803520:	3c02a086 	lui	v0,0xa086
a0803524:	2442cacc 	addiu	v0,v0,-13620
a0803528:	ac4302e0 	sw	v1,736(v0)
a080352c:	3c02a081 	lui	v0,0xa081
a0803530:	8c437294 	lw	v1,29332(v0)
a0803534:	3c020008 	lui	v0,0x8
a0803538:	00621821 	addu	v1,v1,v0
a080353c:	3c02a086 	lui	v0,0xa086
a0803540:	2442cacc 	addiu	v0,v0,-13620
a0803544:	ac4302e4 	sw	v1,740(v0)
a0803548:	3c02a081 	lui	v0,0xa081
a080354c:	8c427298 	lw	v0,29336(v0)
a0803550:	24431000 	addiu	v1,v0,4096
a0803554:	3c02a081 	lui	v0,0xa081
a0803558:	ac437298 	sw	v1,29336(v0)
a080355c:	3c02a081 	lui	v0,0xa081
a0803560:	8c437294 	lw	v1,29332(v0)
a0803564:	3c020010 	lui	v0,0x10
a0803568:	00621821 	addu	v1,v1,v0
a080356c:	3c02a081 	lui	v0,0xa081
a0803570:	ac437294 	sw	v1,29332(v0)
a0803574:	3c02a086 	lui	v0,0xa086
a0803578:	2442cacc 	addiu	v0,v0,-13620
a080357c:	ac4002f4 	sw	zero,756(v0)
a0803580:	3c02a086 	lui	v0,0xa086
a0803584:	2442cacc 	addiu	v0,v0,-13620
a0803588:	ac4002f8 	sw	zero,760(v0)
a080358c:	3c02a086 	lui	v0,0xa086
a0803590:	2443cacc 	addiu	v1,v0,-13620
a0803594:	24020001 	li	v0,1
a0803598:	ac6202e8 	sw	v0,744(v1)
a080359c:	3c02a086 	lui	v0,0xa086
a08035a0:	2443cacc 	addiu	v1,v0,-13620
a08035a4:	24020002 	li	v0,2
a08035a8:	ac6202fc 	sw	v0,764(v1)
a08035ac:	3c02a086 	lui	v0,0xa086
a08035b0:	2443cacc 	addiu	v1,v0,-13620
a08035b4:	24020004 	li	v0,4
a08035b8:	ac620300 	sw	v0,768(v1)
a08035bc:	3c02a086 	lui	v0,0xa086
a08035c0:	2442cacc 	addiu	v0,v0,-13620
a08035c4:	ac400304 	sw	zero,772(v0)
a08035c8:	3c02a086 	lui	v0,0xa086
a08035cc:	2442cacc 	addiu	v0,v0,-13620
a08035d0:	ac400308 	sw	zero,776(v0)
a08035d4:	3c02a081 	lui	v0,0xa081
a08035d8:	24430f0c 	addiu	v1,v0,3852
a08035dc:	3c02a086 	lui	v0,0xa086
a08035e0:	2442cacc 	addiu	v0,v0,-13620
a08035e4:	ac4302f0 	sw	v1,752(v0)
a08035e8:	3c02a080 	lui	v0,0xa080
a08035ec:	24430c5c 	addiu	v1,v0,3164
a08035f0:	3c02a086 	lui	v0,0xa086
a08035f4:	2442cacc 	addiu	v0,v0,-13620
a08035f8:	ac430224 	sw	v1,548(v0)
a08035fc:	3c02a086 	lui	v0,0xa086
a0803600:	2443cacc 	addiu	v1,v0,-13620
a0803604:	3c021000 	lui	v0,0x1000
a0803608:	34428000 	ori	v0,v0,0x8000
a080360c:	ac620228 	sw	v0,552(v1)
a0803610:	3c02a086 	lui	v0,0xa086
a0803614:	2443cacc 	addiu	v1,v0,-13620
a0803618:	3c021000 	lui	v0,0x1000
a080361c:	34428000 	ori	v0,v0,0x8000
a0803620:	ac6202c4 	sw	v0,708(v1)
a0803624:	3c02a086 	lui	v0,0xa086
a0803628:	2442cacc 	addiu	v0,v0,-13620
a080362c:	8c4302f0 	lw	v1,752(v0)
a0803630:	3c02a086 	lui	v0,0xa086
a0803634:	2442cacc 	addiu	v0,v0,-13620
a0803638:	ac43023c 	sw	v1,572(v0)
a080363c:	3c02a086 	lui	v0,0xa086
a0803640:	2442cacc 	addiu	v0,v0,-13620
a0803644:	8c4302f0 	lw	v1,752(v0)
a0803648:	3c02a086 	lui	v0,0xa086
a080364c:	2442cacc 	addiu	v0,v0,-13620
a0803650:	ac4302d8 	sw	v1,728(v0)
a0803654:	3c02a086 	lui	v0,0xa086
a0803658:	2443cacc 	addiu	v1,v0,-13620
a080365c:	24020001 	li	v0,1
a0803660:	ac6202ec 	sw	v0,748(v1)
a0803664:	3c02a086 	lui	v0,0xa086
a0803668:	2443cacc 	addiu	v1,v0,-13620
a080366c:	24020004 	li	v0,4
a0803670:	ac620310 	sw	v0,784(v1)
a0803674:	3c02a086 	lui	v0,0xa086
a0803678:	2442cacc 	addiu	v0,v0,-13620
a080367c:	ac40030c 	sw	zero,780(v0)
a0803680:	3c02a086 	lui	v0,0xa086
a0803684:	2442cacc 	addiu	v0,v0,-13620
a0803688:	ac400348 	sw	zero,840(v0)
a080368c:	3c02a086 	lui	v0,0xa086
a0803690:	2442cacc 	addiu	v0,v0,-13620
a0803694:	ac40033c 	sw	zero,828(v0)
a0803698:	3c02a081 	lui	v0,0xa081
a080369c:	24447abc 	addiu	a0,v0,31420
a08036a0:	3c02a086 	lui	v0,0xa086
a08036a4:	2445cc74 	addiu	a1,v0,-13196
a08036a8:	0c20215e 	jal	a0808578 <queue_push>
a08036ac:	00000000 	nop
a08036b0:	3c02a081 	lui	v0,0xa081
a08036b4:	8c437290 	lw	v1,29328(v0)
a08036b8:	24020004 	li	v0,4
a08036bc:	ac620158 	sw	v0,344(v1)
a08036c0:	3c02a081 	lui	v0,0xa081
a08036c4:	8c427290 	lw	v0,29328(v0)
a08036c8:	ac400148 	sw	zero,328(v0)
a08036cc:	3c02a081 	lui	v0,0xa081
a08036d0:	8c427290 	lw	v0,29328(v0)
a08036d4:	ac400140 	sw	zero,320(v0)
a08036d8:	03c0e821 	move	sp,s8
a08036dc:	8fbf001c 	lw	ra,28(sp)
a08036e0:	8fbe0018 	lw	s8,24(sp)
a08036e4:	27bd0020 	addiu	sp,sp,32
a08036e8:	03e00008 	jr	ra
a08036ec:	00000000 	nop

a08036f0 <init_exception_handler>:
a08036f0:	27bdfff0 	addiu	sp,sp,-16
a08036f4:	afbe000c 	sw	s8,12(sp)
a08036f8:	03a0f021 	move	s8,sp
a08036fc:	afc00000 	sw	zero,0(s8)
a0803700:	afc00000 	sw	zero,0(s8)
a0803704:	08200dce 	j	a0803738 <init_exception_handler+0x48>
a0803708:	00000000 	nop
a080370c:	8fc30000 	lw	v1,0(s8)
a0803710:	3c02a080 	lui	v0,0xa080
a0803714:	244404b8 	addiu	a0,v0,1208
a0803718:	3c02a086 	lui	v0,0xa086
a080371c:	00031880 	sll	v1,v1,0x2
a0803720:	24420d0c 	addiu	v0,v0,3340
a0803724:	00621021 	addu	v0,v1,v0
a0803728:	ac440000 	sw	a0,0(v0)
a080372c:	8fc20000 	lw	v0,0(s8)
a0803730:	24420001 	addiu	v0,v0,1
a0803734:	afc20000 	sw	v0,0(s8)
a0803738:	8fc20000 	lw	v0,0(s8)
a080373c:	28420020 	slti	v0,v0,32
a0803740:	1440fff2 	bnez	v0,a080370c <init_exception_handler+0x1c>
a0803744:	00000000 	nop
a0803748:	3c02a080 	lui	v0,0xa080
a080374c:	24430670 	addiu	v1,v0,1648
a0803750:	3c02a086 	lui	v0,0xa086
a0803754:	ac430d0c 	sw	v1,3340(v0)
a0803758:	3c02a080 	lui	v0,0xa080
a080375c:	24430a68 	addiu	v1,v0,2664
a0803760:	3c02a086 	lui	v0,0xa086
a0803764:	24420d0c 	addiu	v0,v0,3340
a0803768:	ac430020 	sw	v1,32(v0)
a080376c:	3c02a080 	lui	v0,0xa080
a0803770:	24430f58 	addiu	v1,v0,3928
a0803774:	3c02a086 	lui	v0,0xa086
a0803778:	24420d0c 	addiu	v0,v0,3340
a080377c:	ac430004 	sw	v1,4(v0)
a0803780:	3c02a080 	lui	v0,0xa080
a0803784:	24430f58 	addiu	v1,v0,3928
a0803788:	3c02a086 	lui	v0,0xa086
a080378c:	24420d0c 	addiu	v0,v0,3340
a0803790:	ac430008 	sw	v1,8(v0)
a0803794:	3c02a080 	lui	v0,0xa080
a0803798:	24430f58 	addiu	v1,v0,3928
a080379c:	3c02a086 	lui	v0,0xa086
a08037a0:	24420d0c 	addiu	v0,v0,3340
a08037a4:	ac43000c 	sw	v1,12(v0)
a08037a8:	03c0e821 	move	sp,s8
a08037ac:	8fbe000c 	lw	s8,12(sp)
a08037b0:	27bd0010 	addiu	sp,sp,16
a08037b4:	03e00008 	jr	ra
a08037b8:	00000000 	nop

a08037bc <init_exception>:
a08037bc:	27bdffe0 	addiu	sp,sp,-32
a08037c0:	afbf001c 	sw	ra,28(sp)
a08037c4:	afbe0018 	sw	s8,24(sp)
a08037c8:	03a0f021 	move	s8,sp
a08037cc:	0c20034e 	jal	a0800d38 <get_cp0_status>
a08037d0:	00000000 	nop
a08037d4:	afc20010 	sw	v0,16(s8)
a08037d8:	8fc30010 	lw	v1,16(s8)
a08037dc:	2402fffe 	li	v0,-2
a08037e0:	00621024 	and	v0,v1,v0
a08037e4:	afc20010 	sw	v0,16(s8)
a08037e8:	8fc40010 	lw	a0,16(s8)
a08037ec:	0c200352 	jal	a0800d48 <set_cp0_status>
a08037f0:	00000000 	nop
a08037f4:	0c200dbc 	jal	a08036f0 <init_exception_handler>
a08037f8:	00000000 	nop
a08037fc:	3c02a080 	lui	v0,0xa080
a0803800:	2445047c 	addiu	a1,v0,1148
a0803804:	3c02a080 	lui	v0,0xa080
a0803808:	244304b8 	addiu	v1,v0,1208
a080380c:	3c02a080 	lui	v0,0xa080
a0803810:	2442047c 	addiu	v0,v0,1148
a0803814:	00621023 	subu	v0,v1,v0
a0803818:	00401821 	move	v1,v0
a080381c:	3c02bfc0 	lui	v0,0xbfc0
a0803820:	34440380 	ori	a0,v0,0x380
a0803824:	00603021 	move	a2,v1
a0803828:	0c203a9a 	jal	a080ea68 <memcpy>
a080382c:	00000000 	nop
a0803830:	3c02a080 	lui	v0,0xa080
a0803834:	2445047c 	addiu	a1,v0,1148
a0803838:	3c02a080 	lui	v0,0xa080
a080383c:	244304b8 	addiu	v1,v0,1208
a0803840:	3c02a080 	lui	v0,0xa080
a0803844:	2442047c 	addiu	v0,v0,1148
a0803848:	00621023 	subu	v0,v1,v0
a080384c:	00401821 	move	v1,v0
a0803850:	3c028000 	lui	v0,0x8000
a0803854:	34440180 	ori	a0,v0,0x180
a0803858:	00603021 	move	a2,v1
a080385c:	0c203a9a 	jal	a080ea68 <memcpy>
a0803860:	00000000 	nop
a0803864:	3c02a080 	lui	v0,0xa080
a0803868:	2445047c 	addiu	a1,v0,1148
a080386c:	3c02a080 	lui	v0,0xa080
a0803870:	244304b8 	addiu	v1,v0,1208
a0803874:	3c02a080 	lui	v0,0xa080
a0803878:	2442047c 	addiu	v0,v0,1148
a080387c:	00621023 	subu	v0,v1,v0
a0803880:	3c048000 	lui	a0,0x8000
a0803884:	00403021 	move	a2,v0
a0803888:	0c203a9a 	jal	a080ea68 <memcpy>
a080388c:	00000000 	nop
a0803890:	0c20030f 	jal	a0800c3c <reset_timer>
a0803894:	00000000 	nop
a0803898:	03c0e821 	move	sp,s8
a080389c:	8fbf001c 	lw	ra,28(sp)
a08038a0:	8fbe0018 	lw	s8,24(sp)
a08038a4:	27bd0020 	addiu	sp,sp,32
a08038a8:	03e00008 	jr	ra
a08038ac:	00000000 	nop

a08038b0 <init_syscall>:
a08038b0:	27bdfff0 	addiu	sp,sp,-16
a08038b4:	afbe000c 	sw	s8,12(sp)
a08038b8:	03a0f021 	move	s8,sp
a08038bc:	afc00000 	sw	zero,0(s8)
a08038c0:	08200e3d 	j	a08038f4 <init_syscall+0x44>
a08038c4:	00000000 	nop
a08038c8:	8fc30000 	lw	v1,0(s8)
a08038cc:	3c02a081 	lui	v0,0xa081
a08038d0:	2444dc34 	addiu	a0,v0,-9164
a08038d4:	3c02a087 	lui	v0,0xa087
a08038d8:	00031880 	sll	v1,v1,0x2
a08038dc:	2442bdcc 	addiu	v0,v0,-16948
a08038e0:	00621021 	addu	v0,v1,v0
a08038e4:	ac440000 	sw	a0,0(v0)
a08038e8:	8fc20000 	lw	v0,0(s8)
a08038ec:	24420001 	addiu	v0,v0,1
a08038f0:	afc20000 	sw	v0,0(s8)
a08038f4:	8fc20000 	lw	v0,0(s8)
a08038f8:	28420040 	slti	v0,v0,64
a08038fc:	1440fff2 	bnez	v0,a08038c8 <init_syscall+0x18>
a0803900:	00000000 	nop
a0803904:	3c02a080 	lui	v0,0xa080
a0803908:	24436df0 	addiu	v1,v0,28144
a080390c:	3c02a087 	lui	v0,0xa087
a0803910:	2442bdcc 	addiu	v0,v0,-16948
a0803914:	ac430008 	sw	v1,8(v0)
a0803918:	3c02a080 	lui	v0,0xa080
a080391c:	24436edc 	addiu	v1,v0,28380
a0803920:	3c02a087 	lui	v0,0xa087
a0803924:	2442bdcc 	addiu	v0,v0,-16948
a0803928:	ac430028 	sw	v1,40(v0)
a080392c:	3c02a080 	lui	v0,0xa080
a0803930:	24436f4c 	addiu	v1,v0,28492
a0803934:	3c02a087 	lui	v0,0xa087
a0803938:	2442bdcc 	addiu	v0,v0,-16948
a080393c:	ac43002c 	sw	v1,44(v0)
a0803940:	3c02a080 	lui	v0,0xa080
a0803944:	2443701c 	addiu	v1,v0,28700
a0803948:	3c02a087 	lui	v0,0xa087
a080394c:	2442bdcc 	addiu	v0,v0,-16948
a0803950:	ac430030 	sw	v1,48(v0)
a0803954:	3c02a080 	lui	v0,0xa080
a0803958:	24431b9c 	addiu	v1,v0,7068
a080395c:	3c02a087 	lui	v0,0xa087
a0803960:	2442bdcc 	addiu	v0,v0,-16948
a0803964:	ac430050 	sw	v1,80(v0)
a0803968:	3c02a080 	lui	v0,0xa080
a080396c:	244318e8 	addiu	v1,v0,6376
a0803970:	3c02a087 	lui	v0,0xa087
a0803974:	2442bdcc 	addiu	v0,v0,-16948
a0803978:	ac430058 	sw	v1,88(v0)
a080397c:	3c02a080 	lui	v0,0xa080
a0803980:	24431a08 	addiu	v1,v0,6664
a0803984:	3c02a087 	lui	v0,0xa087
a0803988:	2442bdcc 	addiu	v0,v0,-16948
a080398c:	ac43005c 	sw	v1,92(v0)
a0803990:	3c02a080 	lui	v0,0xa080
a0803994:	24433dcc 	addiu	v1,v0,15820
a0803998:	3c02a087 	lui	v0,0xa087
a080399c:	2442bdcc 	addiu	v0,v0,-16948
a08039a0:	ac430078 	sw	v1,120(v0)
a08039a4:	3c02a080 	lui	v0,0xa080
a08039a8:	24433e10 	addiu	v1,v0,15888
a08039ac:	3c02a087 	lui	v0,0xa087
a08039b0:	2442bdcc 	addiu	v0,v0,-16948
a08039b4:	ac43007c 	sw	v1,124(v0)
a08039b8:	3c02a080 	lui	v0,0xa080
a08039bc:	24433ef4 	addiu	v1,v0,16116
a08039c0:	3c02a087 	lui	v0,0xa087
a08039c4:	2442bdcc 	addiu	v0,v0,-16948
a08039c8:	ac430080 	sw	v1,128(v0)
a08039cc:	3c02a080 	lui	v0,0xa080
a08039d0:	244317fc 	addiu	v1,v0,6140
a08039d4:	3c02a087 	lui	v0,0xa087
a08039d8:	2442bdcc 	addiu	v0,v0,-16948
a08039dc:	ac430060 	sw	v1,96(v0)
a08039e0:	3c02a080 	lui	v0,0xa080
a08039e4:	24434100 	addiu	v1,v0,16640
a08039e8:	3c02a087 	lui	v0,0xa087
a08039ec:	2442bdcc 	addiu	v0,v0,-16948
a08039f0:	ac430084 	sw	v1,132(v0)
a08039f4:	3c02a080 	lui	v0,0xa080
a08039f8:	24434150 	addiu	v1,v0,16720
a08039fc:	3c02a087 	lui	v0,0xa087
a0803a00:	2442bdcc 	addiu	v0,v0,-16948
a0803a04:	ac430088 	sw	v1,136(v0)
a0803a08:	3c02a080 	lui	v0,0xa080
a0803a0c:	244341ec 	addiu	v1,v0,16876
a0803a10:	3c02a087 	lui	v0,0xa087
a0803a14:	2442bdcc 	addiu	v0,v0,-16948
a0803a18:	ac43008c 	sw	v1,140(v0)
a0803a1c:	3c02a080 	lui	v0,0xa080
a0803a20:	24434280 	addiu	v1,v0,17024
a0803a24:	3c02a087 	lui	v0,0xa087
a0803a28:	2442bdcc 	addiu	v0,v0,-16948
a0803a2c:	ac430090 	sw	v1,144(v0)
a0803a30:	3c02a080 	lui	v0,0xa080
a0803a34:	244342bc 	addiu	v1,v0,17084
a0803a38:	3c02a087 	lui	v0,0xa087
a0803a3c:	2442bdcc 	addiu	v0,v0,-16948
a0803a40:	ac430094 	sw	v1,148(v0)
a0803a44:	3c02a080 	lui	v0,0xa080
a0803a48:	24434334 	addiu	v1,v0,17204
a0803a4c:	3c02a087 	lui	v0,0xa087
a0803a50:	2442bdcc 	addiu	v0,v0,-16948
a0803a54:	ac430098 	sw	v1,152(v0)
a0803a58:	3c02a080 	lui	v0,0xa080
a0803a5c:	244343ac 	addiu	v1,v0,17324
a0803a60:	3c02a087 	lui	v0,0xa087
a0803a64:	2442bdcc 	addiu	v0,v0,-16948
a0803a68:	ac43009c 	sw	v1,156(v0)
a0803a6c:	3c02a080 	lui	v0,0xa080
a0803a70:	24433ff0 	addiu	v1,v0,16368
a0803a74:	3c02a087 	lui	v0,0xa087
a0803a78:	2442bdcc 	addiu	v0,v0,-16948
a0803a7c:	ac4300a0 	sw	v1,160(v0)
a0803a80:	3c02a080 	lui	v0,0xa080
a0803a84:	2443404c 	addiu	v1,v0,16460
a0803a88:	3c02a087 	lui	v0,0xa087
a0803a8c:	2442bdcc 	addiu	v0,v0,-16948
a0803a90:	ac4300a4 	sw	v1,164(v0)
a0803a94:	3c02a080 	lui	v0,0xa080
a0803a98:	24437d00 	addiu	v1,v0,32000
a0803a9c:	3c02a087 	lui	v0,0xa087
a0803aa0:	2442bdcc 	addiu	v0,v0,-16948
a0803aa4:	ac4300a8 	sw	v1,168(v0)
a0803aa8:	3c02a080 	lui	v0,0xa080
a0803aac:	24437e44 	addiu	v1,v0,32324
a0803ab0:	3c02a087 	lui	v0,0xa087
a0803ab4:	2442bdcc 	addiu	v0,v0,-16948
a0803ab8:	ac4300ac 	sw	v1,172(v0)
a0803abc:	3c02a087 	lui	v0,0xa087
a0803ac0:	2443bdcc 	addiu	v1,v0,-16948
a0803ac4:	3c02a080 	lui	v0,0xa080
a0803ac8:	24427e18 	addiu	v0,v0,32280
a0803acc:	ac6200b0 	sw	v0,176(v1)
a0803ad0:	3c02a080 	lui	v0,0xa080
a0803ad4:	244374d8 	addiu	v1,v0,29912
a0803ad8:	3c02a087 	lui	v0,0xa087
a0803adc:	2442bdcc 	addiu	v0,v0,-16948
a0803ae0:	ac4300b4 	sw	v1,180(v0)
a0803ae4:	3c02a080 	lui	v0,0xa080
a0803ae8:	24437f78 	addiu	v1,v0,32632
a0803aec:	3c02a087 	lui	v0,0xa087
a0803af0:	2442bdcc 	addiu	v0,v0,-16948
a0803af4:	ac4300b8 	sw	v1,184(v0)
a0803af8:	3c02a080 	lui	v0,0xa080
a0803afc:	24437070 	addiu	v1,v0,28784
a0803b00:	3c02a087 	lui	v0,0xa087
a0803b04:	2442bdcc 	addiu	v0,v0,-16948
a0803b08:	ac4300bc 	sw	v1,188(v0)
a0803b0c:	3c02a081 	lui	v0,0xa081
a0803b10:	2443083c 	addiu	v1,v0,2108
a0803b14:	3c02a087 	lui	v0,0xa087
a0803b18:	2442bdcc 	addiu	v0,v0,-16948
a0803b1c:	ac4300c0 	sw	v1,192(v0)
a0803b20:	3c02a080 	lui	v0,0xa080
a0803b24:	24432b10 	addiu	v1,v0,11024
a0803b28:	3c02a087 	lui	v0,0xa087
a0803b2c:	2442bdcc 	addiu	v0,v0,-16948
a0803b30:	ac4300cc 	sw	v1,204(v0)
a0803b34:	3c02a080 	lui	v0,0xa080
a0803b38:	244329bc 	addiu	v1,v0,10684
a0803b3c:	3c02a087 	lui	v0,0xa087
a0803b40:	2442bdcc 	addiu	v0,v0,-16948
a0803b44:	ac4300d0 	sw	v1,208(v0)
a0803b48:	3c02a080 	lui	v0,0xa080
a0803b4c:	24432874 	addiu	v1,v0,10356
a0803b50:	3c02a087 	lui	v0,0xa087
a0803b54:	2442bdcc 	addiu	v0,v0,-16948
a0803b58:	ac4300c4 	sw	v1,196(v0)
a0803b5c:	3c02a080 	lui	v0,0xa080
a0803b60:	24432c10 	addiu	v1,v0,11280
a0803b64:	3c02a087 	lui	v0,0xa087
a0803b68:	2442bdcc 	addiu	v0,v0,-16948
a0803b6c:	ac4300c8 	sw	v1,200(v0)
a0803b70:	3c02a080 	lui	v0,0xa080
a0803b74:	24433114 	addiu	v1,v0,12564
a0803b78:	3c02a087 	lui	v0,0xa087
a0803b7c:	2442bdcc 	addiu	v0,v0,-16948
a0803b80:	ac4300d4 	sw	v1,212(v0)
a0803b84:	3c02a081 	lui	v0,0xa081
a0803b88:	2443c5c8 	addiu	v1,v0,-14904
a0803b8c:	3c02a087 	lui	v0,0xa087
a0803b90:	2442bdcc 	addiu	v0,v0,-16948
a0803b94:	ac4300d8 	sw	v1,216(v0)
a0803b98:	3c02a081 	lui	v0,0xa081
a0803b9c:	2443c824 	addiu	v1,v0,-14300
a0803ba0:	3c02a087 	lui	v0,0xa087
a0803ba4:	2442bdcc 	addiu	v0,v0,-16948
a0803ba8:	ac4300dc 	sw	v1,220(v0)
a0803bac:	3c02a081 	lui	v0,0xa081
a0803bb0:	2443cc38 	addiu	v1,v0,-13256
a0803bb4:	3c02a087 	lui	v0,0xa087
a0803bb8:	2442bdcc 	addiu	v0,v0,-16948
a0803bbc:	ac4300e0 	sw	v1,224(v0)
a0803bc0:	3c02a081 	lui	v0,0xa081
a0803bc4:	2443ce2c 	addiu	v1,v0,-12756
a0803bc8:	3c02a087 	lui	v0,0xa087
a0803bcc:	2442bdcc 	addiu	v0,v0,-16948
a0803bd0:	ac4300e4 	sw	v1,228(v0)
a0803bd4:	3c02a081 	lui	v0,0xa081
a0803bd8:	2443b168 	addiu	v1,v0,-20120
a0803bdc:	3c02a087 	lui	v0,0xa087
a0803be0:	2442bdcc 	addiu	v0,v0,-16948
a0803be4:	ac4300ec 	sw	v1,236(v0)
a0803be8:	3c02a081 	lui	v0,0xa081
a0803bec:	2443b7ac 	addiu	v1,v0,-18516
a0803bf0:	3c02a087 	lui	v0,0xa087
a0803bf4:	2442bdcc 	addiu	v0,v0,-16948
a0803bf8:	ac4300f0 	sw	v1,240(v0)
a0803bfc:	3c02a081 	lui	v0,0xa081
a0803c00:	2443ba08 	addiu	v1,v0,-17912
a0803c04:	3c02a087 	lui	v0,0xa087
a0803c08:	2442bdcc 	addiu	v0,v0,-16948
a0803c0c:	ac4300f4 	sw	v1,244(v0)
a0803c10:	3c02a081 	lui	v0,0xa081
a0803c14:	2443bd88 	addiu	v1,v0,-17016
a0803c18:	3c02a087 	lui	v0,0xa087
a0803c1c:	2442bdcc 	addiu	v0,v0,-16948
a0803c20:	ac4300f8 	sw	v1,248(v0)
a0803c24:	3c02a081 	lui	v0,0xa081
a0803c28:	2443c124 	addiu	v1,v0,-16092
a0803c2c:	3c02a087 	lui	v0,0xa087
a0803c30:	2442bdcc 	addiu	v0,v0,-16948
a0803c34:	ac430100 	sw	v1,256(v0)
a0803c38:	3c02a081 	lui	v0,0xa081
a0803c3c:	2443bf5c 	addiu	v1,v0,-16548
a0803c40:	3c02a087 	lui	v0,0xa087
a0803c44:	2442bdcc 	addiu	v0,v0,-16948
a0803c48:	ac4300fc 	sw	v1,252(v0)
a0803c4c:	3c02a081 	lui	v0,0xa081
a0803c50:	2443ce98 	addiu	v1,v0,-12648
a0803c54:	3c02a087 	lui	v0,0xa087
a0803c58:	2442bdcc 	addiu	v0,v0,-16948
a0803c5c:	ac430104 	sw	v1,260(v0)
a0803c60:	3c02a081 	lui	v0,0xa081
a0803c64:	2443d120 	addiu	v1,v0,-12000
a0803c68:	3c02a087 	lui	v0,0xa087
a0803c6c:	2442bdcc 	addiu	v0,v0,-16948
a0803c70:	ac430108 	sw	v1,264(v0)
a0803c74:	3c02a081 	lui	v0,0xa081
a0803c78:	2443d19c 	addiu	v1,v0,-11876
a0803c7c:	3c02a087 	lui	v0,0xa087
a0803c80:	2442bdcc 	addiu	v0,v0,-16948
a0803c84:	ac43010c 	sw	v1,268(v0)
a0803c88:	3c02a081 	lui	v0,0xa081
a0803c8c:	2443d618 	addiu	v1,v0,-10728
a0803c90:	3c02a087 	lui	v0,0xa087
a0803c94:	2442bdcc 	addiu	v0,v0,-16948
a0803c98:	ac430110 	sw	v1,272(v0)
a0803c9c:	3c02a081 	lui	v0,0xa081
a0803ca0:	2443d7d0 	addiu	v1,v0,-10288
a0803ca4:	3c02a087 	lui	v0,0xa087
a0803ca8:	2442bdcc 	addiu	v0,v0,-16948
a0803cac:	ac430114 	sw	v1,276(v0)
a0803cb0:	3c02a081 	lui	v0,0xa081
a0803cb4:	2443d958 	addiu	v1,v0,-9896
a0803cb8:	3c02a087 	lui	v0,0xa087
a0803cbc:	2442bdcc 	addiu	v0,v0,-16948
a0803cc0:	ac430118 	sw	v1,280(v0)
a0803cc4:	03c0e821 	move	sp,s8
a0803cc8:	8fbe000c 	lw	s8,12(sp)
a0803ccc:	27bd0010 	addiu	sp,sp,16
a0803cd0:	03e00008 	jr	ra
a0803cd4:	00000000 	nop
	...

a0803ce0 <interrupt_helper>:
a0803ce0:	27bdfff8 	addiu	sp,sp,-8
a0803ce4:	afbe0004 	sw	s8,4(sp)
a0803ce8:	03a0f021 	move	s8,sp
a0803cec:	afc40008 	sw	a0,8(s8)
a0803cf0:	afc5000c 	sw	a1,12(s8)
a0803cf4:	03c0e821 	move	sp,s8
a0803cf8:	8fbe0004 	lw	s8,4(sp)
a0803cfc:	27bd0008 	addiu	sp,sp,8
a0803d00:	03e00008 	jr	ra
a0803d04:	00000000 	nop

a0803d08 <other_exception_handler>:
a0803d08:	27bdfff8 	addiu	sp,sp,-8
a0803d0c:	afbe0004 	sw	s8,4(sp)
a0803d10:	03a0f021 	move	s8,sp
a0803d14:	03c0e821 	move	sp,s8
a0803d18:	8fbe0004 	lw	s8,4(sp)
a0803d1c:	27bd0008 	addiu	sp,sp,8
a0803d20:	03e00008 	jr	ra
a0803d24:	00000000 	nop
	...

a0803d30 <spin_lock_init>:
a0803d30:	27bdfff8 	addiu	sp,sp,-8
a0803d34:	afbe0004 	sw	s8,4(sp)
a0803d38:	03a0f021 	move	s8,sp
a0803d3c:	afc40008 	sw	a0,8(s8)
a0803d40:	8fc20008 	lw	v0,8(s8)
a0803d44:	ac400000 	sw	zero,0(v0)
a0803d48:	03c0e821 	move	sp,s8
a0803d4c:	8fbe0004 	lw	s8,4(sp)
a0803d50:	27bd0008 	addiu	sp,sp,8
a0803d54:	03e00008 	jr	ra
a0803d58:	00000000 	nop

a0803d5c <spin_lock_acquire>:
a0803d5c:	27bdfff8 	addiu	sp,sp,-8
a0803d60:	afbe0004 	sw	s8,4(sp)
a0803d64:	03a0f021 	move	s8,sp
a0803d68:	afc40008 	sw	a0,8(s8)
a0803d6c:	8fc20008 	lw	v0,8(s8)
a0803d70:	8c430000 	lw	v1,0(v0)
a0803d74:	24020001 	li	v0,1
a0803d78:	1062fffc 	beq	v1,v0,a0803d6c <spin_lock_acquire+0x10>
a0803d7c:	00000000 	nop
a0803d80:	8fc30008 	lw	v1,8(s8)
a0803d84:	24020001 	li	v0,1
a0803d88:	ac620000 	sw	v0,0(v1)
a0803d8c:	03c0e821 	move	sp,s8
a0803d90:	8fbe0004 	lw	s8,4(sp)
a0803d94:	27bd0008 	addiu	sp,sp,8
a0803d98:	03e00008 	jr	ra
a0803d9c:	00000000 	nop

a0803da0 <spin_lock_release>:
a0803da0:	27bdfff8 	addiu	sp,sp,-8
a0803da4:	afbe0004 	sw	s8,4(sp)
a0803da8:	03a0f021 	move	s8,sp
a0803dac:	afc40008 	sw	a0,8(s8)
a0803db0:	8fc20008 	lw	v0,8(s8)
a0803db4:	ac400000 	sw	zero,0(v0)
a0803db8:	03c0e821 	move	sp,s8
a0803dbc:	8fbe0004 	lw	s8,4(sp)
a0803dc0:	27bd0008 	addiu	sp,sp,8
a0803dc4:	03e00008 	jr	ra
a0803dc8:	00000000 	nop

a0803dcc <do_mutex_lock_init>:
a0803dcc:	27bdffe8 	addiu	sp,sp,-24
a0803dd0:	afbf0014 	sw	ra,20(sp)
a0803dd4:	afbe0010 	sw	s8,16(sp)
a0803dd8:	03a0f021 	move	s8,sp
a0803ddc:	afc40018 	sw	a0,24(s8)
a0803de0:	8fc20018 	lw	v0,24(s8)
a0803de4:	ac400008 	sw	zero,8(v0)
a0803de8:	8fc20018 	lw	v0,24(s8)
a0803dec:	00402021 	move	a0,v0
a0803df0:	0c20213c 	jal	a08084f0 <queue_init>
a0803df4:	00000000 	nop
a0803df8:	03c0e821 	move	sp,s8
a0803dfc:	8fbf0014 	lw	ra,20(sp)
a0803e00:	8fbe0010 	lw	s8,16(sp)
a0803e04:	27bd0018 	addiu	sp,sp,24
a0803e08:	03e00008 	jr	ra
a0803e0c:	00000000 	nop

a0803e10 <do_mutex_lock_acquire>:
a0803e10:	27bdffe0 	addiu	sp,sp,-32
a0803e14:	afbf001c 	sw	ra,28(sp)
a0803e18:	afbe0018 	sw	s8,24(sp)
a0803e1c:	03a0f021 	move	s8,sp
a0803e20:	afc40020 	sw	a0,32(s8)
a0803e24:	08200f8f 	j	a0803e3c <do_mutex_lock_acquire+0x2c>
a0803e28:	00000000 	nop
a0803e2c:	8fc20020 	lw	v0,32(s8)
a0803e30:	00402021 	move	a0,v0
a0803e34:	0c201bb7 	jal	a0806edc <do_block>
a0803e38:	00000000 	nop
a0803e3c:	8fc20020 	lw	v0,32(s8)
a0803e40:	8c430008 	lw	v1,8(v0)
a0803e44:	24020001 	li	v0,1
a0803e48:	1062fff8 	beq	v1,v0,a0803e2c <do_mutex_lock_acquire+0x1c>
a0803e4c:	00000000 	nop
a0803e50:	8fc30020 	lw	v1,32(s8)
a0803e54:	24020001 	li	v0,1
a0803e58:	ac620008 	sw	v0,8(v1)
a0803e5c:	afc00010 	sw	zero,16(s8)
a0803e60:	08200fa1 	j	a0803e84 <do_mutex_lock_acquire+0x74>
a0803e64:	00000000 	nop
a0803e68:	8fc20010 	lw	v0,16(s8)
a0803e6c:	24420001 	addiu	v0,v0,1
a0803e70:	afc20010 	sw	v0,16(s8)
a0803e74:	8fc20010 	lw	v0,16(s8)
a0803e78:	2842000a 	slti	v0,v0,10
a0803e7c:	10400017 	beqz	v0,a0803edc <do_mutex_lock_acquire+0xcc>
a0803e80:	00000000 	nop
a0803e84:	3c02a081 	lui	v0,0xa081
a0803e88:	8c437290 	lw	v1,29328(v0)
a0803e8c:	8fc20010 	lw	v0,16(s8)
a0803e90:	2442005a 	addiu	v0,v0,90
a0803e94:	00021080 	sll	v0,v0,0x2
a0803e98:	00621021 	addu	v0,v1,v0
a0803e9c:	8c420004 	lw	v0,4(v0)
a0803ea0:	1440fff1 	bnez	v0,a0803e68 <do_mutex_lock_acquire+0x58>
a0803ea4:	00000000 	nop
a0803ea8:	3c02a081 	lui	v0,0xa081
a0803eac:	8c437290 	lw	v1,29328(v0)
a0803eb0:	8fc20010 	lw	v0,16(s8)
a0803eb4:	2442005a 	addiu	v0,v0,90
a0803eb8:	00021080 	sll	v0,v0,0x2
a0803ebc:	00621021 	addu	v0,v1,v0
a0803ec0:	8fc30020 	lw	v1,32(s8)
a0803ec4:	ac430004 	sw	v1,4(v0)
a0803ec8:	3c02a081 	lui	v0,0xa081
a0803ecc:	8c437290 	lw	v1,29328(v0)
a0803ed0:	8c620194 	lw	v0,404(v1)
a0803ed4:	24420001 	addiu	v0,v0,1
a0803ed8:	ac620194 	sw	v0,404(v1)
a0803edc:	03c0e821 	move	sp,s8
a0803ee0:	8fbf001c 	lw	ra,28(sp)
a0803ee4:	8fbe0018 	lw	s8,24(sp)
a0803ee8:	27bd0020 	addiu	sp,sp,32
a0803eec:	03e00008 	jr	ra
a0803ef0:	00000000 	nop

a0803ef4 <do_mutex_lock_release>:
a0803ef4:	27bdffe0 	addiu	sp,sp,-32
a0803ef8:	afbf001c 	sw	ra,28(sp)
a0803efc:	afbe0018 	sw	s8,24(sp)
a0803f00:	03a0f021 	move	s8,sp
a0803f04:	afc40020 	sw	a0,32(s8)
a0803f08:	8fc20020 	lw	v0,32(s8)
a0803f0c:	8c430008 	lw	v1,8(v0)
a0803f10:	24020001 	li	v0,1
a0803f14:	14620030 	bne	v1,v0,a0803fd8 <do_mutex_lock_release+0xe4>
a0803f18:	00000000 	nop
a0803f1c:	8fc20020 	lw	v0,32(s8)
a0803f20:	ac400008 	sw	zero,8(v0)
a0803f24:	8fc20020 	lw	v0,32(s8)
a0803f28:	8c420000 	lw	v0,0(v0)
a0803f2c:	afc20014 	sw	v0,20(s8)
a0803f30:	08200fef 	j	a0803fbc <do_mutex_lock_release+0xc8>
a0803f34:	00000000 	nop
a0803f38:	afc00010 	sw	zero,16(s8)
a0803f3c:	08200fe3 	j	a0803f8c <do_mutex_lock_release+0x98>
a0803f40:	00000000 	nop
a0803f44:	8fc20010 	lw	v0,16(s8)
a0803f48:	24420001 	addiu	v0,v0,1
a0803f4c:	afc20010 	sw	v0,16(s8)
a0803f50:	8fc20010 	lw	v0,16(s8)
a0803f54:	2842000a 	slti	v0,v0,10
a0803f58:	10400015 	beqz	v0,a0803fb0 <do_mutex_lock_release+0xbc>
a0803f5c:	00000000 	nop
a0803f60:	8fc20010 	lw	v0,16(s8)
a0803f64:	8fc30014 	lw	v1,20(s8)
a0803f68:	2442005a 	addiu	v0,v0,90
a0803f6c:	00021080 	sll	v0,v0,0x2
a0803f70:	00621021 	addu	v0,v1,v0
a0803f74:	ac400004 	sw	zero,4(v0)
a0803f78:	8fc20014 	lw	v0,20(s8)
a0803f7c:	8c420194 	lw	v0,404(v0)
a0803f80:	2443ffff 	addiu	v1,v0,-1
a0803f84:	8fc20014 	lw	v0,20(s8)
a0803f88:	ac430194 	sw	v1,404(v0)
a0803f8c:	8fc20010 	lw	v0,16(s8)
a0803f90:	8fc30014 	lw	v1,20(s8)
a0803f94:	2442005a 	addiu	v0,v0,90
a0803f98:	00021080 	sll	v0,v0,0x2
a0803f9c:	00621021 	addu	v0,v1,v0
a0803fa0:	8c430004 	lw	v1,4(v0)
a0803fa4:	8fc20020 	lw	v0,32(s8)
a0803fa8:	1462ffe6 	bne	v1,v0,a0803f44 <do_mutex_lock_release+0x50>
a0803fac:	00000000 	nop
a0803fb0:	8fc20014 	lw	v0,20(s8)
a0803fb4:	8c420150 	lw	v0,336(v0)
a0803fb8:	afc20014 	sw	v0,20(s8)
a0803fbc:	8fc20014 	lw	v0,20(s8)
a0803fc0:	1440ffdd 	bnez	v0,a0803f38 <do_mutex_lock_release+0x44>
a0803fc4:	00000000 	nop
a0803fc8:	8fc20020 	lw	v0,32(s8)
a0803fcc:	00402021 	move	a0,v0
a0803fd0:	0c201c07 	jal	a080701c <do_unblock_all>
a0803fd4:	00000000 	nop
a0803fd8:	03c0e821 	move	sp,s8
a0803fdc:	8fbf001c 	lw	ra,28(sp)
a0803fe0:	8fbe0018 	lw	s8,24(sp)
a0803fe4:	27bd0020 	addiu	sp,sp,32
a0803fe8:	03e00008 	jr	ra
a0803fec:	00000000 	nop

a0803ff0 <do_barrier_init>:
a0803ff0:	27bdffe8 	addiu	sp,sp,-24
a0803ff4:	afbf0014 	sw	ra,20(sp)
a0803ff8:	afbe0010 	sw	s8,16(sp)
a0803ffc:	03a0f021 	move	s8,sp
a0804000:	afc40018 	sw	a0,24(s8)
a0804004:	afc5001c 	sw	a1,28(s8)
a0804008:	8fc30018 	lw	v1,24(s8)
a080400c:	8fc2001c 	lw	v0,28(s8)
a0804010:	ac620000 	sw	v0,0(v1)
a0804014:	8fc30018 	lw	v1,24(s8)
a0804018:	8fc2001c 	lw	v0,28(s8)
a080401c:	ac620004 	sw	v0,4(v1)
a0804020:	8fc20018 	lw	v0,24(s8)
a0804024:	24420008 	addiu	v0,v0,8
a0804028:	00402021 	move	a0,v0
a080402c:	0c20213c 	jal	a08084f0 <queue_init>
a0804030:	00000000 	nop
a0804034:	03c0e821 	move	sp,s8
a0804038:	8fbf0014 	lw	ra,20(sp)
a080403c:	8fbe0010 	lw	s8,16(sp)
a0804040:	27bd0018 	addiu	sp,sp,24
a0804044:	03e00008 	jr	ra
a0804048:	00000000 	nop

a080404c <do_barrier_wait>:
a080404c:	27bdffe8 	addiu	sp,sp,-24
a0804050:	afbf0014 	sw	ra,20(sp)
a0804054:	afbe0010 	sw	s8,16(sp)
a0804058:	03a0f021 	move	s8,sp
a080405c:	afc40018 	sw	a0,24(s8)
a0804060:	8fc20018 	lw	v0,24(s8)
a0804064:	8c430004 	lw	v1,4(v0)
a0804068:	24020001 	li	v0,1
a080406c:	1462000c 	bne	v1,v0,a08040a0 <do_barrier_wait+0x54>
a0804070:	00000000 	nop
a0804074:	8fc20018 	lw	v0,24(s8)
a0804078:	24420008 	addiu	v0,v0,8
a080407c:	00402021 	move	a0,v0
a0804080:	0c2021cf 	jal	a080873c <clear_waiting_queue>
a0804084:	00000000 	nop
a0804088:	8fc20018 	lw	v0,24(s8)
a080408c:	8c430000 	lw	v1,0(v0)
a0804090:	8fc20018 	lw	v0,24(s8)
a0804094:	ac430004 	sw	v1,4(v0)
a0804098:	0820103a 	j	a08040e8 <do_barrier_wait+0x9c>
a080409c:	00000000 	nop
a08040a0:	8fc20018 	lw	v0,24(s8)
a08040a4:	8c420004 	lw	v0,4(v0)
a08040a8:	2443ffff 	addiu	v1,v0,-1
a08040ac:	8fc20018 	lw	v0,24(s8)
a08040b0:	ac430004 	sw	v1,4(v0)
a08040b4:	3c02a081 	lui	v0,0xa081
a08040b8:	8c427290 	lw	v0,29328(v0)
a08040bc:	ac400158 	sw	zero,344(v0)
a08040c0:	8fc20018 	lw	v0,24(s8)
a08040c4:	24430008 	addiu	v1,v0,8
a08040c8:	3c02a081 	lui	v0,0xa081
a08040cc:	8c427290 	lw	v0,29328(v0)
a08040d0:	00602021 	move	a0,v1
a08040d4:	00402821 	move	a1,v0
a08040d8:	0c20215e 	jal	a0808578 <queue_push>
a08040dc:	00000000 	nop
a08040e0:	0c2000b5 	jal	a08002d4 <do_scheduler>
a08040e4:	00000000 	nop
a08040e8:	03c0e821 	move	sp,s8
a08040ec:	8fbf0014 	lw	ra,20(sp)
a08040f0:	8fbe0010 	lw	s8,16(sp)
a08040f4:	27bd0018 	addiu	sp,sp,24
a08040f8:	03e00008 	jr	ra
a08040fc:	00000000 	nop

a0804100 <do_semaphore_init>:
a0804100:	27bdffe8 	addiu	sp,sp,-24
a0804104:	afbf0014 	sw	ra,20(sp)
a0804108:	afbe0010 	sw	s8,16(sp)
a080410c:	03a0f021 	move	s8,sp
a0804110:	afc40018 	sw	a0,24(s8)
a0804114:	afc5001c 	sw	a1,28(s8)
a0804118:	8fc30018 	lw	v1,24(s8)
a080411c:	8fc2001c 	lw	v0,28(s8)
a0804120:	ac620000 	sw	v0,0(v1)
a0804124:	8fc20018 	lw	v0,24(s8)
a0804128:	24420004 	addiu	v0,v0,4
a080412c:	00402021 	move	a0,v0
a0804130:	0c20213c 	jal	a08084f0 <queue_init>
a0804134:	00000000 	nop
a0804138:	03c0e821 	move	sp,s8
a080413c:	8fbf0014 	lw	ra,20(sp)
a0804140:	8fbe0010 	lw	s8,16(sp)
a0804144:	27bd0018 	addiu	sp,sp,24
a0804148:	03e00008 	jr	ra
a080414c:	00000000 	nop

a0804150 <do_semaphore_up>:
a0804150:	27bdffe0 	addiu	sp,sp,-32
a0804154:	afbf001c 	sw	ra,28(sp)
a0804158:	afbe0018 	sw	s8,24(sp)
a080415c:	03a0f021 	move	s8,sp
a0804160:	afc40020 	sw	a0,32(s8)
a0804164:	8fc20020 	lw	v0,32(s8)
a0804168:	24420004 	addiu	v0,v0,4
a080416c:	00402021 	move	a0,v0
a0804170:	0c20214b 	jal	a080852c <queue_is_empty>
a0804174:	00000000 	nop
a0804178:	14400011 	bnez	v0,a08041c0 <do_semaphore_up+0x70>
a080417c:	00000000 	nop
a0804180:	8fc20020 	lw	v0,32(s8)
a0804184:	24420004 	addiu	v0,v0,4
a0804188:	00402021 	move	a0,v0
a080418c:	0c202188 	jal	a0808620 <queue_dequeue>
a0804190:	00000000 	nop
a0804194:	afc20010 	sw	v0,16(s8)
a0804198:	8fc30010 	lw	v1,16(s8)
a080419c:	24020002 	li	v0,2
a08041a0:	ac620158 	sw	v0,344(v1)
a08041a4:	3c02a081 	lui	v0,0xa081
a08041a8:	24447abc 	addiu	a0,v0,31420
a08041ac:	8fc50010 	lw	a1,16(s8)
a08041b0:	0c20215e 	jal	a0808578 <queue_push>
a08041b4:	00000000 	nop
a08041b8:	08201075 	j	a08041d4 <do_semaphore_up+0x84>
a08041bc:	00000000 	nop
a08041c0:	8fc20020 	lw	v0,32(s8)
a08041c4:	8c420000 	lw	v0,0(v0)
a08041c8:	24430001 	addiu	v1,v0,1
a08041cc:	8fc20020 	lw	v0,32(s8)
a08041d0:	ac430000 	sw	v1,0(v0)
a08041d4:	03c0e821 	move	sp,s8
a08041d8:	8fbf001c 	lw	ra,28(sp)
a08041dc:	8fbe0018 	lw	s8,24(sp)
a08041e0:	27bd0020 	addiu	sp,sp,32
a08041e4:	03e00008 	jr	ra
a08041e8:	00000000 	nop

a08041ec <do_semaphore_down>:
a08041ec:	27bdffe8 	addiu	sp,sp,-24
a08041f0:	afbf0014 	sw	ra,20(sp)
a08041f4:	afbe0010 	sw	s8,16(sp)
a08041f8:	03a0f021 	move	s8,sp
a08041fc:	afc40018 	sw	a0,24(s8)
a0804200:	8fc20018 	lw	v0,24(s8)
a0804204:	8c420000 	lw	v0,0(v0)
a0804208:	14400010 	bnez	v0,a080424c <do_semaphore_down+0x60>
a080420c:	00000000 	nop
a0804210:	3c02a081 	lui	v0,0xa081
a0804214:	8c427290 	lw	v0,29328(v0)
a0804218:	ac400158 	sw	zero,344(v0)
a080421c:	8fc20018 	lw	v0,24(s8)
a0804220:	24430004 	addiu	v1,v0,4
a0804224:	3c02a081 	lui	v0,0xa081
a0804228:	8c427290 	lw	v0,29328(v0)
a080422c:	00602021 	move	a0,v1
a0804230:	00402821 	move	a1,v0
a0804234:	0c20215e 	jal	a0808578 <queue_push>
a0804238:	00000000 	nop
a080423c:	0c2000b5 	jal	a08002d4 <do_scheduler>
a0804240:	00000000 	nop
a0804244:	08201098 	j	a0804260 <do_semaphore_down+0x74>
a0804248:	00000000 	nop
a080424c:	8fc20018 	lw	v0,24(s8)
a0804250:	8c420000 	lw	v0,0(v0)
a0804254:	2443ffff 	addiu	v1,v0,-1
a0804258:	8fc20018 	lw	v0,24(s8)
a080425c:	ac430000 	sw	v1,0(v0)
a0804260:	03c0e821 	move	sp,s8
a0804264:	8fbf0014 	lw	ra,20(sp)
a0804268:	8fbe0010 	lw	s8,16(sp)
a080426c:	27bd0018 	addiu	sp,sp,24
a0804270:	03e00008 	jr	ra
a0804274:	00000000 	nop
	...

a0804280 <do_condition_init>:
a0804280:	27bdffe8 	addiu	sp,sp,-24
a0804284:	afbf0014 	sw	ra,20(sp)
a0804288:	afbe0010 	sw	s8,16(sp)
a080428c:	03a0f021 	move	s8,sp
a0804290:	afc40018 	sw	a0,24(s8)
a0804294:	8fc20018 	lw	v0,24(s8)
a0804298:	00402021 	move	a0,v0
a080429c:	0c20213c 	jal	a08084f0 <queue_init>
a08042a0:	00000000 	nop
a08042a4:	03c0e821 	move	sp,s8
a08042a8:	8fbf0014 	lw	ra,20(sp)
a08042ac:	8fbe0010 	lw	s8,16(sp)
a08042b0:	27bd0018 	addiu	sp,sp,24
a08042b4:	03e00008 	jr	ra
a08042b8:	00000000 	nop

a08042bc <do_condition_wait>:
a08042bc:	27bdffe8 	addiu	sp,sp,-24
a08042c0:	afbf0014 	sw	ra,20(sp)
a08042c4:	afbe0010 	sw	s8,16(sp)
a08042c8:	03a0f021 	move	s8,sp
a08042cc:	afc40018 	sw	a0,24(s8)
a08042d0:	afc5001c 	sw	a1,28(s8)
a08042d4:	8fc3001c 	lw	v1,28(s8)
a08042d8:	3c02a081 	lui	v0,0xa081
a08042dc:	8c427290 	lw	v0,29328(v0)
a08042e0:	00602021 	move	a0,v1
a08042e4:	00402821 	move	a1,v0
a08042e8:	0c20215e 	jal	a0808578 <queue_push>
a08042ec:	00000000 	nop
a08042f0:	3c02a081 	lui	v0,0xa081
a08042f4:	8c427290 	lw	v0,29328(v0)
a08042f8:	ac400158 	sw	zero,344(v0)
a08042fc:	8fc40018 	lw	a0,24(s8)
a0804300:	0c200fbd 	jal	a0803ef4 <do_mutex_lock_release>
a0804304:	00000000 	nop
a0804308:	0c2000b5 	jal	a08002d4 <do_scheduler>
a080430c:	00000000 	nop
a0804310:	8fc40018 	lw	a0,24(s8)
a0804314:	0c200f84 	jal	a0803e10 <do_mutex_lock_acquire>
a0804318:	00000000 	nop
a080431c:	03c0e821 	move	sp,s8
a0804320:	8fbf0014 	lw	ra,20(sp)
a0804324:	8fbe0010 	lw	s8,16(sp)
a0804328:	27bd0018 	addiu	sp,sp,24
a080432c:	03e00008 	jr	ra
a0804330:	00000000 	nop

a0804334 <do_condition_signal>:
a0804334:	27bdffe0 	addiu	sp,sp,-32
a0804338:	afbf001c 	sw	ra,28(sp)
a080433c:	afbe0018 	sw	s8,24(sp)
a0804340:	03a0f021 	move	s8,sp
a0804344:	afc40020 	sw	a0,32(s8)
a0804348:	8fc20020 	lw	v0,32(s8)
a080434c:	00402021 	move	a0,v0
a0804350:	0c20214b 	jal	a080852c <queue_is_empty>
a0804354:	00000000 	nop
a0804358:	1440000e 	bnez	v0,a0804394 <do_condition_signal+0x60>
a080435c:	00000000 	nop
a0804360:	8fc20020 	lw	v0,32(s8)
a0804364:	00402021 	move	a0,v0
a0804368:	0c202188 	jal	a0808620 <queue_dequeue>
a080436c:	00000000 	nop
a0804370:	afc20010 	sw	v0,16(s8)
a0804374:	8fc30010 	lw	v1,16(s8)
a0804378:	24020002 	li	v0,2
a080437c:	ac620158 	sw	v0,344(v1)
a0804380:	3c02a081 	lui	v0,0xa081
a0804384:	24447abc 	addiu	a0,v0,31420
a0804388:	8fc50010 	lw	a1,16(s8)
a080438c:	0c20215e 	jal	a0808578 <queue_push>
a0804390:	00000000 	nop
a0804394:	03c0e821 	move	sp,s8
a0804398:	8fbf001c 	lw	ra,28(sp)
a080439c:	8fbe0018 	lw	s8,24(sp)
a08043a0:	27bd0020 	addiu	sp,sp,32
a08043a4:	03e00008 	jr	ra
a08043a8:	00000000 	nop

a08043ac <do_condition_broadcast>:
a08043ac:	27bdffe0 	addiu	sp,sp,-32
a08043b0:	afbf001c 	sw	ra,28(sp)
a08043b4:	afbe0018 	sw	s8,24(sp)
a08043b8:	03a0f021 	move	s8,sp
a08043bc:	afc40020 	sw	a0,32(s8)
a08043c0:	082010ff 	j	a08043fc <do_condition_broadcast+0x50>
a08043c4:	00000000 	nop
a08043c8:	8fc20020 	lw	v0,32(s8)
a08043cc:	00402021 	move	a0,v0
a08043d0:	0c202188 	jal	a0808620 <queue_dequeue>
a08043d4:	00000000 	nop
a08043d8:	afc20010 	sw	v0,16(s8)
a08043dc:	8fc30010 	lw	v1,16(s8)
a08043e0:	24020002 	li	v0,2
a08043e4:	ac620158 	sw	v0,344(v1)
a08043e8:	3c02a081 	lui	v0,0xa081
a08043ec:	24447abc 	addiu	a0,v0,31420
a08043f0:	8fc50010 	lw	a1,16(s8)
a08043f4:	0c20215e 	jal	a0808578 <queue_push>
a08043f8:	00000000 	nop
a08043fc:	8fc20020 	lw	v0,32(s8)
a0804400:	00402021 	move	a0,v0
a0804404:	0c20214b 	jal	a080852c <queue_is_empty>
a0804408:	00000000 	nop
a080440c:	1040ffee 	beqz	v0,a08043c8 <do_condition_broadcast+0x1c>
a0804410:	00000000 	nop
a0804414:	03c0e821 	move	sp,s8
a0804418:	8fbf001c 	lw	ra,28(sp)
a080441c:	8fbe0018 	lw	s8,24(sp)
a0804420:	27bd0020 	addiu	sp,sp,32
a0804424:	03e00008 	jr	ra
a0804428:	00000000 	nop
a080442c:	00000000 	nop

a0804430 <va_2_pa>:
a0804430:	27bdfff8 	addiu	sp,sp,-8
a0804434:	afbe0004 	sw	s8,4(sp)
a0804438:	03a0f021 	move	s8,sp
a080443c:	afc40008 	sw	a0,8(s8)
a0804440:	8fc30008 	lw	v1,8(s8)
a0804444:	3c026000 	lui	v0,0x6000
a0804448:	00621021 	addu	v0,v1,v0
a080444c:	03c0e821 	move	sp,s8
a0804450:	8fbe0004 	lw	s8,4(sp)
a0804454:	27bd0008 	addiu	sp,sp,8
a0804458:	03e00008 	jr	ra
a080445c:	00000000 	nop

a0804460 <pa_2_va>:
a0804460:	27bdfff8 	addiu	sp,sp,-8
a0804464:	afbe0004 	sw	s8,4(sp)
a0804468:	03a0f021 	move	s8,sp
a080446c:	afc40008 	sw	a0,8(s8)
a0804470:	8fc30008 	lw	v1,8(s8)
a0804474:	3c02a000 	lui	v0,0xa000
a0804478:	00621021 	addu	v0,v1,v0
a080447c:	03c0e821 	move	sp,s8
a0804480:	8fbe0004 	lw	s8,4(sp)
a0804484:	27bd0008 	addiu	sp,sp,8
a0804488:	03e00008 	jr	ra
a080448c:	00000000 	nop

a0804490 <page_frame_vaddr>:
a0804490:	27bdfff8 	addiu	sp,sp,-8
a0804494:	afbe0004 	sw	s8,4(sp)
a0804498:	03a0f021 	move	s8,sp
a080449c:	afc40008 	sw	a0,8(s8)
a08044a0:	8fc30008 	lw	v1,8(s8)
a08044a4:	3c02000a 	lui	v0,0xa
a08044a8:	34421000 	ori	v0,v0,0x1000
a08044ac:	00621021 	addu	v0,v1,v0
a08044b0:	00021300 	sll	v0,v0,0xc
a08044b4:	03c0e821 	move	sp,s8
a08044b8:	8fbe0004 	lw	s8,4(sp)
a08044bc:	27bd0008 	addiu	sp,sp,8
a08044c0:	03e00008 	jr	ra
a08044c4:	00000000 	nop

a08044c8 <page_frame_paddr>:
a08044c8:	27bdffe8 	addiu	sp,sp,-24
a08044cc:	afbf0014 	sw	ra,20(sp)
a08044d0:	afbe0010 	sw	s8,16(sp)
a08044d4:	03a0f021 	move	s8,sp
a08044d8:	afc40018 	sw	a0,24(s8)
a08044dc:	8fc40018 	lw	a0,24(s8)
a08044e0:	0c201124 	jal	a0804490 <page_frame_vaddr>
a08044e4:	00000000 	nop
a08044e8:	00402021 	move	a0,v0
a08044ec:	0c20110c 	jal	a0804430 <va_2_pa>
a08044f0:	00000000 	nop
a08044f4:	03c0e821 	move	sp,s8
a08044f8:	8fbf0014 	lw	ra,20(sp)
a08044fc:	8fbe0010 	lw	s8,16(sp)
a0804500:	27bd0018 	addiu	sp,sp,24
a0804504:	03e00008 	jr	ra
a0804508:	00000000 	nop

a080450c <get_swap_free_index>:
a080450c:	27bdfff0 	addiu	sp,sp,-16
a0804510:	afbe000c 	sw	s8,12(sp)
a0804514:	03a0f021 	move	s8,sp
a0804518:	3c02a082 	lui	v0,0xa082
a080451c:	8c42a088 	lw	v0,-24440(v0)
a0804520:	afc20000 	sw	v0,0(s8)
a0804524:	0820114c 	j	a0804530 <get_swap_free_index+0x24>
a0804528:	00000000 	nop
a080452c:	afc00000 	sw	zero,0(s8)
a0804530:	8fc20000 	lw	v0,0(s8)
a0804534:	1c40000c 	bgtz	v0,a0804568 <get_swap_free_index+0x5c>
a0804538:	00000000 	nop
a080453c:	8fc20000 	lw	v0,0(s8)
a0804540:	24420800 	addiu	v0,v0,2048
a0804544:	3c04a082 	lui	a0,0xa082
a0804548:	00021900 	sll	v1,v0,0x4
a080454c:	00031080 	sll	v0,v1,0x2
a0804550:	00431023 	subu	v0,v0,v1
a0804554:	2483a090 	addiu	v1,a0,-24432
a0804558:	00431021 	addu	v0,v0,v1
a080455c:	8c420018 	lw	v0,24(v0)
a0804560:	1040fff2 	beqz	v0,a080452c <get_swap_free_index+0x20>
a0804564:	00000000 	nop
a0804568:	3c03a082 	lui	v1,0xa082
a080456c:	8fc20000 	lw	v0,0(s8)
a0804570:	ac62a088 	sw	v0,-24440(v1)
a0804574:	8fc20000 	lw	v0,0(s8)
a0804578:	03c0e821 	move	sp,s8
a080457c:	8fbe000c 	lw	s8,12(sp)
a0804580:	27bd0010 	addiu	sp,sp,16
a0804584:	03e00008 	jr	ra
a0804588:	00000000 	nop

a080458c <get_swap_in_index>:
a080458c:	27bdffe0 	addiu	sp,sp,-32
a0804590:	afbf001c 	sw	ra,28(sp)
a0804594:	afbe0018 	sw	s8,24(sp)
a0804598:	03a0f021 	move	s8,sp
a080459c:	afc40020 	sw	a0,32(s8)
a08045a0:	8fc20020 	lw	v0,32(s8)
a08045a4:	14400007 	bnez	v0,a08045c4 <get_swap_in_index+0x38>
a08045a8:	00000000 	nop
a08045ac:	0c201143 	jal	a080450c <get_swap_free_index>
a08045b0:	00000000 	nop
a08045b4:	afc20010 	sw	v0,16(s8)
a08045b8:	8fc20010 	lw	v0,16(s8)
a08045bc:	08201171 	j	a08045c4 <get_swap_in_index+0x38>
a08045c0:	00000000 	nop
a08045c4:	03c0e821 	move	sp,s8
a08045c8:	8fbf001c 	lw	ra,28(sp)
a08045cc:	8fbe0018 	lw	s8,24(sp)
a08045d0:	27bd0020 	addiu	sp,sp,32
a08045d4:	03e00008 	jr	ra
a08045d8:	00000000 	nop

a08045dc <do_page_swap>:
a08045dc:	27bdfff8 	addiu	sp,sp,-8
a08045e0:	afbe0004 	sw	s8,4(sp)
a08045e4:	03a0f021 	move	s8,sp
a08045e8:	afc40008 	sw	a0,8(s8)
a08045ec:	afc5000c 	sw	a1,12(s8)
a08045f0:	03c0e821 	move	sp,s8
a08045f4:	8fbe0004 	lw	s8,4(sp)
a08045f8:	27bd0008 	addiu	sp,sp,8
a08045fc:	03e00008 	jr	ra
a0804600:	00000000 	nop

a0804604 <swap_process>:
a0804604:	27bdfff8 	addiu	sp,sp,-8
a0804608:	afbe0004 	sw	s8,4(sp)
a080460c:	03a0f021 	move	s8,sp
a0804610:	03c0e821 	move	sp,s8
a0804614:	8fbe0004 	lw	s8,4(sp)
a0804618:	27bd0008 	addiu	sp,sp,8
a080461c:	03e00008 	jr	ra
a0804620:	00000000 	nop

a0804624 <page_alloc>:
a0804624:	27bdff98 	addiu	sp,sp,-104
a0804628:	afbf0064 	sw	ra,100(sp)
a080462c:	afbe0060 	sw	s8,96(sp)
a0804630:	afb0005c 	sw	s0,92(sp)
a0804634:	03a0f021 	move	s8,sp
a0804638:	afc40068 	sw	a0,104(s8)
a080463c:	afc5006c 	sw	a1,108(s8)
a0804640:	afc60070 	sw	a2,112(s8)
a0804644:	afc0003c 	sw	zero,60(s8)
a0804648:	3c02a082 	lui	v0,0xa082
a080464c:	8c42a084 	lw	v0,-24444(v0)
a0804650:	afc20038 	sw	v0,56(s8)
a0804654:	082011b6 	j	a08046d8 <page_alloc+0xb4>
a0804658:	00000000 	nop
a080465c:	8fc20038 	lw	v0,56(s8)
a0804660:	3c04a082 	lui	a0,0xa082
a0804664:	00021900 	sll	v1,v0,0x4
a0804668:	00031080 	sll	v0,v1,0x2
a080466c:	00431023 	subu	v0,v0,v1
a0804670:	2483a090 	addiu	v1,a0,-24432
a0804674:	00431021 	addu	v0,v0,v1
a0804678:	8c430018 	lw	v1,24(v0)
a080467c:	24020001 	li	v0,1
a0804680:	14620012 	bne	v1,v0,a08046cc <page_alloc+0xa8>
a0804684:	00000000 	nop
a0804688:	24020001 	li	v0,1
a080468c:	afc2003c 	sw	v0,60(s8)
a0804690:	8fc20038 	lw	v0,56(s8)
a0804694:	afc20048 	sw	v0,72(s8)
a0804698:	3c02a082 	lui	v0,0xa082
a080469c:	8c42a084 	lw	v0,-24444(v0)
a08046a0:	24430001 	addiu	v1,v0,1
a08046a4:	000317c3 	sra	v0,v1,0x1f
a08046a8:	00022542 	srl	a0,v0,0x15
a08046ac:	00641021 	addu	v0,v1,a0
a08046b0:	304207ff 	andi	v0,v0,0x7ff
a08046b4:	00441023 	subu	v0,v0,a0
a08046b8:	00401821 	move	v1,v0
a08046bc:	3c02a082 	lui	v0,0xa082
a08046c0:	ac43a084 	sw	v1,-24444(v0)
a08046c4:	082011ba 	j	a08046e8 <page_alloc+0xc4>
a08046c8:	00000000 	nop
a08046cc:	8fc20038 	lw	v0,56(s8)
a08046d0:	24420001 	addiu	v0,v0,1
a08046d4:	afc20038 	sw	v0,56(s8)
a08046d8:	8fc20038 	lw	v0,56(s8)
a08046dc:	28420800 	slti	v0,v0,2048
a08046e0:	1440ffde 	bnez	v0,a080465c <page_alloc+0x38>
a08046e4:	00000000 	nop
a08046e8:	8fc2003c 	lw	v0,60(s8)
a08046ec:	144001f6 	bnez	v0,a0804ec8 <page_alloc+0x8a4>
a08046f0:	00000000 	nop
a08046f4:	082011e1 	j	a0804784 <page_alloc+0x160>
a08046f8:	00000000 	nop
a08046fc:	3c02a082 	lui	v0,0xa082
a0804700:	8c43a08c 	lw	v1,-24436(v0)
a0804704:	3c02a082 	lui	v0,0xa082
a0804708:	2444a090 	addiu	a0,v0,-24432
a080470c:	00601021 	move	v0,v1
a0804710:	00021900 	sll	v1,v0,0x4
a0804714:	00031080 	sll	v0,v1,0x2
a0804718:	00431023 	subu	v0,v0,v1
a080471c:	00821021 	addu	v0,a0,v0
a0804720:	8c43002c 	lw	v1,44(v0)
a0804724:	24020001 	li	v0,1
a0804728:	1462000b 	bne	v1,v0,a0804758 <page_alloc+0x134>
a080472c:	00000000 	nop
a0804730:	3c02a082 	lui	v0,0xa082
a0804734:	8c43a08c 	lw	v1,-24436(v0)
a0804738:	3c02a082 	lui	v0,0xa082
a080473c:	2444a090 	addiu	a0,v0,-24432
a0804740:	00601021 	move	v0,v1
a0804744:	00021900 	sll	v1,v0,0x4
a0804748:	00031080 	sll	v0,v1,0x2
a080474c:	00431023 	subu	v0,v0,v1
a0804750:	00821021 	addu	v0,a0,v0
a0804754:	ac40002c 	sw	zero,44(v0)
a0804758:	3c02a082 	lui	v0,0xa082
a080475c:	8c42a08c 	lw	v0,-24436(v0)
a0804760:	24430001 	addiu	v1,v0,1
a0804764:	000317c3 	sra	v0,v1,0x1f
a0804768:	00022542 	srl	a0,v0,0x15
a080476c:	00641021 	addu	v0,v1,a0
a0804770:	304207ff 	andi	v0,v0,0x7ff
a0804774:	00441023 	subu	v0,v0,a0
a0804778:	00401821 	move	v1,v0
a080477c:	3c02a082 	lui	v0,0xa082
a0804780:	ac43a08c 	sw	v1,-24436(v0)
a0804784:	3c02a082 	lui	v0,0xa082
a0804788:	8c42a08c 	lw	v0,-24436(v0)
a080478c:	3c04a082 	lui	a0,0xa082
a0804790:	00021900 	sll	v1,v0,0x4
a0804794:	00031080 	sll	v0,v1,0x2
a0804798:	00431023 	subu	v0,v0,v1
a080479c:	2483a090 	addiu	v1,a0,-24432
a08047a0:	00431021 	addu	v0,v0,v1
a08047a4:	8c430020 	lw	v1,32(v0)
a08047a8:	24020001 	li	v0,1
a08047ac:	1062ffd3 	beq	v1,v0,a08046fc <page_alloc+0xd8>
a08047b0:	00000000 	nop
a08047b4:	3c02a082 	lui	v0,0xa082
a08047b8:	8c43a08c 	lw	v1,-24436(v0)
a08047bc:	3c02a082 	lui	v0,0xa082
a08047c0:	2444a090 	addiu	a0,v0,-24432
a08047c4:	00601021 	move	v0,v1
a08047c8:	00021900 	sll	v1,v0,0x4
a08047cc:	00031080 	sll	v0,v1,0x2
a08047d0:	00431023 	subu	v0,v0,v1
a08047d4:	00821021 	addu	v0,a0,v0
a08047d8:	8c43002c 	lw	v1,44(v0)
a08047dc:	24020001 	li	v0,1
a08047e0:	1062ffc6 	beq	v1,v0,a08046fc <page_alloc+0xd8>
a08047e4:	00000000 	nop
a08047e8:	3c02a082 	lui	v0,0xa082
a08047ec:	8c42a08c 	lw	v0,-24436(v0)
a08047f0:	afc20044 	sw	v0,68(s8)
a08047f4:	8fc4006c 	lw	a0,108(s8)
a08047f8:	0c201163 	jal	a080458c <get_swap_in_index>
a08047fc:	00000000 	nop
a0804800:	24420800 	addiu	v0,v0,2048
a0804804:	afc20040 	sw	v0,64(s8)
a0804808:	8fc2006c 	lw	v0,108(s8)
a080480c:	144000c5 	bnez	v0,a0804b24 <page_alloc+0x500>
a0804810:	00000000 	nop
a0804814:	8fc30070 	lw	v1,112(s8)
a0804818:	24020001 	li	v0,1
a080481c:	146200c1 	bne	v1,v0,a0804b24 <page_alloc+0x500>
a0804820:	00000000 	nop
a0804824:	8fc30044 	lw	v1,68(s8)
a0804828:	3c02a082 	lui	v0,0xa082
a080482c:	2444a090 	addiu	a0,v0,-24432
a0804830:	00601021 	move	v0,v1
a0804834:	00021900 	sll	v1,v0,0x4
a0804838:	00031080 	sll	v0,v1,0x2
a080483c:	00431023 	subu	v0,v0,v1
a0804840:	00821021 	addu	v0,a0,v0
a0804844:	24030001 	li	v1,1
a0804848:	ac430024 	sw	v1,36(v0)
a080484c:	8fc20044 	lw	v0,68(s8)
a0804850:	3c04a082 	lui	a0,0xa082
a0804854:	00021900 	sll	v1,v0,0x4
a0804858:	00031080 	sll	v0,v1,0x2
a080485c:	00431023 	subu	v0,v0,v1
a0804860:	2483a090 	addiu	v1,a0,-24432
a0804864:	00431821 	addu	v1,v0,v1
a0804868:	8fc20040 	lw	v0,64(s8)
a080486c:	ac620028 	sw	v0,40(v1)
a0804870:	8fc20040 	lw	v0,64(s8)
a0804874:	3c04a082 	lui	a0,0xa082
a0804878:	00021900 	sll	v1,v0,0x4
a080487c:	00031080 	sll	v0,v1,0x2
a0804880:	00431023 	subu	v0,v0,v1
a0804884:	2483a090 	addiu	v1,a0,-24432
a0804888:	00431821 	addu	v1,v0,v1
a080488c:	8fc20068 	lw	v0,104(s8)
a0804890:	ac620020 	sw	v0,32(v1)
a0804894:	8fd00040 	lw	s0,64(s8)
a0804898:	0c20037f 	jal	a0800dfc <get_cp0_badvaddr>
a080489c:	00000000 	nop
a08048a0:	00402821 	move	a1,v0
a08048a4:	3c02a082 	lui	v0,0xa082
a08048a8:	2444a090 	addiu	a0,v0,-24432
a08048ac:	02001021 	move	v0,s0
a08048b0:	00021900 	sll	v1,v0,0x4
a08048b4:	00031080 	sll	v0,v1,0x2
a08048b8:	00431023 	subu	v0,v0,v1
a08048bc:	00821021 	addu	v0,a0,v0
a08048c0:	ac450004 	sw	a1,4(v0)
a08048c4:	8fd00040 	lw	s0,64(s8)
a08048c8:	0c20037f 	jal	a0800dfc <get_cp0_badvaddr>
a08048cc:	00000000 	nop
a08048d0:	00022302 	srl	a0,v0,0xc
a08048d4:	3c05a082 	lui	a1,0xa082
a08048d8:	02001021 	move	v0,s0
a08048dc:	00021840 	sll	v1,v0,0x1
a08048e0:	00031080 	sll	v0,v1,0x2
a08048e4:	00431023 	subu	v0,v0,v1
a08048e8:	24420001 	addiu	v0,v0,1
a08048ec:	000218c0 	sll	v1,v0,0x3
a08048f0:	24a2a090 	addiu	v0,a1,-24432
a08048f4:	00621021 	addu	v0,v1,v0
a08048f8:	ac440000 	sw	a0,0(v0)
a08048fc:	8fc30040 	lw	v1,64(s8)
a0804900:	3c02a082 	lui	v0,0xa082
a0804904:	8c45a08c 	lw	a1,-24436(v0)
a0804908:	3c04a082 	lui	a0,0xa082
a080490c:	00601021 	move	v0,v1
a0804910:	00021040 	sll	v0,v0,0x1
a0804914:	00431021 	addu	v0,v0,v1
a0804918:	24420001 	addiu	v0,v0,1
a080491c:	2483a090 	addiu	v1,a0,-24432
a0804920:	00021100 	sll	v0,v0,0x4
a0804924:	00621021 	addu	v0,v1,v0
a0804928:	ac450004 	sw	a1,4(v0)
a080492c:	8fd00040 	lw	s0,64(s8)
a0804930:	3c02a082 	lui	v0,0xa082
a0804934:	8c42a08c 	lw	v0,-24436(v0)
a0804938:	00402021 	move	a0,v0
a080493c:	0c201132 	jal	a08044c8 <page_frame_paddr>
a0804940:	00000000 	nop
a0804944:	00402821 	move	a1,v0
a0804948:	3c04a082 	lui	a0,0xa082
a080494c:	02001021 	move	v0,s0
a0804950:	00021900 	sll	v1,v0,0x4
a0804954:	00031080 	sll	v0,v1,0x2
a0804958:	00431023 	subu	v0,v0,v1
a080495c:	2483a090 	addiu	v1,a0,-24432
a0804960:	00431021 	addu	v0,v0,v1
a0804964:	ac450000 	sw	a1,0(v0)
a0804968:	8fc60040 	lw	a2,64(s8)
a080496c:	8fc20040 	lw	v0,64(s8)
a0804970:	3c04a082 	lui	a0,0xa082
a0804974:	00021900 	sll	v1,v0,0x4
a0804978:	00031080 	sll	v0,v1,0x2
a080497c:	00431023 	subu	v0,v0,v1
a0804980:	2483a090 	addiu	v1,a0,-24432
a0804984:	00431021 	addu	v0,v0,v1
a0804988:	8c420000 	lw	v0,0(v0)
a080498c:	00022302 	srl	a0,v0,0xc
a0804990:	3c05a082 	lui	a1,0xa082
a0804994:	00c01021 	move	v0,a2
a0804998:	00021840 	sll	v1,v0,0x1
a080499c:	00031080 	sll	v0,v1,0x2
a08049a0:	00431023 	subu	v0,v0,v1
a08049a4:	24420001 	addiu	v0,v0,1
a08049a8:	24a3a090 	addiu	v1,a1,-24432
a08049ac:	000210c0 	sll	v0,v0,0x3
a08049b0:	00621021 	addu	v0,v1,v0
a08049b4:	ac440004 	sw	a0,4(v0)
a08049b8:	8fc30040 	lw	v1,64(s8)
a08049bc:	3c02a081 	lui	v0,0xa081
a08049c0:	8c427290 	lw	v0,29328(v0)
a08049c4:	8c440140 	lw	a0,320(v0)
a08049c8:	3c05a082 	lui	a1,0xa082
a08049cc:	00601021 	move	v0,v1
a08049d0:	00021040 	sll	v0,v0,0x1
a08049d4:	00431021 	addu	v0,v0,v1
a08049d8:	24420001 	addiu	v0,v0,1
a08049dc:	00021900 	sll	v1,v0,0x4
a08049e0:	24a2a090 	addiu	v0,a1,-24432
a08049e4:	00621021 	addu	v0,v1,v0
a08049e8:	ac440000 	sw	a0,0(v0)
a08049ec:	8fc20040 	lw	v0,64(s8)
a08049f0:	3c04a082 	lui	a0,0xa082
a08049f4:	00021900 	sll	v1,v0,0x4
a08049f8:	00031080 	sll	v0,v1,0x2
a08049fc:	00431023 	subu	v0,v0,v1
a0804a00:	2483a090 	addiu	v1,a0,-24432
a0804a04:	00431021 	addu	v0,v0,v1
a0804a08:	ac400018 	sw	zero,24(v0)
a0804a0c:	8fc30040 	lw	v1,64(s8)
a0804a10:	3c02a082 	lui	v0,0xa082
a0804a14:	2444a090 	addiu	a0,v0,-24432
a0804a18:	00601021 	move	v0,v1
a0804a1c:	00021900 	sll	v1,v0,0x4
a0804a20:	00031080 	sll	v0,v1,0x2
a0804a24:	00431023 	subu	v0,v0,v1
a0804a28:	00821021 	addu	v0,a0,v0
a0804a2c:	24030001 	li	v1,1
a0804a30:	ac43002c 	sw	v1,44(v0)
a0804a34:	8fc30040 	lw	v1,64(s8)
a0804a38:	3c02a082 	lui	v0,0xa082
a0804a3c:	2444a090 	addiu	a0,v0,-24432
a0804a40:	00601021 	move	v0,v1
a0804a44:	00021900 	sll	v1,v0,0x4
a0804a48:	00031080 	sll	v0,v1,0x2
a0804a4c:	00431023 	subu	v0,v0,v1
a0804a50:	00821021 	addu	v0,a0,v0
a0804a54:	ac400024 	sw	zero,36(v0)
a0804a58:	8fc30044 	lw	v1,68(s8)
a0804a5c:	3c04a082 	lui	a0,0xa082
a0804a60:	00601021 	move	v0,v1
a0804a64:	00021040 	sll	v0,v0,0x1
a0804a68:	00431021 	addu	v0,v0,v1
a0804a6c:	24420001 	addiu	v0,v0,1
a0804a70:	00021900 	sll	v1,v0,0x4
a0804a74:	2482a090 	addiu	v0,a0,-24432
a0804a78:	00621021 	addu	v0,v1,v0
a0804a7c:	8c420000 	lw	v0,0(v0)
a0804a80:	afc20034 	sw	v0,52(s8)
a0804a84:	8fc30044 	lw	v1,68(s8)
a0804a88:	3c02a082 	lui	v0,0xa082
a0804a8c:	2444a090 	addiu	a0,v0,-24432
a0804a90:	00601021 	move	v0,v1
a0804a94:	00021900 	sll	v1,v0,0x4
a0804a98:	00031080 	sll	v0,v1,0x2
a0804a9c:	00431023 	subu	v0,v0,v1
a0804aa0:	00821021 	addu	v0,a0,v0
a0804aa4:	8c430004 	lw	v1,4(v0)
a0804aa8:	2402e000 	li	v0,-8192
a0804aac:	00621024 	and	v0,v1,v0
a0804ab0:	afc20030 	sw	v0,48(s8)
a0804ab4:	8fc30040 	lw	v1,64(s8)
a0804ab8:	3c04a082 	lui	a0,0xa082
a0804abc:	00601021 	move	v0,v1
a0804ac0:	00021040 	sll	v0,v0,0x1
a0804ac4:	00431021 	addu	v0,v0,v1
a0804ac8:	24420001 	addiu	v0,v0,1
a0804acc:	00021900 	sll	v1,v0,0x4
a0804ad0:	2482a090 	addiu	v0,a0,-24432
a0804ad4:	00621021 	addu	v0,v1,v0
a0804ad8:	8c420000 	lw	v0,0(v0)
a0804adc:	afc2002c 	sw	v0,44(s8)
a0804ae0:	8fc30040 	lw	v1,64(s8)
a0804ae4:	3c02a082 	lui	v0,0xa082
a0804ae8:	2444a090 	addiu	a0,v0,-24432
a0804aec:	00601021 	move	v0,v1
a0804af0:	00021900 	sll	v1,v0,0x4
a0804af4:	00031080 	sll	v0,v1,0x2
a0804af8:	00431023 	subu	v0,v0,v1
a0804afc:	00821021 	addu	v0,a0,v0
a0804b00:	8c430004 	lw	v1,4(v0)
a0804b04:	2402e000 	li	v0,-8192
a0804b08:	00621024 	and	v0,v1,v0
a0804b0c:	afc20028 	sw	v0,40(s8)
a0804b10:	3c02a082 	lui	v0,0xa082
a0804b14:	8c42a070 	lw	v0,-24464(v0)
a0804b18:	afc20024 	sw	v0,36(s8)
a0804b1c:	08201395 	j	a0804e54 <page_alloc+0x830>
a0804b20:	00000000 	nop
a0804b24:	8fc3006c 	lw	v1,108(s8)
a0804b28:	24020001 	li	v0,1
a0804b2c:	14620005 	bne	v1,v0,a0804b44 <page_alloc+0x520>
a0804b30:	00000000 	nop
a0804b34:	8fc30070 	lw	v1,112(s8)
a0804b38:	24020001 	li	v0,1
a0804b3c:	106200c5 	beq	v1,v0,a0804e54 <page_alloc+0x830>
a0804b40:	00000000 	nop
a0804b44:	8fc2006c 	lw	v0,108(s8)
a0804b48:	144000c2 	bnez	v0,a0804e54 <page_alloc+0x830>
a0804b4c:	00000000 	nop
a0804b50:	8fc20070 	lw	v0,112(s8)
a0804b54:	144000bf 	bnez	v0,a0804e54 <page_alloc+0x830>
a0804b58:	00000000 	nop
a0804b5c:	8fc30044 	lw	v1,68(s8)
a0804b60:	3c02a082 	lui	v0,0xa082
a0804b64:	2444a090 	addiu	a0,v0,-24432
a0804b68:	00601021 	move	v0,v1
a0804b6c:	00021900 	sll	v1,v0,0x4
a0804b70:	00031080 	sll	v0,v1,0x2
a0804b74:	00431023 	subu	v0,v0,v1
a0804b78:	00821021 	addu	v0,a0,v0
a0804b7c:	24030001 	li	v1,1
a0804b80:	ac430024 	sw	v1,36(v0)
a0804b84:	8fc20044 	lw	v0,68(s8)
a0804b88:	3c04a082 	lui	a0,0xa082
a0804b8c:	00021900 	sll	v1,v0,0x4
a0804b90:	00031080 	sll	v0,v1,0x2
a0804b94:	00431023 	subu	v0,v0,v1
a0804b98:	2483a090 	addiu	v1,a0,-24432
a0804b9c:	00431821 	addu	v1,v0,v1
a0804ba0:	8fc20040 	lw	v0,64(s8)
a0804ba4:	ac620028 	sw	v0,40(v1)
a0804ba8:	8fc20040 	lw	v0,64(s8)
a0804bac:	3c04a082 	lui	a0,0xa082
a0804bb0:	00021900 	sll	v1,v0,0x4
a0804bb4:	00031080 	sll	v0,v1,0x2
a0804bb8:	00431023 	subu	v0,v0,v1
a0804bbc:	2483a090 	addiu	v1,a0,-24432
a0804bc0:	00431821 	addu	v1,v0,v1
a0804bc4:	8fc20068 	lw	v0,104(s8)
a0804bc8:	ac620020 	sw	v0,32(v1)
a0804bcc:	8fd00040 	lw	s0,64(s8)
a0804bd0:	0c20037f 	jal	a0800dfc <get_cp0_badvaddr>
a0804bd4:	00000000 	nop
a0804bd8:	00402821 	move	a1,v0
a0804bdc:	3c02a082 	lui	v0,0xa082
a0804be0:	2444a090 	addiu	a0,v0,-24432
a0804be4:	02001021 	move	v0,s0
a0804be8:	00021900 	sll	v1,v0,0x4
a0804bec:	00031080 	sll	v0,v1,0x2
a0804bf0:	00431023 	subu	v0,v0,v1
a0804bf4:	00821021 	addu	v0,a0,v0
a0804bf8:	ac450004 	sw	a1,4(v0)
a0804bfc:	8fd00040 	lw	s0,64(s8)
a0804c00:	0c20037f 	jal	a0800dfc <get_cp0_badvaddr>
a0804c04:	00000000 	nop
a0804c08:	00022302 	srl	a0,v0,0xc
a0804c0c:	3c05a082 	lui	a1,0xa082
a0804c10:	02001021 	move	v0,s0
a0804c14:	00021840 	sll	v1,v0,0x1
a0804c18:	00031080 	sll	v0,v1,0x2
a0804c1c:	00431023 	subu	v0,v0,v1
a0804c20:	24420001 	addiu	v0,v0,1
a0804c24:	000218c0 	sll	v1,v0,0x3
a0804c28:	24a2a090 	addiu	v0,a1,-24432
a0804c2c:	00621021 	addu	v0,v1,v0
a0804c30:	ac440000 	sw	a0,0(v0)
a0804c34:	8fc30040 	lw	v1,64(s8)
a0804c38:	3c02a082 	lui	v0,0xa082
a0804c3c:	8c45a08c 	lw	a1,-24436(v0)
a0804c40:	3c04a082 	lui	a0,0xa082
a0804c44:	00601021 	move	v0,v1
a0804c48:	00021040 	sll	v0,v0,0x1
a0804c4c:	00431021 	addu	v0,v0,v1
a0804c50:	24420001 	addiu	v0,v0,1
a0804c54:	2483a090 	addiu	v1,a0,-24432
a0804c58:	00021100 	sll	v0,v0,0x4
a0804c5c:	00621021 	addu	v0,v1,v0
a0804c60:	ac450004 	sw	a1,4(v0)
a0804c64:	8fd00040 	lw	s0,64(s8)
a0804c68:	3c02a082 	lui	v0,0xa082
a0804c6c:	8c42a08c 	lw	v0,-24436(v0)
a0804c70:	00402021 	move	a0,v0
a0804c74:	0c201132 	jal	a08044c8 <page_frame_paddr>
a0804c78:	00000000 	nop
a0804c7c:	00402821 	move	a1,v0
a0804c80:	3c04a082 	lui	a0,0xa082
a0804c84:	02001021 	move	v0,s0
a0804c88:	00021900 	sll	v1,v0,0x4
a0804c8c:	00031080 	sll	v0,v1,0x2
a0804c90:	00431023 	subu	v0,v0,v1
a0804c94:	2483a090 	addiu	v1,a0,-24432
a0804c98:	00431021 	addu	v0,v0,v1
a0804c9c:	ac450000 	sw	a1,0(v0)
a0804ca0:	8fc60040 	lw	a2,64(s8)
a0804ca4:	8fc20040 	lw	v0,64(s8)
a0804ca8:	3c04a082 	lui	a0,0xa082
a0804cac:	00021900 	sll	v1,v0,0x4
a0804cb0:	00031080 	sll	v0,v1,0x2
a0804cb4:	00431023 	subu	v0,v0,v1
a0804cb8:	2483a090 	addiu	v1,a0,-24432
a0804cbc:	00431021 	addu	v0,v0,v1
a0804cc0:	8c420000 	lw	v0,0(v0)
a0804cc4:	00022302 	srl	a0,v0,0xc
a0804cc8:	3c05a082 	lui	a1,0xa082
a0804ccc:	00c01021 	move	v0,a2
a0804cd0:	00021840 	sll	v1,v0,0x1
a0804cd4:	00031080 	sll	v0,v1,0x2
a0804cd8:	00431023 	subu	v0,v0,v1
a0804cdc:	24420001 	addiu	v0,v0,1
a0804ce0:	24a3a090 	addiu	v1,a1,-24432
a0804ce4:	000210c0 	sll	v0,v0,0x3
a0804ce8:	00621021 	addu	v0,v1,v0
a0804cec:	ac440004 	sw	a0,4(v0)
a0804cf0:	8fc30040 	lw	v1,64(s8)
a0804cf4:	3c02a081 	lui	v0,0xa081
a0804cf8:	8c427290 	lw	v0,29328(v0)
a0804cfc:	8c440140 	lw	a0,320(v0)
a0804d00:	3c05a082 	lui	a1,0xa082
a0804d04:	00601021 	move	v0,v1
a0804d08:	00021040 	sll	v0,v0,0x1
a0804d0c:	00431021 	addu	v0,v0,v1
a0804d10:	24420001 	addiu	v0,v0,1
a0804d14:	00021900 	sll	v1,v0,0x4
a0804d18:	24a2a090 	addiu	v0,a1,-24432
a0804d1c:	00621021 	addu	v0,v1,v0
a0804d20:	ac440000 	sw	a0,0(v0)
a0804d24:	8fc20040 	lw	v0,64(s8)
a0804d28:	3c04a082 	lui	a0,0xa082
a0804d2c:	00021900 	sll	v1,v0,0x4
a0804d30:	00031080 	sll	v0,v1,0x2
a0804d34:	00431023 	subu	v0,v0,v1
a0804d38:	2483a090 	addiu	v1,a0,-24432
a0804d3c:	00431021 	addu	v0,v0,v1
a0804d40:	ac400018 	sw	zero,24(v0)
a0804d44:	8fc30040 	lw	v1,64(s8)
a0804d48:	3c02a082 	lui	v0,0xa082
a0804d4c:	2444a090 	addiu	a0,v0,-24432
a0804d50:	00601021 	move	v0,v1
a0804d54:	00021900 	sll	v1,v0,0x4
a0804d58:	00031080 	sll	v0,v1,0x2
a0804d5c:	00431023 	subu	v0,v0,v1
a0804d60:	00821021 	addu	v0,a0,v0
a0804d64:	24030001 	li	v1,1
a0804d68:	ac43002c 	sw	v1,44(v0)
a0804d6c:	8fc30040 	lw	v1,64(s8)
a0804d70:	3c02a082 	lui	v0,0xa082
a0804d74:	2444a090 	addiu	a0,v0,-24432
a0804d78:	00601021 	move	v0,v1
a0804d7c:	00021900 	sll	v1,v0,0x4
a0804d80:	00031080 	sll	v0,v1,0x2
a0804d84:	00431023 	subu	v0,v0,v1
a0804d88:	00821021 	addu	v0,a0,v0
a0804d8c:	ac400024 	sw	zero,36(v0)
a0804d90:	8fc30044 	lw	v1,68(s8)
a0804d94:	3c04a082 	lui	a0,0xa082
a0804d98:	00601021 	move	v0,v1
a0804d9c:	00021040 	sll	v0,v0,0x1
a0804da0:	00431021 	addu	v0,v0,v1
a0804da4:	24420001 	addiu	v0,v0,1
a0804da8:	00021900 	sll	v1,v0,0x4
a0804dac:	2482a090 	addiu	v0,a0,-24432
a0804db0:	00621021 	addu	v0,v1,v0
a0804db4:	8c420000 	lw	v0,0(v0)
a0804db8:	afc20020 	sw	v0,32(s8)
a0804dbc:	8fc30044 	lw	v1,68(s8)
a0804dc0:	3c02a082 	lui	v0,0xa082
a0804dc4:	2444a090 	addiu	a0,v0,-24432
a0804dc8:	00601021 	move	v0,v1
a0804dcc:	00021900 	sll	v1,v0,0x4
a0804dd0:	00031080 	sll	v0,v1,0x2
a0804dd4:	00431023 	subu	v0,v0,v1
a0804dd8:	00821021 	addu	v0,a0,v0
a0804ddc:	8c430004 	lw	v1,4(v0)
a0804de0:	2402e000 	li	v0,-8192
a0804de4:	00621024 	and	v0,v1,v0
a0804de8:	afc2001c 	sw	v0,28(s8)
a0804dec:	8fc30040 	lw	v1,64(s8)
a0804df0:	3c04a082 	lui	a0,0xa082
a0804df4:	00601021 	move	v0,v1
a0804df8:	00021040 	sll	v0,v0,0x1
a0804dfc:	00431021 	addu	v0,v0,v1
a0804e00:	24420001 	addiu	v0,v0,1
a0804e04:	00021900 	sll	v1,v0,0x4
a0804e08:	2482a090 	addiu	v0,a0,-24432
a0804e0c:	00621021 	addu	v0,v1,v0
a0804e10:	8c420000 	lw	v0,0(v0)
a0804e14:	afc20018 	sw	v0,24(s8)
a0804e18:	8fc30040 	lw	v1,64(s8)
a0804e1c:	3c02a082 	lui	v0,0xa082
a0804e20:	2444a090 	addiu	a0,v0,-24432
a0804e24:	00601021 	move	v0,v1
a0804e28:	00021900 	sll	v1,v0,0x4
a0804e2c:	00031080 	sll	v0,v1,0x2
a0804e30:	00431023 	subu	v0,v0,v1
a0804e34:	00821021 	addu	v0,a0,v0
a0804e38:	8c430004 	lw	v1,4(v0)
a0804e3c:	2402e000 	li	v0,-8192
a0804e40:	00621024 	and	v0,v1,v0
a0804e44:	afc20014 	sw	v0,20(s8)
a0804e48:	3c02a082 	lui	v0,0xa082
a0804e4c:	8c42a070 	lw	v0,-24464(v0)
a0804e50:	afc20010 	sw	v0,16(s8)
a0804e54:	8fc20044 	lw	v0,68(s8)
a0804e58:	8fc30040 	lw	v1,64(s8)
a0804e5c:	00402021 	move	a0,v0
a0804e60:	00602821 	move	a1,v1
a0804e64:	0c201177 	jal	a08045dc <do_page_swap>
a0804e68:	00000000 	nop
a0804e6c:	8fc30044 	lw	v1,68(s8)
a0804e70:	3c02a082 	lui	v0,0xa082
a0804e74:	2444a090 	addiu	a0,v0,-24432
a0804e78:	00601021 	move	v0,v1
a0804e7c:	00021900 	sll	v1,v0,0x4
a0804e80:	00031080 	sll	v0,v1,0x2
a0804e84:	00431023 	subu	v0,v0,v1
a0804e88:	00821021 	addu	v0,a0,v0
a0804e8c:	24030001 	li	v1,1
a0804e90:	ac430024 	sw	v1,36(v0)
a0804e94:	8fc30040 	lw	v1,64(s8)
a0804e98:	3c02a082 	lui	v0,0xa082
a0804e9c:	2444a090 	addiu	a0,v0,-24432
a0804ea0:	00601021 	move	v0,v1
a0804ea4:	00021900 	sll	v1,v0,0x4
a0804ea8:	00031080 	sll	v0,v1,0x2
a0804eac:	00431023 	subu	v0,v0,v1
a0804eb0:	00821021 	addu	v0,a0,v0
a0804eb4:	ac400024 	sw	zero,36(v0)
a0804eb8:	8fc20040 	lw	v0,64(s8)
a0804ebc:	afc20048 	sw	v0,72(s8)
a0804ec0:	0820143c 	j	a08050f0 <page_alloc+0xacc>
a0804ec4:	00000000 	nop
a0804ec8:	8fc20048 	lw	v0,72(s8)
a0804ecc:	3c04a082 	lui	a0,0xa082
a0804ed0:	00021900 	sll	v1,v0,0x4
a0804ed4:	00031080 	sll	v0,v1,0x2
a0804ed8:	00431023 	subu	v0,v0,v1
a0804edc:	2483a090 	addiu	v1,a0,-24432
a0804ee0:	00431021 	addu	v0,v0,v1
a0804ee4:	8c420000 	lw	v0,0(v0)
a0804ee8:	00402021 	move	a0,v0
a0804eec:	0c201118 	jal	a0804460 <pa_2_va>
a0804ef0:	00000000 	nop
a0804ef4:	00402021 	move	a0,v0
a0804ef8:	24051000 	li	a1,4096
a0804efc:	0c203ad3 	jal	a080eb4c <bzero>
a0804f00:	00000000 	nop
a0804f04:	3c02a082 	lui	v0,0xa082
a0804f08:	8c42a070 	lw	v0,-24464(v0)
a0804f0c:	1440002b 	bnez	v0,a0804fbc <page_alloc+0x998>
a0804f10:	00000000 	nop
a0804f14:	8fc20048 	lw	v0,72(s8)
a0804f18:	3c04a082 	lui	a0,0xa082
a0804f1c:	00021900 	sll	v1,v0,0x4
a0804f20:	00031080 	sll	v0,v1,0x2
a0804f24:	00431023 	subu	v0,v0,v1
a0804f28:	2483a090 	addiu	v1,a0,-24432
a0804f2c:	00431021 	addu	v0,v0,v1
a0804f30:	ac400018 	sw	zero,24(v0)
a0804f34:	8fc20048 	lw	v0,72(s8)
a0804f38:	3c04a082 	lui	a0,0xa082
a0804f3c:	00021900 	sll	v1,v0,0x4
a0804f40:	00031080 	sll	v0,v1,0x2
a0804f44:	00431023 	subu	v0,v0,v1
a0804f48:	2483a090 	addiu	v1,a0,-24432
a0804f4c:	00431821 	addu	v1,v0,v1
a0804f50:	8fc20068 	lw	v0,104(s8)
a0804f54:	ac620020 	sw	v0,32(v1)
a0804f58:	8fc30048 	lw	v1,72(s8)
a0804f5c:	3c02a082 	lui	v0,0xa082
a0804f60:	2444a090 	addiu	a0,v0,-24432
a0804f64:	00601021 	move	v0,v1
a0804f68:	00021900 	sll	v1,v0,0x4
a0804f6c:	00031080 	sll	v0,v1,0x2
a0804f70:	00431023 	subu	v0,v0,v1
a0804f74:	00821021 	addu	v0,a0,v0
a0804f78:	24030001 	li	v1,1
a0804f7c:	ac43002c 	sw	v1,44(v0)
a0804f80:	8fc30048 	lw	v1,72(s8)
a0804f84:	3c02a082 	lui	v0,0xa082
a0804f88:	8c42a064 	lw	v0,-24476(v0)
a0804f8c:	00402021 	move	a0,v0
a0804f90:	3c05a082 	lui	a1,0xa082
a0804f94:	00601021 	move	v0,v1
a0804f98:	00021040 	sll	v0,v0,0x1
a0804f9c:	00431021 	addu	v0,v0,v1
a0804fa0:	24420001 	addiu	v0,v0,1
a0804fa4:	00021900 	sll	v1,v0,0x4
a0804fa8:	24a2a090 	addiu	v0,a1,-24432
a0804fac:	00621021 	addu	v0,v1,v0
a0804fb0:	ac440000 	sw	a0,0(v0)
a0804fb4:	08201431 	j	a08050c4 <page_alloc+0xaa0>
a0804fb8:	00000000 	nop
a0804fbc:	8fd00048 	lw	s0,72(s8)
a0804fc0:	0c20037f 	jal	a0800dfc <get_cp0_badvaddr>
a0804fc4:	00000000 	nop
a0804fc8:	00402821 	move	a1,v0
a0804fcc:	3c02a082 	lui	v0,0xa082
a0804fd0:	2444a090 	addiu	a0,v0,-24432
a0804fd4:	02001021 	move	v0,s0
a0804fd8:	00021900 	sll	v1,v0,0x4
a0804fdc:	00031080 	sll	v0,v1,0x2
a0804fe0:	00431023 	subu	v0,v0,v1
a0804fe4:	00821021 	addu	v0,a0,v0
a0804fe8:	ac450004 	sw	a1,4(v0)
a0804fec:	8fd00048 	lw	s0,72(s8)
a0804ff0:	0c20037f 	jal	a0800dfc <get_cp0_badvaddr>
a0804ff4:	00000000 	nop
a0804ff8:	00022302 	srl	a0,v0,0xc
a0804ffc:	3c05a082 	lui	a1,0xa082
a0805000:	02001021 	move	v0,s0
a0805004:	00021840 	sll	v1,v0,0x1
a0805008:	00031080 	sll	v0,v1,0x2
a080500c:	00431023 	subu	v0,v0,v1
a0805010:	24420001 	addiu	v0,v0,1
a0805014:	000218c0 	sll	v1,v0,0x3
a0805018:	24a2a090 	addiu	v0,a1,-24432
a080501c:	00621021 	addu	v0,v1,v0
a0805020:	ac440000 	sw	a0,0(v0)
a0805024:	8fc30048 	lw	v1,72(s8)
a0805028:	3c02a081 	lui	v0,0xa081
a080502c:	8c427290 	lw	v0,29328(v0)
a0805030:	8c440140 	lw	a0,320(v0)
a0805034:	3c05a082 	lui	a1,0xa082
a0805038:	00601021 	move	v0,v1
a080503c:	00021040 	sll	v0,v0,0x1
a0805040:	00431021 	addu	v0,v0,v1
a0805044:	24420001 	addiu	v0,v0,1
a0805048:	00021900 	sll	v1,v0,0x4
a080504c:	24a2a090 	addiu	v0,a1,-24432
a0805050:	00621021 	addu	v0,v1,v0
a0805054:	ac440000 	sw	a0,0(v0)
a0805058:	8fc20048 	lw	v0,72(s8)
a080505c:	3c04a082 	lui	a0,0xa082
a0805060:	00021900 	sll	v1,v0,0x4
a0805064:	00031080 	sll	v0,v1,0x2
a0805068:	00431023 	subu	v0,v0,v1
a080506c:	2483a090 	addiu	v1,a0,-24432
a0805070:	00431021 	addu	v0,v0,v1
a0805074:	ac400018 	sw	zero,24(v0)
a0805078:	8fc20048 	lw	v0,72(s8)
a080507c:	3c04a082 	lui	a0,0xa082
a0805080:	00021900 	sll	v1,v0,0x4
a0805084:	00031080 	sll	v0,v1,0x2
a0805088:	00431023 	subu	v0,v0,v1
a080508c:	2483a090 	addiu	v1,a0,-24432
a0805090:	00431821 	addu	v1,v0,v1
a0805094:	8fc20068 	lw	v0,104(s8)
a0805098:	ac620020 	sw	v0,32(v1)
a080509c:	8fc30048 	lw	v1,72(s8)
a08050a0:	3c02a082 	lui	v0,0xa082
a08050a4:	2444a090 	addiu	a0,v0,-24432
a08050a8:	00601021 	move	v0,v1
a08050ac:	00021900 	sll	v1,v0,0x4
a08050b0:	00031080 	sll	v0,v1,0x2
a08050b4:	00431023 	subu	v0,v0,v1
a08050b8:	00821021 	addu	v0,a0,v0
a08050bc:	24030001 	li	v1,1
a08050c0:	ac43002c 	sw	v1,44(v0)
a08050c4:	3c02a081 	lui	v0,0xa081
a08050c8:	8c4272a4 	lw	v0,29348(v0)
a08050cc:	10400006 	beqz	v0,a08050e8 <page_alloc+0xac4>
a08050d0:	00000000 	nop
a08050d4:	3c02a081 	lui	v0,0xa081
a08050d8:	8c4272a4 	lw	v0,29348(v0)
a08050dc:	2443ffff 	addiu	v1,v0,-1
a08050e0:	3c02a081 	lui	v0,0xa081
a08050e4:	ac4372a4 	sw	v1,29348(v0)
a08050e8:	8fc20048 	lw	v0,72(s8)
a08050ec:	afc20050 	sw	v0,80(s8)
a08050f0:	8fc20050 	lw	v0,80(s8)
a08050f4:	03c0e821 	move	sp,s8
a08050f8:	8fbf0064 	lw	ra,100(sp)
a08050fc:	8fbe0060 	lw	s8,96(sp)
a0805100:	8fb0005c 	lw	s0,92(sp)
a0805104:	27bd0068 	addiu	sp,sp,104
a0805108:	03e00008 	jr	ra
a080510c:	00000000 	nop

a0805110 <set_up_page_table>:
a0805110:	27bdffe0 	addiu	sp,sp,-32
a0805114:	afbf001c 	sw	ra,28(sp)
a0805118:	afbe0018 	sw	s8,24(sp)
a080511c:	03a0f021 	move	s8,sp
a0805120:	24020001 	li	v0,1
a0805124:	afc20014 	sw	v0,20(s8)
a0805128:	afc00010 	sw	zero,16(s8)
a080512c:	08201455 	j	a0805154 <set_up_page_table+0x44>
a0805130:	00000000 	nop
a0805134:	8fc40014 	lw	a0,20(s8)
a0805138:	00002821 	move	a1,zero
a080513c:	00003021 	move	a2,zero
a0805140:	0c201189 	jal	a0804624 <page_alloc>
a0805144:	00000000 	nop
a0805148:	8fc20010 	lw	v0,16(s8)
a080514c:	24420001 	addiu	v0,v0,1
a0805150:	afc20010 	sw	v0,16(s8)
a0805154:	8fc20010 	lw	v0,16(s8)
a0805158:	28420200 	slti	v0,v0,512
a080515c:	1440fff5 	bnez	v0,a0805134 <set_up_page_table+0x24>
a0805160:	00000000 	nop
a0805164:	03c0e821 	move	sp,s8
a0805168:	8fbf001c 	lw	ra,28(sp)
a080516c:	8fbe0018 	lw	s8,24(sp)
a0805170:	27bd0020 	addiu	sp,sp,32
a0805174:	03e00008 	jr	ra
a0805178:	00000000 	nop

a080517c <fill_tlb>:
a080517c:	27bdffc0 	addiu	sp,sp,-64
a0805180:	afbf003c 	sw	ra,60(sp)
a0805184:	afbe0038 	sw	s8,56(sp)
a0805188:	03a0f021 	move	s8,sp
a080518c:	afc00034 	sw	zero,52(s8)
a0805190:	3c02a082 	lui	v0,0xa082
a0805194:	8c42a070 	lw	v0,-24464(v0)
a0805198:	082014be 	j	a08052f8 <fill_tlb+0x17c>
a080519c:	afc2001c 	sw	v0,28(s8)
a08051a0:	8fc30034 	lw	v1,52(s8)
a08051a4:	3c02a086 	lui	v0,0xa086
a08051a8:	24440d8c 	addiu	a0,v0,3468
a08051ac:	00601021 	move	v0,v1
a08051b0:	000218c0 	sll	v1,v0,0x3
a08051b4:	00031080 	sll	v0,v1,0x2
a08051b8:	00431023 	subu	v0,v0,v1
a08051bc:	00821021 	addu	v0,a0,v0
a08051c0:	24030001 	li	v1,1
a08051c4:	ac430004 	sw	v1,4(v0)
a08051c8:	8fc20034 	lw	v0,52(s8)
a08051cc:	8fc50034 	lw	a1,52(s8)
a08051d0:	3c04a086 	lui	a0,0xa086
a08051d4:	000218c0 	sll	v1,v0,0x3
a08051d8:	00031080 	sll	v0,v1,0x2
a08051dc:	00431023 	subu	v0,v0,v1
a08051e0:	24830d8c 	addiu	v1,a0,3468
a08051e4:	00431021 	addu	v0,v0,v1
a08051e8:	ac450000 	sw	a1,0(v0)
a08051ec:	3c02000f 	lui	v0,0xf
a08051f0:	3442fff7 	ori	v0,v0,0xfff7
a08051f4:	afc20018 	sw	v0,24(s8)
a08051f8:	8fc20018 	lw	v0,24(s8)
a08051fc:	00021340 	sll	v0,v0,0xd
a0805200:	afc20030 	sw	v0,48(s8)
a0805204:	afc0002c 	sw	zero,44(s8)
a0805208:	afc00014 	sw	zero,20(s8)
a080520c:	afc00010 	sw	zero,16(s8)
a0805210:	afc00028 	sw	zero,40(s8)
a0805214:	afc00024 	sw	zero,36(s8)
a0805218:	8fc20034 	lw	v0,52(s8)
a080521c:	afc20020 	sw	v0,32(s8)
a0805220:	8fc30034 	lw	v1,52(s8)
a0805224:	3c04a086 	lui	a0,0xa086
a0805228:	00601021 	move	v0,v1
a080522c:	00021040 	sll	v0,v0,0x1
a0805230:	00431021 	addu	v0,v0,v1
a0805234:	24420001 	addiu	v0,v0,1
a0805238:	000218c0 	sll	v1,v0,0x3
a080523c:	24820d8c 	addiu	v0,a0,3468
a0805240:	00621821 	addu	v1,v1,v0
a0805244:	8fc20018 	lw	v0,24(s8)
a0805248:	ac620000 	sw	v0,0(v1)
a080524c:	8fc30034 	lw	v1,52(s8)
a0805250:	3c04a086 	lui	a0,0xa086
a0805254:	00601021 	move	v0,v1
a0805258:	00021040 	sll	v0,v0,0x1
a080525c:	00431021 	addu	v0,v0,v1
a0805260:	24420001 	addiu	v0,v0,1
a0805264:	24830d8c 	addiu	v1,a0,3468
a0805268:	000210c0 	sll	v0,v0,0x3
a080526c:	00621021 	addu	v0,v1,v0
a0805270:	8fc30014 	lw	v1,20(s8)
a0805274:	ac430004 	sw	v1,4(v0)
a0805278:	8fc20034 	lw	v0,52(s8)
a080527c:	3c04a086 	lui	a0,0xa086
a0805280:	000218c0 	sll	v1,v0,0x3
a0805284:	00031080 	sll	v0,v1,0x2
a0805288:	00431023 	subu	v0,v0,v1
a080528c:	24830d8c 	addiu	v1,a0,3468
a0805290:	00431821 	addu	v1,v0,v1
a0805294:	8fc20010 	lw	v0,16(s8)
a0805298:	ac620010 	sw	v0,16(v1)
a080529c:	8fc30034 	lw	v1,52(s8)
a08052a0:	3c02a086 	lui	v0,0xa086
a08052a4:	24440d8c 	addiu	a0,v0,3468
a08052a8:	00601021 	move	v0,v1
a08052ac:	000218c0 	sll	v1,v0,0x3
a08052b0:	00031080 	sll	v0,v1,0x2
a08052b4:	00431023 	subu	v0,v0,v1
a08052b8:	00821021 	addu	v0,a0,v0
a08052bc:	ac400014 	sw	zero,20(v0)
a08052c0:	0c20037b 	jal	a0800dec <set_cp0_entryhi>
a08052c4:	8fc40030 	lw	a0,48(s8)
a08052c8:	0c200397 	jal	a0800e5c <set_cp0_pagemask>
a08052cc:	8fc4002c 	lw	a0,44(s8)
a08052d0:	0c200387 	jal	a0800e1c <set_cp0_entrylo0>
a08052d4:	8fc40028 	lw	a0,40(s8)
a08052d8:	0c20038f 	jal	a0800e3c <set_cp0_entrylo1>
a08052dc:	8fc40024 	lw	a0,36(s8)
a08052e0:	0c200373 	jal	a0800dcc <set_cp0_index>
a08052e4:	8fc40020 	lw	a0,32(s8)
a08052e8:	42000002 	tlbwi
a08052ec:	8fc20034 	lw	v0,52(s8)
a08052f0:	24420001 	addiu	v0,v0,1
a08052f4:	afc20034 	sw	v0,52(s8)
a08052f8:	8fc20034 	lw	v0,52(s8)
a08052fc:	28420020 	slti	v0,v0,32
a0805300:	1440ffa7 	bnez	v0,a08051a0 <fill_tlb+0x24>
a0805304:	00000000 	nop
a0805308:	03c0e821 	move	sp,s8
a080530c:	8fbf003c 	lw	ra,60(sp)
a0805310:	8fbe0038 	lw	s8,56(sp)
a0805314:	03e00008 	jr	ra
a0805318:	27bd0040 	addiu	sp,sp,64

a080531c <read_tlb_1>:
a080531c:	27bdffe0 	addiu	sp,sp,-32
a0805320:	afbf001c 	sw	ra,28(sp)
a0805324:	afbe0018 	sw	s8,24(sp)
a0805328:	03a0f021 	move	s8,sp
a080532c:	afc00010 	sw	zero,16(s8)
a0805330:	24040001 	li	a0,1
a0805334:	2405000e 	li	a1,14
a0805338:	0c203788 	jal	a080de20 <sys_move_cursor>
a080533c:	00000000 	nop
a0805340:	3c02a081 	lui	v0,0xa081
a0805344:	24445bd0 	addiu	a0,v0,23504
a0805348:	0c203ff7 	jal	a080ffdc <printf>
a080534c:	00000000 	nop
a0805350:	0820152f 	j	a08054bc <read_tlb_1+0x1a0>
a0805354:	00000000 	nop
a0805358:	8fc20010 	lw	v0,16(s8)
a080535c:	2442000f 	addiu	v0,v0,15
a0805360:	24040001 	li	a0,1
a0805364:	00402821 	move	a1,v0
a0805368:	0c203788 	jal	a080de20 <sys_move_cursor>
a080536c:	00000000 	nop
a0805370:	3c02a081 	lui	v0,0xa081
a0805374:	24445be8 	addiu	a0,v0,23528
a0805378:	0c203ff7 	jal	a080ffdc <printf>
a080537c:	00000000 	nop
a0805380:	8fc20010 	lw	v0,16(s8)
a0805384:	2442000f 	addiu	v0,v0,15
a0805388:	24040001 	li	a0,1
a080538c:	00402821 	move	a1,v0
a0805390:	0c203788 	jal	a080de20 <sys_move_cursor>
a0805394:	00000000 	nop
a0805398:	8fc30010 	lw	v1,16(s8)
a080539c:	3c02a086 	lui	v0,0xa086
a08053a0:	24440d8c 	addiu	a0,v0,3468
a08053a4:	00601021 	move	v0,v1
a08053a8:	000218c0 	sll	v1,v0,0x3
a08053ac:	00031080 	sll	v0,v1,0x2
a08053b0:	00431023 	subu	v0,v0,v1
a08053b4:	00821021 	addu	v0,a0,v0
a08053b8:	8c430004 	lw	v1,4(v0)
a08053bc:	3c02a081 	lui	v0,0xa081
a08053c0:	24445c10 	addiu	a0,v0,23568
a08053c4:	00602821 	move	a1,v1
a08053c8:	0c203ff7 	jal	a080ffdc <printf>
a08053cc:	00000000 	nop
a08053d0:	8fc20010 	lw	v0,16(s8)
a08053d4:	3c04a086 	lui	a0,0xa086
a08053d8:	000218c0 	sll	v1,v0,0x3
a08053dc:	00031080 	sll	v0,v1,0x2
a08053e0:	00431023 	subu	v0,v0,v1
a08053e4:	24830d8c 	addiu	v1,a0,3468
a08053e8:	00431021 	addu	v0,v0,v1
a08053ec:	8c430000 	lw	v1,0(v0)
a08053f0:	3c02a081 	lui	v0,0xa081
a08053f4:	24445c10 	addiu	a0,v0,23568
a08053f8:	00602821 	move	a1,v1
a08053fc:	0c203ff7 	jal	a080ffdc <printf>
a0805400:	00000000 	nop
a0805404:	8fc30010 	lw	v1,16(s8)
a0805408:	3c04a086 	lui	a0,0xa086
a080540c:	00601021 	move	v0,v1
a0805410:	00021040 	sll	v0,v0,0x1
a0805414:	00431021 	addu	v0,v0,v1
a0805418:	24420001 	addiu	v0,v0,1
a080541c:	000218c0 	sll	v1,v0,0x3
a0805420:	24820d8c 	addiu	v0,a0,3468
a0805424:	00621021 	addu	v0,v1,v0
a0805428:	8c430000 	lw	v1,0(v0)
a080542c:	3c02a081 	lui	v0,0xa081
a0805430:	24445c10 	addiu	a0,v0,23568
a0805434:	00602821 	move	a1,v1
a0805438:	0c203ff7 	jal	a080ffdc <printf>
a080543c:	00000000 	nop
a0805440:	8fc30010 	lw	v1,16(s8)
a0805444:	3c04a086 	lui	a0,0xa086
a0805448:	00601021 	move	v0,v1
a080544c:	00021040 	sll	v0,v0,0x1
a0805450:	00431021 	addu	v0,v0,v1
a0805454:	24420001 	addiu	v0,v0,1
a0805458:	24830d8c 	addiu	v1,a0,3468
a080545c:	000210c0 	sll	v0,v0,0x3
a0805460:	00621021 	addu	v0,v1,v0
a0805464:	8c430004 	lw	v1,4(v0)
a0805468:	3c02a081 	lui	v0,0xa081
a080546c:	24445c10 	addiu	a0,v0,23568
a0805470:	00602821 	move	a1,v1
a0805474:	0c203ff7 	jal	a080ffdc <printf>
a0805478:	00000000 	nop
a080547c:	8fc20010 	lw	v0,16(s8)
a0805480:	3c04a086 	lui	a0,0xa086
a0805484:	000218c0 	sll	v1,v0,0x3
a0805488:	00031080 	sll	v0,v1,0x2
a080548c:	00431023 	subu	v0,v0,v1
a0805490:	24830d8c 	addiu	v1,a0,3468
a0805494:	00431021 	addu	v0,v0,v1
a0805498:	8c430010 	lw	v1,16(v0)
a080549c:	3c02a081 	lui	v0,0xa081
a08054a0:	24445c18 	addiu	a0,v0,23576
a08054a4:	00602821 	move	a1,v1
a08054a8:	0c203ff7 	jal	a080ffdc <printf>
a08054ac:	00000000 	nop
a08054b0:	8fc20010 	lw	v0,16(s8)
a08054b4:	24420001 	addiu	v0,v0,1
a08054b8:	afc20010 	sw	v0,16(s8)
a08054bc:	8fc20010 	lw	v0,16(s8)
a08054c0:	28420010 	slti	v0,v0,16
a08054c4:	1440ffa4 	bnez	v0,a0805358 <read_tlb_1+0x3c>
a08054c8:	00000000 	nop
a08054cc:	03c0e821 	move	sp,s8
a08054d0:	8fbf001c 	lw	ra,28(sp)
a08054d4:	8fbe0018 	lw	s8,24(sp)
a08054d8:	27bd0020 	addiu	sp,sp,32
a08054dc:	03e00008 	jr	ra
a08054e0:	00000000 	nop

a08054e4 <init_memory>:
a08054e4:	27bdffd8 	addiu	sp,sp,-40
a08054e8:	afbf0024 	sw	ra,36(sp)
a08054ec:	afbe0020 	sw	s8,32(sp)
a08054f0:	afb0001c 	sw	s0,28(sp)
a08054f4:	03a0f021 	move	s8,sp
a08054f8:	afc00010 	sw	zero,16(s8)
a08054fc:	082015c4 	j	a0805710 <init_memory+0x22c>
a0805500:	00000000 	nop
a0805504:	8fd00010 	lw	s0,16(s8)
a0805508:	8fc20010 	lw	v0,16(s8)
a080550c:	00402021 	move	a0,v0
a0805510:	0c201132 	jal	a08044c8 <page_frame_paddr>
a0805514:	00000000 	nop
a0805518:	00402821 	move	a1,v0
a080551c:	3c04a082 	lui	a0,0xa082
a0805520:	02001021 	move	v0,s0
a0805524:	00021900 	sll	v1,v0,0x4
a0805528:	00031080 	sll	v0,v1,0x2
a080552c:	00431023 	subu	v0,v0,v1
a0805530:	2483a090 	addiu	v1,a0,-24432
a0805534:	00431021 	addu	v0,v0,v1
a0805538:	ac450000 	sw	a1,0(v0)
a080553c:	8fc30010 	lw	v1,16(s8)
a0805540:	3c02a082 	lui	v0,0xa082
a0805544:	2444a090 	addiu	a0,v0,-24432
a0805548:	00601021 	move	v0,v1
a080554c:	00021900 	sll	v1,v0,0x4
a0805550:	00031080 	sll	v0,v1,0x2
a0805554:	00431023 	subu	v0,v0,v1
a0805558:	00821021 	addu	v0,a0,v0
a080555c:	ac400004 	sw	zero,4(v0)
a0805560:	8fc20010 	lw	v0,16(s8)
a0805564:	3c04a082 	lui	a0,0xa082
a0805568:	00021840 	sll	v1,v0,0x1
a080556c:	00031080 	sll	v0,v1,0x2
a0805570:	00431023 	subu	v0,v0,v1
a0805574:	24420001 	addiu	v0,v0,1
a0805578:	000218c0 	sll	v1,v0,0x3
a080557c:	2482a090 	addiu	v0,a0,-24432
a0805580:	00621021 	addu	v0,v1,v0
a0805584:	ac400000 	sw	zero,0(v0)
a0805588:	8fc60010 	lw	a2,16(s8)
a080558c:	8fc20010 	lw	v0,16(s8)
a0805590:	3c04a082 	lui	a0,0xa082
a0805594:	00021900 	sll	v1,v0,0x4
a0805598:	00031080 	sll	v0,v1,0x2
a080559c:	00431023 	subu	v0,v0,v1
a08055a0:	2483a090 	addiu	v1,a0,-24432
a08055a4:	00431021 	addu	v0,v0,v1
a08055a8:	8c420000 	lw	v0,0(v0)
a08055ac:	00022302 	srl	a0,v0,0xc
a08055b0:	3c05a082 	lui	a1,0xa082
a08055b4:	00c01021 	move	v0,a2
a08055b8:	00021840 	sll	v1,v0,0x1
a08055bc:	00031080 	sll	v0,v1,0x2
a08055c0:	00431023 	subu	v0,v0,v1
a08055c4:	24420001 	addiu	v0,v0,1
a08055c8:	24a3a090 	addiu	v1,a1,-24432
a08055cc:	000210c0 	sll	v0,v0,0x3
a08055d0:	00621021 	addu	v0,v1,v0
a08055d4:	ac440004 	sw	a0,4(v0)
a08055d8:	8fc30010 	lw	v1,16(s8)
a08055dc:	3c04a082 	lui	a0,0xa082
a08055e0:	00601021 	move	v0,v1
a08055e4:	00021040 	sll	v0,v0,0x1
a08055e8:	00431021 	addu	v0,v0,v1
a08055ec:	24420001 	addiu	v0,v0,1
a08055f0:	00021900 	sll	v1,v0,0x4
a08055f4:	2482a090 	addiu	v0,a0,-24432
a08055f8:	00621021 	addu	v0,v1,v0
a08055fc:	ac400000 	sw	zero,0(v0)
a0805600:	8fc30010 	lw	v1,16(s8)
a0805604:	3c04a082 	lui	a0,0xa082
a0805608:	00601021 	move	v0,v1
a080560c:	00021040 	sll	v0,v0,0x1
a0805610:	00431021 	addu	v0,v0,v1
a0805614:	24420001 	addiu	v0,v0,1
a0805618:	2483a090 	addiu	v1,a0,-24432
a080561c:	00021100 	sll	v0,v0,0x4
a0805620:	00621021 	addu	v0,v1,v0
a0805624:	8fc30010 	lw	v1,16(s8)
a0805628:	ac430004 	sw	v1,4(v0)
a080562c:	8fc20010 	lw	v0,16(s8)
a0805630:	3c04a082 	lui	a0,0xa082
a0805634:	00021900 	sll	v1,v0,0x4
a0805638:	00031080 	sll	v0,v1,0x2
a080563c:	00431023 	subu	v0,v0,v1
a0805640:	2483a090 	addiu	v1,a0,-24432
a0805644:	00431821 	addu	v1,v0,v1
a0805648:	24020001 	li	v0,1
a080564c:	ac620018 	sw	v0,24(v1)
a0805650:	8fc30010 	lw	v1,16(s8)
a0805654:	3c02a082 	lui	v0,0xa082
a0805658:	2444a090 	addiu	a0,v0,-24432
a080565c:	00601021 	move	v0,v1
a0805660:	00021900 	sll	v1,v0,0x4
a0805664:	00031080 	sll	v0,v1,0x2
a0805668:	00431023 	subu	v0,v0,v1
a080566c:	00821021 	addu	v0,a0,v0
a0805670:	24030001 	li	v1,1
a0805674:	ac43001c 	sw	v1,28(v0)
a0805678:	8fc20010 	lw	v0,16(s8)
a080567c:	3c04a082 	lui	a0,0xa082
a0805680:	00021900 	sll	v1,v0,0x4
a0805684:	00031080 	sll	v0,v1,0x2
a0805688:	00431023 	subu	v0,v0,v1
a080568c:	2483a090 	addiu	v1,a0,-24432
a0805690:	00431021 	addu	v0,v0,v1
a0805694:	ac400020 	sw	zero,32(v0)
a0805698:	8fc30010 	lw	v1,16(s8)
a080569c:	3c02a082 	lui	v0,0xa082
a08056a0:	2444a090 	addiu	a0,v0,-24432
a08056a4:	00601021 	move	v0,v1
a08056a8:	00021900 	sll	v1,v0,0x4
a08056ac:	00031080 	sll	v0,v1,0x2
a08056b0:	00431023 	subu	v0,v0,v1
a08056b4:	00821021 	addu	v0,a0,v0
a08056b8:	ac400024 	sw	zero,36(v0)
a08056bc:	8fc20010 	lw	v0,16(s8)
a08056c0:	3c04a082 	lui	a0,0xa082
a08056c4:	00021900 	sll	v1,v0,0x4
a08056c8:	00031080 	sll	v0,v1,0x2
a08056cc:	00431023 	subu	v0,v0,v1
a08056d0:	2483a090 	addiu	v1,a0,-24432
a08056d4:	00431821 	addu	v1,v0,v1
a08056d8:	2402ffff 	li	v0,-1
a08056dc:	ac620028 	sw	v0,40(v1)
a08056e0:	8fc30010 	lw	v1,16(s8)
a08056e4:	3c02a082 	lui	v0,0xa082
a08056e8:	2444a090 	addiu	a0,v0,-24432
a08056ec:	00601021 	move	v0,v1
a08056f0:	00021900 	sll	v1,v0,0x4
a08056f4:	00031080 	sll	v0,v1,0x2
a08056f8:	00431023 	subu	v0,v0,v1
a08056fc:	00821021 	addu	v0,a0,v0
a0805700:	ac40002c 	sw	zero,44(v0)
a0805704:	8fc20010 	lw	v0,16(s8)
a0805708:	24420001 	addiu	v0,v0,1
a080570c:	afc20010 	sw	v0,16(s8)
a0805710:	8fc20010 	lw	v0,16(s8)
a0805714:	28420800 	slti	v0,v0,2048
a0805718:	1440ff7a 	bnez	v0,a0805504 <init_memory+0x20>
a080571c:	00000000 	nop
a0805720:	08201640 	j	a0805900 <init_memory+0x41c>
a0805724:	00000000 	nop
a0805728:	8fc20010 	lw	v0,16(s8)
a080572c:	3c04a082 	lui	a0,0xa082
a0805730:	00021900 	sll	v1,v0,0x4
a0805734:	00031080 	sll	v0,v1,0x2
a0805738:	00431023 	subu	v0,v0,v1
a080573c:	2483a090 	addiu	v1,a0,-24432
a0805740:	00431021 	addu	v0,v0,v1
a0805744:	ac400000 	sw	zero,0(v0)
a0805748:	8fc30010 	lw	v1,16(s8)
a080574c:	3c02a082 	lui	v0,0xa082
a0805750:	2444a090 	addiu	a0,v0,-24432
a0805754:	00601021 	move	v0,v1
a0805758:	00021900 	sll	v1,v0,0x4
a080575c:	00031080 	sll	v0,v1,0x2
a0805760:	00431023 	subu	v0,v0,v1
a0805764:	00821021 	addu	v0,a0,v0
a0805768:	ac400004 	sw	zero,4(v0)
a080576c:	8fc20010 	lw	v0,16(s8)
a0805770:	3c04a082 	lui	a0,0xa082
a0805774:	00021840 	sll	v1,v0,0x1
a0805778:	00031080 	sll	v0,v1,0x2
a080577c:	00431023 	subu	v0,v0,v1
a0805780:	24420001 	addiu	v0,v0,1
a0805784:	000218c0 	sll	v1,v0,0x3
a0805788:	2482a090 	addiu	v0,a0,-24432
a080578c:	00621021 	addu	v0,v1,v0
a0805790:	ac400000 	sw	zero,0(v0)
a0805794:	8fc20010 	lw	v0,16(s8)
a0805798:	3c04a082 	lui	a0,0xa082
a080579c:	00021840 	sll	v1,v0,0x1
a08057a0:	00031080 	sll	v0,v1,0x2
a08057a4:	00431023 	subu	v0,v0,v1
a08057a8:	24420001 	addiu	v0,v0,1
a08057ac:	2483a090 	addiu	v1,a0,-24432
a08057b0:	000210c0 	sll	v0,v0,0x3
a08057b4:	00621021 	addu	v0,v1,v0
a08057b8:	ac400004 	sw	zero,4(v0)
a08057bc:	8fc30010 	lw	v1,16(s8)
a08057c0:	3c04a082 	lui	a0,0xa082
a08057c4:	00601021 	move	v0,v1
a08057c8:	00021040 	sll	v0,v0,0x1
a08057cc:	00431021 	addu	v0,v0,v1
a08057d0:	24420001 	addiu	v0,v0,1
a08057d4:	00021900 	sll	v1,v0,0x4
a08057d8:	2482a090 	addiu	v0,a0,-24432
a08057dc:	00621021 	addu	v0,v1,v0
a08057e0:	ac400000 	sw	zero,0(v0)
a08057e4:	8fc30010 	lw	v1,16(s8)
a08057e8:	3c04a082 	lui	a0,0xa082
a08057ec:	00601021 	move	v0,v1
a08057f0:	00021040 	sll	v0,v0,0x1
a08057f4:	00431021 	addu	v0,v0,v1
a08057f8:	24420001 	addiu	v0,v0,1
a08057fc:	2483a090 	addiu	v1,a0,-24432
a0805800:	00021100 	sll	v0,v0,0x4
a0805804:	00621021 	addu	v0,v1,v0
a0805808:	8fc30010 	lw	v1,16(s8)
a080580c:	ac430004 	sw	v1,4(v0)
a0805810:	8fc20010 	lw	v0,16(s8)
a0805814:	3c04a082 	lui	a0,0xa082
a0805818:	00021900 	sll	v1,v0,0x4
a080581c:	00031080 	sll	v0,v1,0x2
a0805820:	00431023 	subu	v0,v0,v1
a0805824:	2483a090 	addiu	v1,a0,-24432
a0805828:	00431821 	addu	v1,v0,v1
a080582c:	24020001 	li	v0,1
a0805830:	ac620018 	sw	v0,24(v1)
a0805834:	8fc30010 	lw	v1,16(s8)
a0805838:	3c02a082 	lui	v0,0xa082
a080583c:	2444a090 	addiu	a0,v0,-24432
a0805840:	00601021 	move	v0,v1
a0805844:	00021900 	sll	v1,v0,0x4
a0805848:	00031080 	sll	v0,v1,0x2
a080584c:	00431023 	subu	v0,v0,v1
a0805850:	00821021 	addu	v0,a0,v0
a0805854:	24030001 	li	v1,1
a0805858:	ac43001c 	sw	v1,28(v0)
a080585c:	8fc20010 	lw	v0,16(s8)
a0805860:	3c04a082 	lui	a0,0xa082
a0805864:	00021900 	sll	v1,v0,0x4
a0805868:	00031080 	sll	v0,v1,0x2
a080586c:	00431023 	subu	v0,v0,v1
a0805870:	2483a090 	addiu	v1,a0,-24432
a0805874:	00431021 	addu	v0,v0,v1
a0805878:	ac400020 	sw	zero,32(v0)
a080587c:	8fc30010 	lw	v1,16(s8)
a0805880:	3c02a082 	lui	v0,0xa082
a0805884:	2444a090 	addiu	a0,v0,-24432
a0805888:	00601021 	move	v0,v1
a080588c:	00021900 	sll	v1,v0,0x4
a0805890:	00031080 	sll	v0,v1,0x2
a0805894:	00431023 	subu	v0,v0,v1
a0805898:	00821021 	addu	v0,a0,v0
a080589c:	24030001 	li	v1,1
a08058a0:	ac430024 	sw	v1,36(v0)
a08058a4:	8fc30010 	lw	v1,16(s8)
a08058a8:	8fc20010 	lw	v0,16(s8)
a08058ac:	2445f800 	addiu	a1,v0,-2048
a08058b0:	3c04a082 	lui	a0,0xa082
a08058b4:	00601021 	move	v0,v1
a08058b8:	00021900 	sll	v1,v0,0x4
a08058bc:	00031080 	sll	v0,v1,0x2
a08058c0:	00431023 	subu	v0,v0,v1
a08058c4:	2483a090 	addiu	v1,a0,-24432
a08058c8:	00431021 	addu	v0,v0,v1
a08058cc:	ac450028 	sw	a1,40(v0)
a08058d0:	8fc30010 	lw	v1,16(s8)
a08058d4:	3c02a082 	lui	v0,0xa082
a08058d8:	2444a090 	addiu	a0,v0,-24432
a08058dc:	00601021 	move	v0,v1
a08058e0:	00021900 	sll	v1,v0,0x4
a08058e4:	00031080 	sll	v0,v1,0x2
a08058e8:	00431023 	subu	v0,v0,v1
a08058ec:	00821021 	addu	v0,a0,v0
a08058f0:	ac40002c 	sw	zero,44(v0)
a08058f4:	8fc20010 	lw	v0,16(s8)
a08058f8:	24420001 	addiu	v0,v0,1
a08058fc:	afc20010 	sw	v0,16(s8)
a0805900:	8fc20010 	lw	v0,16(s8)
a0805904:	28420801 	slti	v0,v0,2049
a0805908:	1440ff87 	bnez	v0,a0805728 <init_memory+0x244>
a080590c:	00000000 	nop
a0805910:	0c201444 	jal	a0805110 <set_up_page_table>
a0805914:	00000000 	nop
a0805918:	3c03a082 	lui	v1,0xa082
a080591c:	3c02a100 	lui	v0,0xa100
a0805920:	ac62a070 	sw	v0,-24464(v1)
a0805924:	0c20145f 	jal	a080517c <fill_tlb>
a0805928:	00000000 	nop
a080592c:	03c0e821 	move	sp,s8
a0805930:	8fbf0024 	lw	ra,36(sp)
a0805934:	8fbe0020 	lw	s8,32(sp)
a0805938:	8fb0001c 	lw	s0,28(sp)
a080593c:	27bd0028 	addiu	sp,sp,40
a0805940:	03e00008 	jr	ra
a0805944:	00000000 	nop

a0805948 <print>:
a0805948:	27bdffe8 	addiu	sp,sp,-24
a080594c:	afbf0014 	sw	ra,20(sp)
a0805950:	afbe0010 	sw	s8,16(sp)
a0805954:	03a0f021 	move	s8,sp
a0805958:	24040001 	li	a0,1
a080595c:	24050001 	li	a1,1
a0805960:	0c2004dc 	jal	a0801370 <vt100_move_cursor>
a0805964:	00000000 	nop
a0805968:	3c02a081 	lui	v0,0xa081
a080596c:	24445c1c 	addiu	a0,v0,23580
a0805970:	0c203fd5 	jal	a080ff54 <printk>
a0805974:	00000000 	nop
a0805978:	03c0e821 	move	sp,s8
a080597c:	8fbf0014 	lw	ra,20(sp)
a0805980:	8fbe0010 	lw	s8,16(sp)
a0805984:	27bd0018 	addiu	sp,sp,24
a0805988:	03e00008 	jr	ra
a080598c:	00000000 	nop

a0805990 <check_tlb_wrong_access>:
a0805990:	27bdffd8 	addiu	sp,sp,-40
a0805994:	afbf0024 	sw	ra,36(sp)
a0805998:	afbe0020 	sw	s8,32(sp)
a080599c:	03a0f021 	move	s8,sp
a08059a0:	0c200377 	jal	a0800ddc <get_cp0_entryhi>
a08059a4:	00000000 	nop
a08059a8:	00021342 	srl	v0,v0,0xd
a08059ac:	afc20014 	sw	v0,20(s8)
a08059b0:	afc00010 	sw	zero,16(s8)
a08059b4:	0820169c 	j	a0805a70 <check_tlb_wrong_access+0xe0>
a08059b8:	00000000 	nop
a08059bc:	8fc30010 	lw	v1,16(s8)
a08059c0:	3c04a086 	lui	a0,0xa086
a08059c4:	00601021 	move	v0,v1
a08059c8:	00021040 	sll	v0,v0,0x1
a08059cc:	00431021 	addu	v0,v0,v1
a08059d0:	24420001 	addiu	v0,v0,1
a08059d4:	000218c0 	sll	v1,v0,0x3
a08059d8:	24820d8c 	addiu	v0,a0,3468
a08059dc:	00621021 	addu	v0,v1,v0
a08059e0:	8c430000 	lw	v1,0(v0)
a08059e4:	8fc20014 	lw	v0,20(s8)
a08059e8:	1462001e 	bne	v1,v0,a0805a64 <check_tlb_wrong_access+0xd4>
a08059ec:	00000000 	nop
a08059f0:	8fc30010 	lw	v1,16(s8)
a08059f4:	3c02a086 	lui	v0,0xa086
a08059f8:	24440d8c 	addiu	a0,v0,3468
a08059fc:	00601021 	move	v0,v1
a0805a00:	000218c0 	sll	v1,v0,0x3
a0805a04:	00031080 	sll	v0,v1,0x2
a0805a08:	00431023 	subu	v0,v0,v1
a0805a0c:	00821021 	addu	v0,a0,v0
a0805a10:	8c430014 	lw	v1,20(v0)
a0805a14:	3c02a081 	lui	v0,0xa081
a0805a18:	8c427290 	lw	v0,29328(v0)
a0805a1c:	8c420140 	lw	v0,320(v0)
a0805a20:	10620010 	beq	v1,v0,a0805a64 <check_tlb_wrong_access+0xd4>
a0805a24:	00000000 	nop
a0805a28:	8fc30010 	lw	v1,16(s8)
a0805a2c:	3c02a086 	lui	v0,0xa086
a0805a30:	24440d8c 	addiu	a0,v0,3468
a0805a34:	00601021 	move	v0,v1
a0805a38:	000218c0 	sll	v1,v0,0x3
a0805a3c:	00031080 	sll	v0,v1,0x2
a0805a40:	00431023 	subu	v0,v0,v1
a0805a44:	00821021 	addu	v0,a0,v0
a0805a48:	8c430014 	lw	v1,20(v0)
a0805a4c:	3c02a083 	lui	v0,0xa083
a0805a50:	ac4320d4 	sw	v1,8404(v0)
a0805a54:	24020001 	li	v0,1
a0805a58:	afc20018 	sw	v0,24(s8)
a0805a5c:	082016a1 	j	a0805a84 <check_tlb_wrong_access+0xf4>
a0805a60:	00000000 	nop
a0805a64:	8fc20010 	lw	v0,16(s8)
a0805a68:	24420001 	addiu	v0,v0,1
a0805a6c:	afc20010 	sw	v0,16(s8)
a0805a70:	8fc20010 	lw	v0,16(s8)
a0805a74:	28420020 	slti	v0,v0,32
a0805a78:	1440ffd0 	bnez	v0,a08059bc <check_tlb_wrong_access+0x2c>
a0805a7c:	00000000 	nop
a0805a80:	afc00018 	sw	zero,24(s8)
a0805a84:	8fc20018 	lw	v0,24(s8)
a0805a88:	03c0e821 	move	sp,s8
a0805a8c:	8fbf0024 	lw	ra,36(sp)
a0805a90:	8fbe0020 	lw	s8,32(sp)
a0805a94:	27bd0028 	addiu	sp,sp,40
a0805a98:	03e00008 	jr	ra
a0805a9c:	00000000 	nop

a0805aa0 <get_tlb_invalid_index>:
a0805aa0:	27bdffd8 	addiu	sp,sp,-40
a0805aa4:	afbf0024 	sw	ra,36(sp)
a0805aa8:	afbe0020 	sw	s8,32(sp)
a0805aac:	03a0f021 	move	s8,sp
a0805ab0:	0c200377 	jal	a0800ddc <get_cp0_entryhi>
a0805ab4:	00000000 	nop
a0805ab8:	00021342 	srl	v0,v0,0xd
a0805abc:	afc20014 	sw	v0,20(s8)
a0805ac0:	afc00010 	sw	zero,16(s8)
a0805ac4:	082016d6 	j	a0805b58 <get_tlb_invalid_index+0xb8>
a0805ac8:	00000000 	nop
a0805acc:	8fc30010 	lw	v1,16(s8)
a0805ad0:	3c04a086 	lui	a0,0xa086
a0805ad4:	00601021 	move	v0,v1
a0805ad8:	00021040 	sll	v0,v0,0x1
a0805adc:	00431021 	addu	v0,v0,v1
a0805ae0:	24420001 	addiu	v0,v0,1
a0805ae4:	000218c0 	sll	v1,v0,0x3
a0805ae8:	24820d8c 	addiu	v0,a0,3468
a0805aec:	00621021 	addu	v0,v1,v0
a0805af0:	8c430000 	lw	v1,0(v0)
a0805af4:	8fc20014 	lw	v0,20(s8)
a0805af8:	14620014 	bne	v1,v0,a0805b4c <get_tlb_invalid_index+0xac>
a0805afc:	00000000 	nop
a0805b00:	8fc30010 	lw	v1,16(s8)
a0805b04:	3c02a086 	lui	v0,0xa086
a0805b08:	24440d8c 	addiu	a0,v0,3468
a0805b0c:	00601021 	move	v0,v1
a0805b10:	000218c0 	sll	v1,v0,0x3
a0805b14:	00031080 	sll	v0,v1,0x2
a0805b18:	00431023 	subu	v0,v0,v1
a0805b1c:	00821021 	addu	v0,a0,v0
a0805b20:	8c430014 	lw	v1,20(v0)
a0805b24:	3c02a081 	lui	v0,0xa081
a0805b28:	8c427290 	lw	v0,29328(v0)
a0805b2c:	8c420140 	lw	v0,320(v0)
a0805b30:	14620006 	bne	v1,v0,a0805b4c <get_tlb_invalid_index+0xac>
a0805b34:	00000000 	nop
a0805b38:	8fc20010 	lw	v0,16(s8)
a0805b3c:	afc20018 	sw	v0,24(s8)
a0805b40:	8fc20018 	lw	v0,24(s8)
a0805b44:	082016da 	j	a0805b68 <get_tlb_invalid_index+0xc8>
a0805b48:	00000000 	nop
a0805b4c:	8fc20010 	lw	v0,16(s8)
a0805b50:	24420001 	addiu	v0,v0,1
a0805b54:	afc20010 	sw	v0,16(s8)
a0805b58:	8fc20010 	lw	v0,16(s8)
a0805b5c:	28420020 	slti	v0,v0,32
a0805b60:	1440ffda 	bnez	v0,a0805acc <get_tlb_invalid_index+0x2c>
a0805b64:	00000000 	nop
a0805b68:	03c0e821 	move	sp,s8
a0805b6c:	8fbf0024 	lw	ra,36(sp)
a0805b70:	8fbe0020 	lw	s8,32(sp)
a0805b74:	27bd0028 	addiu	sp,sp,40
a0805b78:	03e00008 	jr	ra
a0805b7c:	00000000 	nop

a0805b80 <handle_tlb_exception_helper>:
a0805b80:	27bdff60 	addiu	sp,sp,-160
a0805b84:	afbf009c 	sw	ra,156(sp)
a0805b88:	afbe0098 	sw	s8,152(sp)
a0805b8c:	afb00094 	sw	s0,148(sp)
a0805b90:	03a0f021 	move	s8,sp
a0805b94:	24040001 	li	a0,1
a0805b98:	0c2004dc 	jal	a0801370 <vt100_move_cursor>
a0805b9c:	2405002f 	li	a1,47
a0805ba0:	3c02a081 	lui	v0,0xa081
a0805ba4:	0c203fd5 	jal	a080ff54 <printk>
a0805ba8:	24445c2c 	addiu	a0,v0,23596
a0805bac:	3c02a082 	lui	v0,0xa082
a0805bb0:	8c42a070 	lw	v0,-24464(v0)
a0805bb4:	8c450000 	lw	a1,0(v0)
a0805bb8:	3c02a082 	lui	v0,0xa082
a0805bbc:	8c42a070 	lw	v0,-24464(v0)
a0805bc0:	24420004 	addiu	v0,v0,4
a0805bc4:	8c430000 	lw	v1,0(v0)
a0805bc8:	3c02a081 	lui	v0,0xa081
a0805bcc:	24445c38 	addiu	a0,v0,23608
a0805bd0:	0c203fd5 	jal	a080ff54 <printk>
a0805bd4:	00603021 	move	a2,v1
a0805bd8:	24040001 	li	a0,1
a0805bdc:	0c2004dc 	jal	a0801370 <vt100_move_cursor>
a0805be0:	24050030 	li	a1,48
a0805be4:	3c02a082 	lui	v0,0xa082
a0805be8:	8c45a084 	lw	a1,-24444(v0)
a0805bec:	3c02a082 	lui	v0,0xa082
a0805bf0:	8c42a084 	lw	v0,-24444(v0)
a0805bf4:	3c04a082 	lui	a0,0xa082
a0805bf8:	00021900 	sll	v1,v0,0x4
a0805bfc:	00031080 	sll	v0,v1,0x2
a0805c00:	00431023 	subu	v0,v0,v1
a0805c04:	2483a090 	addiu	v1,a0,-24432
a0805c08:	00431021 	addu	v0,v0,v1
a0805c0c:	8c460000 	lw	a2,0(v0)
a0805c10:	3c02a082 	lui	v0,0xa082
a0805c14:	8c42a084 	lw	v0,-24444(v0)
a0805c18:	3c04a082 	lui	a0,0xa082
a0805c1c:	00021840 	sll	v1,v0,0x1
a0805c20:	00031080 	sll	v0,v1,0x2
a0805c24:	00431023 	subu	v0,v0,v1
a0805c28:	24420001 	addiu	v0,v0,1
a0805c2c:	2483a090 	addiu	v1,a0,-24432
a0805c30:	000210c0 	sll	v0,v0,0x3
a0805c34:	00621021 	addu	v0,v1,v0
a0805c38:	8c430004 	lw	v1,4(v0)
a0805c3c:	3c02a081 	lui	v0,0xa081
a0805c40:	24445c40 	addiu	a0,v0,23616
a0805c44:	0c203fd5 	jal	a080ff54 <printk>
a0805c48:	00603821 	move	a3,v1
a0805c4c:	24040001 	li	a0,1
a0805c50:	0c2004dc 	jal	a0801370 <vt100_move_cursor>
a0805c54:	24050031 	li	a1,49
a0805c58:	3c02a082 	lui	v0,0xa082
a0805c5c:	8c46a090 	lw	a2,-24432(v0)
a0805c60:	3c02a082 	lui	v0,0xa082
a0805c64:	2442a090 	addiu	v0,v0,-24432
a0805c68:	8c43000c 	lw	v1,12(v0)
a0805c6c:	3c02a081 	lui	v0,0xa081
a0805c70:	24445c40 	addiu	a0,v0,23616
a0805c74:	00002821 	move	a1,zero
a0805c78:	0c203fd5 	jal	a080ff54 <printk>
a0805c7c:	00603821 	move	a3,v1
a0805c80:	0c200377 	jal	a0800ddc <get_cp0_entryhi>
a0805c84:	afc00088 	sw	zero,136(s8)
a0805c88:	afc20084 	sw	v0,132(s8)
a0805c8c:	8fc20084 	lw	v0,132(s8)
a0805c90:	00021342 	srl	v0,v0,0xd
a0805c94:	0c20037f 	jal	a0800dfc <get_cp0_badvaddr>
a0805c98:	afc20080 	sw	v0,128(s8)
a0805c9c:	afc2007c 	sw	v0,124(s8)
a0805ca0:	8fc2007c 	lw	v0,124(s8)
a0805ca4:	30421000 	andi	v0,v0,0x1000
a0805ca8:	00021302 	srl	v0,v0,0xc
a0805cac:	afc20078 	sw	v0,120(s8)
a0805cb0:	8fc2007c 	lw	v0,124(s8)
a0805cb4:	00021302 	srl	v0,v0,0xc
a0805cb8:	afc20074 	sw	v0,116(s8)
a0805cbc:	3c02a082 	lui	v0,0xa082
a0805cc0:	8c42a070 	lw	v0,-24464(v0)
a0805cc4:	afc20070 	sw	v0,112(s8)
a0805cc8:	3c02a081 	lui	v0,0xa081
a0805ccc:	8c427290 	lw	v0,29328(v0)
a0805cd0:	8c420140 	lw	v0,320(v0)
a0805cd4:	afc2006c 	sw	v0,108(s8)
a0805cd8:	0c20036f 	jal	a0800dbc <get_cp0_index>
a0805cdc:	42000008 	tlbp
a0805ce0:	afc20068 	sw	v0,104(s8)
a0805ce4:	8fc20068 	lw	v0,104(s8)
a0805ce8:	00021fc2 	srl	v1,v0,0x1f
a0805cec:	24020001 	li	v0,1
a0805cf0:	146201a8 	bne	v1,v0,a0806394 <handle_tlb_exception_helper+0x814>
a0805cf4:	00000000 	nop
a0805cf8:	24040001 	li	a0,1
a0805cfc:	0c2004dc 	jal	a0801370 <vt100_move_cursor>
a0805d00:	2405002e 	li	a1,46
a0805d04:	3c02a081 	lui	v0,0xa081
a0805d08:	0c203fd5 	jal	a080ff54 <printk>
a0805d0c:	24445c2c 	addiu	a0,v0,23596
a0805d10:	3c02a081 	lui	v0,0xa081
a0805d14:	24445c4c 	addiu	a0,v0,23628
a0805d18:	0c203fd5 	jal	a080ff54 <printk>
a0805d1c:	2405006f 	li	a1,111
a0805d20:	3c02a082 	lui	v0,0xa082
a0805d24:	8c42a078 	lw	v0,-24456(v0)
a0805d28:	24430001 	addiu	v1,v0,1
a0805d2c:	3c02a082 	lui	v0,0xa082
a0805d30:	0c201664 	jal	a0805990 <check_tlb_wrong_access>
a0805d34:	ac43a078 	sw	v1,-24456(v0)
a0805d38:	00401821 	move	v1,v0
a0805d3c:	24020001 	li	v0,1
a0805d40:	1462000d 	bne	v1,v0,a0805d78 <handle_tlb_exception_helper+0x1f8>
a0805d44:	00000000 	nop
a0805d48:	24040001 	li	a0,1
a0805d4c:	0c2004dc 	jal	a0801370 <vt100_move_cursor>
a0805d50:	2405002d 	li	a1,45
a0805d54:	3c02a083 	lui	v0,0xa083
a0805d58:	8c4320d4 	lw	v1,8404(v0)
a0805d5c:	3c02a081 	lui	v0,0xa081
a0805d60:	24445c50 	addiu	a0,v0,23632
a0805d64:	8fc5006c 	lw	a1,108(s8)
a0805d68:	0c203fd5 	jal	a080ff54 <printk>
a0805d6c:	00603021 	move	a2,v1
a0805d70:	08201a96 	j	a0806a58 <handle_tlb_exception_helper+0xed8>
a0805d74:	00000000 	nop
a0805d78:	8fc20074 	lw	v0,116(s8)
a0805d7c:	00021880 	sll	v1,v0,0x2
a0805d80:	8fc20070 	lw	v0,112(s8)
a0805d84:	00431021 	addu	v0,v0,v1
a0805d88:	8c420000 	lw	v0,0(v0)
a0805d8c:	10400099 	beqz	v0,a0805ff4 <handle_tlb_exception_helper+0x474>
a0805d90:	00000000 	nop
a0805d94:	8fc20074 	lw	v0,116(s8)
a0805d98:	00021880 	sll	v1,v0,0x2
a0805d9c:	8fc20070 	lw	v0,112(s8)
a0805da0:	00431021 	addu	v0,v0,v1
a0805da4:	8c420000 	lw	v0,0(v0)
a0805da8:	30420002 	andi	v0,v0,0x2
a0805dac:	10400091 	beqz	v0,a0805ff4 <handle_tlb_exception_helper+0x474>
a0805db0:	00000000 	nop
a0805db4:	24040001 	li	a0,1
a0805db8:	0c2004dc 	jal	a0801370 <vt100_move_cursor>
a0805dbc:	2405002e 	li	a1,46
a0805dc0:	3c02a081 	lui	v0,0xa081
a0805dc4:	0c203fd5 	jal	a080ff54 <printk>
a0805dc8:	24445c2c 	addiu	a0,v0,23596
a0805dcc:	3c02a081 	lui	v0,0xa081
a0805dd0:	24445c4c 	addiu	a0,v0,23628
a0805dd4:	0c203fd5 	jal	a080ff54 <printk>
a0805dd8:	240500de 	li	a1,222
a0805ddc:	3c02a082 	lui	v0,0xa082
a0805de0:	8c42a080 	lw	v0,-24448(v0)
a0805de4:	24430001 	addiu	v1,v0,1
a0805de8:	000317c3 	sra	v0,v1,0x1f
a0805dec:	000226c2 	srl	a0,v0,0x1b
a0805df0:	00641021 	addu	v0,v1,a0
a0805df4:	3042001f 	andi	v0,v0,0x1f
a0805df8:	00441023 	subu	v0,v0,a0
a0805dfc:	00401821 	move	v1,v0
a0805e00:	3c02a082 	lui	v0,0xa082
a0805e04:	ac43a080 	sw	v1,-24448(v0)
a0805e08:	3c02a082 	lui	v0,0xa082
a0805e0c:	8c42a080 	lw	v0,-24448(v0)
a0805e10:	0c200373 	jal	a0800dcc <set_cp0_index>
a0805e14:	00402021 	move	a0,v0
a0805e18:	0c2003bb 	jal	a0800eec <tlb_flush_no_check>
a0805e1c:	00000000 	nop
a0805e20:	8fc20074 	lw	v0,116(s8)
a0805e24:	00021880 	sll	v1,v0,0x2
a0805e28:	8fc20070 	lw	v0,112(s8)
a0805e2c:	00431021 	addu	v0,v0,v1
a0805e30:	8c420000 	lw	v0,0(v0)
a0805e34:	00021302 	srl	v0,v0,0xc
a0805e38:	afc20064 	sw	v0,100(s8)
a0805e3c:	8fc30078 	lw	v1,120(s8)
a0805e40:	24020001 	li	v0,1
a0805e44:	14620009 	bne	v1,v0,a0805e6c <handle_tlb_exception_helper+0x2ec>
a0805e48:	00000000 	nop
a0805e4c:	8fc20064 	lw	v0,100(s8)
a0805e50:	00021180 	sll	v0,v0,0x6
a0805e54:	34420016 	ori	v0,v0,0x16
a0805e58:	afc20060 	sw	v0,96(s8)
a0805e5c:	0c20038f 	jal	a0800e3c <set_cp0_entrylo1>
a0805e60:	8fc40060 	lw	a0,96(s8)
a0805e64:	082017a1 	j	a0805e84 <handle_tlb_exception_helper+0x304>
a0805e68:	00000000 	nop
a0805e6c:	8fc20064 	lw	v0,100(s8)
a0805e70:	00021180 	sll	v0,v0,0x6
a0805e74:	34420016 	ori	v0,v0,0x16
a0805e78:	afc2005c 	sw	v0,92(s8)
a0805e7c:	0c200387 	jal	a0800e1c <set_cp0_entrylo0>
a0805e80:	8fc4005c 	lw	a0,92(s8)
a0805e84:	0c200397 	jal	a0800e5c <set_cp0_pagemask>
a0805e88:	8fc40088 	lw	a0,136(s8)
a0805e8c:	8fc30084 	lw	v1,132(s8)
a0805e90:	2402e000 	li	v0,-8192
a0805e94:	00621824 	and	v1,v1,v0
a0805e98:	8fc2006c 	lw	v0,108(s8)
a0805e9c:	00621025 	or	v0,v1,v0
a0805ea0:	afc20084 	sw	v0,132(s8)
a0805ea4:	0c20037b 	jal	a0800dec <set_cp0_entryhi>
a0805ea8:	8fc40084 	lw	a0,132(s8)
a0805eac:	42000002 	tlbwi
a0805eb0:	3c02a082 	lui	v0,0xa082
a0805eb4:	8c43a080 	lw	v1,-24448(v0)
a0805eb8:	3c02a081 	lui	v0,0xa081
a0805ebc:	8c427290 	lw	v0,29328(v0)
a0805ec0:	8c420140 	lw	v0,320(v0)
a0805ec4:	00402821 	move	a1,v0
a0805ec8:	3c02a086 	lui	v0,0xa086
a0805ecc:	24440d8c 	addiu	a0,v0,3468
a0805ed0:	00601021 	move	v0,v1
a0805ed4:	000218c0 	sll	v1,v0,0x3
a0805ed8:	00031080 	sll	v0,v1,0x2
a0805edc:	00431023 	subu	v0,v0,v1
a0805ee0:	00821021 	addu	v0,a0,v0
a0805ee4:	ac450014 	sw	a1,20(v0)
a0805ee8:	3c02a082 	lui	v0,0xa082
a0805eec:	8c43a080 	lw	v1,-24448(v0)
a0805ef0:	3c02a086 	lui	v0,0xa086
a0805ef4:	24440d8c 	addiu	a0,v0,3468
a0805ef8:	00601021 	move	v0,v1
a0805efc:	000218c0 	sll	v1,v0,0x3
a0805f00:	00031080 	sll	v0,v1,0x2
a0805f04:	00431023 	subu	v0,v0,v1
a0805f08:	00821021 	addu	v0,a0,v0
a0805f0c:	ac400004 	sw	zero,4(v0)
a0805f10:	3c02a082 	lui	v0,0xa082
a0805f14:	8c43a080 	lw	v1,-24448(v0)
a0805f18:	3c02a082 	lui	v0,0xa082
a0805f1c:	8c42a080 	lw	v0,-24448(v0)
a0805f20:	00402821 	move	a1,v0
a0805f24:	3c04a086 	lui	a0,0xa086
a0805f28:	00601021 	move	v0,v1
a0805f2c:	000218c0 	sll	v1,v0,0x3
a0805f30:	00031080 	sll	v0,v1,0x2
a0805f34:	00431023 	subu	v0,v0,v1
a0805f38:	24830d8c 	addiu	v1,a0,3468
a0805f3c:	00431021 	addu	v0,v0,v1
a0805f40:	ac450000 	sw	a1,0(v0)
a0805f44:	8fc30078 	lw	v1,120(s8)
a0805f48:	24020001 	li	v0,1
a0805f4c:	1462000e 	bne	v1,v0,a0805f88 <handle_tlb_exception_helper+0x408>
a0805f50:	00000000 	nop
a0805f54:	3c02a082 	lui	v0,0xa082
a0805f58:	0c20038b 	jal	a0800e2c <get_cp0_entrylo1>
a0805f5c:	8c50a080 	lw	s0,-24448(v0)
a0805f60:	00022982 	srl	a1,v0,0x6
a0805f64:	3c04a086 	lui	a0,0xa086
a0805f68:	02001021 	move	v0,s0
a0805f6c:	000218c0 	sll	v1,v0,0x3
a0805f70:	00031080 	sll	v0,v1,0x2
a0805f74:	00431023 	subu	v0,v0,v1
a0805f78:	24830d8c 	addiu	v1,a0,3468
a0805f7c:	00431021 	addu	v0,v0,v1
a0805f80:	082017ef 	j	a0805fbc <handle_tlb_exception_helper+0x43c>
a0805f84:	ac450010 	sw	a1,16(v0)
a0805f88:	3c02a082 	lui	v0,0xa082
a0805f8c:	0c200383 	jal	a0800e0c <get_cp0_entrylo0>
a0805f90:	8c50a080 	lw	s0,-24448(v0)
a0805f94:	00022182 	srl	a0,v0,0x6
a0805f98:	3c03a086 	lui	v1,0xa086
a0805f9c:	02001021 	move	v0,s0
a0805fa0:	00021040 	sll	v0,v0,0x1
a0805fa4:	00501021 	addu	v0,v0,s0
a0805fa8:	24420001 	addiu	v0,v0,1
a0805fac:	24630d8c 	addiu	v1,v1,3468
a0805fb0:	000210c0 	sll	v0,v0,0x3
a0805fb4:	00621021 	addu	v0,v1,v0
a0805fb8:	ac440004 	sw	a0,4(v0)
a0805fbc:	3c02a082 	lui	v0,0xa082
a0805fc0:	0c200377 	jal	a0800ddc <get_cp0_entryhi>
a0805fc4:	8c50a080 	lw	s0,-24448(v0)
a0805fc8:	00022342 	srl	a0,v0,0xd
a0805fcc:	3c05a086 	lui	a1,0xa086
a0805fd0:	02001021 	move	v0,s0
a0805fd4:	00021040 	sll	v0,v0,0x1
a0805fd8:	00501021 	addu	v0,v0,s0
a0805fdc:	24420001 	addiu	v0,v0,1
a0805fe0:	000218c0 	sll	v1,v0,0x3
a0805fe4:	24a20d8c 	addiu	v0,a1,3468
a0805fe8:	00621021 	addu	v0,v1,v0
a0805fec:	08201a96 	j	a0806a58 <handle_tlb_exception_helper+0xed8>
a0805ff0:	ac440000 	sw	a0,0(v0)
a0805ff4:	8fc20074 	lw	v0,116(s8)
a0805ff8:	00021880 	sll	v1,v0,0x2
a0805ffc:	8fc20070 	lw	v0,112(s8)
a0806000:	00431021 	addu	v0,v0,v1
a0806004:	8c420000 	lw	v0,0(v0)
a0806008:	10400015 	beqz	v0,a0806060 <handle_tlb_exception_helper+0x4e0>
a080600c:	00000000 	nop
a0806010:	8fc20074 	lw	v0,116(s8)
a0806014:	00021880 	sll	v1,v0,0x2
a0806018:	8fc20070 	lw	v0,112(s8)
a080601c:	00431021 	addu	v0,v0,v1
a0806020:	8c420000 	lw	v0,0(v0)
a0806024:	30420002 	andi	v0,v0,0x2
a0806028:	1440000d 	bnez	v0,a0806060 <handle_tlb_exception_helper+0x4e0>
a080602c:	00000000 	nop
a0806030:	24040001 	li	a0,1
a0806034:	0c2004dc 	jal	a0801370 <vt100_move_cursor>
a0806038:	2405002e 	li	a1,46
a080603c:	3c02a081 	lui	v0,0xa081
a0806040:	0c203fd5 	jal	a080ff54 <printk>
a0806044:	24445c2c 	addiu	a0,v0,23596
a0806048:	3c02a081 	lui	v0,0xa081
a080604c:	24445c4c 	addiu	a0,v0,23628
a0806050:	0c203fd5 	jal	a080ff54 <printk>
a0806054:	2405014d 	li	a1,333
a0806058:	08201a96 	j	a0806a58 <handle_tlb_exception_helper+0xed8>
a080605c:	00000000 	nop
a0806060:	8fc20074 	lw	v0,116(s8)
a0806064:	00021880 	sll	v1,v0,0x2
a0806068:	8fc20070 	lw	v0,112(s8)
a080606c:	00431021 	addu	v0,v0,v1
a0806070:	8c420000 	lw	v0,0(v0)
a0806074:	14400278 	bnez	v0,a0806a58 <handle_tlb_exception_helper+0xed8>
a0806078:	00000000 	nop
a080607c:	24040001 	li	a0,1
a0806080:	0c2004dc 	jal	a0801370 <vt100_move_cursor>
a0806084:	2405002e 	li	a1,46
a0806088:	3c02a081 	lui	v0,0xa081
a080608c:	0c203fd5 	jal	a080ff54 <printk>
a0806090:	24445c2c 	addiu	a0,v0,23596
a0806094:	3c02a081 	lui	v0,0xa081
a0806098:	24445c4c 	addiu	a0,v0,23628
a080609c:	0c203fd5 	jal	a080ff54 <printk>
a08060a0:	240501bc 	li	a1,444
a08060a4:	3c02a081 	lui	v0,0xa081
a08060a8:	8c4272a4 	lw	v0,29348(v0)
a08060ac:	1040026a 	beqz	v0,a0806a58 <handle_tlb_exception_helper+0xed8>
a08060b0:	00000000 	nop
a08060b4:	afc00058 	sw	zero,88(s8)
a08060b8:	8fc40058 	lw	a0,88(s8)
a08060bc:	00002821 	move	a1,zero
a08060c0:	0c201189 	jal	a0804624 <page_alloc>
a08060c4:	00003021 	move	a2,zero
a08060c8:	afc20054 	sw	v0,84(s8)
a08060cc:	8fc20054 	lw	v0,84(s8)
a08060d0:	3c04a082 	lui	a0,0xa082
a08060d4:	00021900 	sll	v1,v0,0x4
a08060d8:	00031080 	sll	v0,v1,0x2
a08060dc:	00431023 	subu	v0,v0,v1
a08060e0:	2483a090 	addiu	v1,a0,-24432
a08060e4:	00431021 	addu	v0,v0,v1
a08060e8:	8c420000 	lw	v0,0(v0)
a08060ec:	00021302 	srl	v0,v0,0xc
a08060f0:	afc20050 	sw	v0,80(s8)
a08060f4:	8fc20074 	lw	v0,116(s8)
a08060f8:	00021880 	sll	v1,v0,0x2
a08060fc:	8fc20070 	lw	v0,112(s8)
a0806100:	00431821 	addu	v1,v0,v1
a0806104:	8fc20050 	lw	v0,80(s8)
a0806108:	00021300 	sll	v0,v0,0xc
a080610c:	34420016 	ori	v0,v0,0x16
a0806110:	ac620000 	sw	v0,0(v1)
a0806114:	24040001 	li	a0,1
a0806118:	0c2004dc 	jal	a0801370 <vt100_move_cursor>
a080611c:	24050032 	li	a1,50
a0806120:	3c02a082 	lui	v0,0xa082
a0806124:	8c45a084 	lw	a1,-24444(v0)
a0806128:	3c02a082 	lui	v0,0xa082
a080612c:	8c42a084 	lw	v0,-24444(v0)
a0806130:	3c04a082 	lui	a0,0xa082
a0806134:	00021900 	sll	v1,v0,0x4
a0806138:	00031080 	sll	v0,v1,0x2
a080613c:	00431023 	subu	v0,v0,v1
a0806140:	2483a090 	addiu	v1,a0,-24432
a0806144:	00431021 	addu	v0,v0,v1
a0806148:	8c460000 	lw	a2,0(v0)
a080614c:	3c02a082 	lui	v0,0xa082
a0806150:	8c42a084 	lw	v0,-24444(v0)
a0806154:	3c04a082 	lui	a0,0xa082
a0806158:	00021840 	sll	v1,v0,0x1
a080615c:	00031080 	sll	v0,v1,0x2
a0806160:	00431023 	subu	v0,v0,v1
a0806164:	24420001 	addiu	v0,v0,1
a0806168:	2483a090 	addiu	v1,a0,-24432
a080616c:	000210c0 	sll	v0,v0,0x3
a0806170:	00621021 	addu	v0,v1,v0
a0806174:	8c430004 	lw	v1,4(v0)
a0806178:	8fc20054 	lw	v0,84(s8)
a080617c:	afa20010 	sw	v0,16(sp)
a0806180:	8fc20050 	lw	v0,80(s8)
a0806184:	afa20014 	sw	v0,20(sp)
a0806188:	3c02a081 	lui	v0,0xa081
a080618c:	24445ca4 	addiu	a0,v0,23716
a0806190:	0c203fd5 	jal	a080ff54 <printk>
a0806194:	00603821 	move	a3,v1
a0806198:	3c02a082 	lui	v0,0xa082
a080619c:	8c42a080 	lw	v0,-24448(v0)
a08061a0:	24430001 	addiu	v1,v0,1
a08061a4:	000317c3 	sra	v0,v1,0x1f
a08061a8:	000226c2 	srl	a0,v0,0x1b
a08061ac:	00641021 	addu	v0,v1,a0
a08061b0:	3042001f 	andi	v0,v0,0x1f
a08061b4:	00441023 	subu	v0,v0,a0
a08061b8:	00401821 	move	v1,v0
a08061bc:	3c02a082 	lui	v0,0xa082
a08061c0:	ac43a080 	sw	v1,-24448(v0)
a08061c4:	3c02a082 	lui	v0,0xa082
a08061c8:	8c42a080 	lw	v0,-24448(v0)
a08061cc:	0c200373 	jal	a0800dcc <set_cp0_index>
a08061d0:	00402021 	move	a0,v0
a08061d4:	0c2003bb 	jal	a0800eec <tlb_flush_no_check>
a08061d8:	00000000 	nop
a08061dc:	8fc30078 	lw	v1,120(s8)
a08061e0:	24020001 	li	v0,1
a08061e4:	14620009 	bne	v1,v0,a080620c <handle_tlb_exception_helper+0x68c>
a08061e8:	00000000 	nop
a08061ec:	8fc20050 	lw	v0,80(s8)
a08061f0:	00021180 	sll	v0,v0,0x6
a08061f4:	34420016 	ori	v0,v0,0x16
a08061f8:	afc2004c 	sw	v0,76(s8)
a08061fc:	0c20038f 	jal	a0800e3c <set_cp0_entrylo1>
a0806200:	8fc4004c 	lw	a0,76(s8)
a0806204:	08201889 	j	a0806224 <handle_tlb_exception_helper+0x6a4>
a0806208:	00000000 	nop
a080620c:	8fc20050 	lw	v0,80(s8)
a0806210:	00021180 	sll	v0,v0,0x6
a0806214:	34420016 	ori	v0,v0,0x16
a0806218:	afc20048 	sw	v0,72(s8)
a080621c:	0c200387 	jal	a0800e1c <set_cp0_entrylo0>
a0806220:	8fc40048 	lw	a0,72(s8)
a0806224:	0c200397 	jal	a0800e5c <set_cp0_pagemask>
a0806228:	8fc40088 	lw	a0,136(s8)
a080622c:	8fc30084 	lw	v1,132(s8)
a0806230:	2402e000 	li	v0,-8192
a0806234:	00621824 	and	v1,v1,v0
a0806238:	8fc2006c 	lw	v0,108(s8)
a080623c:	00621025 	or	v0,v1,v0
a0806240:	afc20084 	sw	v0,132(s8)
a0806244:	0c20037b 	jal	a0800dec <set_cp0_entryhi>
a0806248:	8fc40084 	lw	a0,132(s8)
a080624c:	42000002 	tlbwi
a0806250:	3c02a082 	lui	v0,0xa082
a0806254:	8c43a080 	lw	v1,-24448(v0)
a0806258:	3c02a081 	lui	v0,0xa081
a080625c:	8c427290 	lw	v0,29328(v0)
a0806260:	8c420140 	lw	v0,320(v0)
a0806264:	00402821 	move	a1,v0
a0806268:	3c02a086 	lui	v0,0xa086
a080626c:	24440d8c 	addiu	a0,v0,3468
a0806270:	00601021 	move	v0,v1
a0806274:	000218c0 	sll	v1,v0,0x3
a0806278:	00031080 	sll	v0,v1,0x2
a080627c:	00431023 	subu	v0,v0,v1
a0806280:	00821021 	addu	v0,a0,v0
a0806284:	ac450014 	sw	a1,20(v0)
a0806288:	3c02a082 	lui	v0,0xa082
a080628c:	8c43a080 	lw	v1,-24448(v0)
a0806290:	3c02a086 	lui	v0,0xa086
a0806294:	24440d8c 	addiu	a0,v0,3468
a0806298:	00601021 	move	v0,v1
a080629c:	000218c0 	sll	v1,v0,0x3
a08062a0:	00031080 	sll	v0,v1,0x2
a08062a4:	00431023 	subu	v0,v0,v1
a08062a8:	00821021 	addu	v0,a0,v0
a08062ac:	ac400004 	sw	zero,4(v0)
a08062b0:	3c02a082 	lui	v0,0xa082
a08062b4:	8c43a080 	lw	v1,-24448(v0)
a08062b8:	3c02a082 	lui	v0,0xa082
a08062bc:	8c42a080 	lw	v0,-24448(v0)
a08062c0:	00402821 	move	a1,v0
a08062c4:	3c04a086 	lui	a0,0xa086
a08062c8:	00601021 	move	v0,v1
a08062cc:	000218c0 	sll	v1,v0,0x3
a08062d0:	00031080 	sll	v0,v1,0x2
a08062d4:	00431023 	subu	v0,v0,v1
a08062d8:	24830d8c 	addiu	v1,a0,3468
a08062dc:	00431021 	addu	v0,v0,v1
a08062e0:	ac450000 	sw	a1,0(v0)
a08062e4:	8fc30078 	lw	v1,120(s8)
a08062e8:	24020001 	li	v0,1
a08062ec:	1462000e 	bne	v1,v0,a0806328 <handle_tlb_exception_helper+0x7a8>
a08062f0:	00000000 	nop
a08062f4:	3c02a082 	lui	v0,0xa082
a08062f8:	0c20038b 	jal	a0800e2c <get_cp0_entrylo1>
a08062fc:	8c50a080 	lw	s0,-24448(v0)
a0806300:	00022982 	srl	a1,v0,0x6
a0806304:	3c04a086 	lui	a0,0xa086
a0806308:	02001021 	move	v0,s0
a080630c:	000218c0 	sll	v1,v0,0x3
a0806310:	00031080 	sll	v0,v1,0x2
a0806314:	00431023 	subu	v0,v0,v1
a0806318:	24830d8c 	addiu	v1,a0,3468
a080631c:	00431021 	addu	v0,v0,v1
a0806320:	082018d7 	j	a080635c <handle_tlb_exception_helper+0x7dc>
a0806324:	ac450010 	sw	a1,16(v0)
a0806328:	3c02a082 	lui	v0,0xa082
a080632c:	0c200383 	jal	a0800e0c <get_cp0_entrylo0>
a0806330:	8c50a080 	lw	s0,-24448(v0)
a0806334:	00022182 	srl	a0,v0,0x6
a0806338:	3c03a086 	lui	v1,0xa086
a080633c:	02001021 	move	v0,s0
a0806340:	00021040 	sll	v0,v0,0x1
a0806344:	00501021 	addu	v0,v0,s0
a0806348:	24420001 	addiu	v0,v0,1
a080634c:	24630d8c 	addiu	v1,v1,3468
a0806350:	000210c0 	sll	v0,v0,0x3
a0806354:	00621021 	addu	v0,v1,v0
a0806358:	ac440004 	sw	a0,4(v0)
a080635c:	3c02a082 	lui	v0,0xa082
a0806360:	0c200377 	jal	a0800ddc <get_cp0_entryhi>
a0806364:	8c50a080 	lw	s0,-24448(v0)
a0806368:	00022342 	srl	a0,v0,0xd
a080636c:	3c05a086 	lui	a1,0xa086
a0806370:	02001021 	move	v0,s0
a0806374:	00021040 	sll	v0,v0,0x1
a0806378:	00501021 	addu	v0,v0,s0
a080637c:	24420001 	addiu	v0,v0,1
a0806380:	000218c0 	sll	v1,v0,0x3
a0806384:	24a20d8c 	addiu	v0,a1,3468
a0806388:	00621021 	addu	v0,v1,v0
a080638c:	08201a96 	j	a0806a58 <handle_tlb_exception_helper+0xed8>
a0806390:	ac440000 	sw	a0,0(v0)
a0806394:	24040001 	li	a0,1
a0806398:	0c2004dc 	jal	a0801370 <vt100_move_cursor>
a080639c:	2405002e 	li	a1,46
a08063a0:	3c02a081 	lui	v0,0xa081
a08063a4:	0c203fd5 	jal	a080ff54 <printk>
a08063a8:	24445c2c 	addiu	a0,v0,23596
a08063ac:	3c02a081 	lui	v0,0xa081
a08063b0:	24445c4c 	addiu	a0,v0,23628
a08063b4:	0c203fd5 	jal	a080ff54 <printk>
a08063b8:	2405022b 	li	a1,555
a08063bc:	3c02a082 	lui	v0,0xa082
a08063c0:	8c42a07c 	lw	v0,-24452(v0)
a08063c4:	24430001 	addiu	v1,v0,1
a08063c8:	3c02a082 	lui	v0,0xa082
a08063cc:	ac43a07c 	sw	v1,-24452(v0)
a08063d0:	8fc20074 	lw	v0,116(s8)
a08063d4:	00021880 	sll	v1,v0,0x2
a08063d8:	8fc20070 	lw	v0,112(s8)
a08063dc:	00431021 	addu	v0,v0,v1
a08063e0:	8c420000 	lw	v0,0(v0)
a08063e4:	14400183 	bnez	v0,a08069f4 <handle_tlb_exception_helper+0xe74>
a08063e8:	00000000 	nop
a08063ec:	24040001 	li	a0,1
a08063f0:	0c2004dc 	jal	a0801370 <vt100_move_cursor>
a08063f4:	2405002e 	li	a1,46
a08063f8:	3c02a081 	lui	v0,0xa081
a08063fc:	0c203fd5 	jal	a080ff54 <printk>
a0806400:	24445c2c 	addiu	a0,v0,23596
a0806404:	3c02a081 	lui	v0,0xa081
a0806408:	24445c4c 	addiu	a0,v0,23628
a080640c:	0c203fd5 	jal	a080ff54 <printk>
a0806410:	2405029a 	li	a1,666
a0806414:	3c02a081 	lui	v0,0xa081
a0806418:	8c4272a4 	lw	v0,29348(v0)
a080641c:	104000bb 	beqz	v0,a080670c <handle_tlb_exception_helper+0xb8c>
a0806420:	00000000 	nop
a0806424:	afc00044 	sw	zero,68(s8)
a0806428:	8fc40044 	lw	a0,68(s8)
a080642c:	00002821 	move	a1,zero
a0806430:	0c201189 	jal	a0804624 <page_alloc>
a0806434:	24060001 	li	a2,1
a0806438:	afc20040 	sw	v0,64(s8)
a080643c:	8fc20040 	lw	v0,64(s8)
a0806440:	3c04a082 	lui	a0,0xa082
a0806444:	00021900 	sll	v1,v0,0x4
a0806448:	00031080 	sll	v0,v1,0x2
a080644c:	00431023 	subu	v0,v0,v1
a0806450:	2483a090 	addiu	v1,a0,-24432
a0806454:	00431021 	addu	v0,v0,v1
a0806458:	8c420000 	lw	v0,0(v0)
a080645c:	00021302 	srl	v0,v0,0xc
a0806460:	afc2003c 	sw	v0,60(s8)
a0806464:	8fc20074 	lw	v0,116(s8)
a0806468:	00021880 	sll	v1,v0,0x2
a080646c:	8fc20070 	lw	v0,112(s8)
a0806470:	00431821 	addu	v1,v0,v1
a0806474:	8fc2003c 	lw	v0,60(s8)
a0806478:	00021300 	sll	v0,v0,0xc
a080647c:	34420016 	ori	v0,v0,0x16
a0806480:	ac620000 	sw	v0,0(v1)
a0806484:	24040001 	li	a0,1
a0806488:	0c2004dc 	jal	a0801370 <vt100_move_cursor>
a080648c:	24050032 	li	a1,50
a0806490:	3c02a082 	lui	v0,0xa082
a0806494:	8c45a084 	lw	a1,-24444(v0)
a0806498:	3c02a082 	lui	v0,0xa082
a080649c:	8c42a084 	lw	v0,-24444(v0)
a08064a0:	3c04a082 	lui	a0,0xa082
a08064a4:	00021900 	sll	v1,v0,0x4
a08064a8:	00031080 	sll	v0,v1,0x2
a08064ac:	00431023 	subu	v0,v0,v1
a08064b0:	2483a090 	addiu	v1,a0,-24432
a08064b4:	00431021 	addu	v0,v0,v1
a08064b8:	8c460000 	lw	a2,0(v0)
a08064bc:	3c02a082 	lui	v0,0xa082
a08064c0:	8c42a084 	lw	v0,-24444(v0)
a08064c4:	3c04a082 	lui	a0,0xa082
a08064c8:	00021840 	sll	v1,v0,0x1
a08064cc:	00031080 	sll	v0,v1,0x2
a08064d0:	00431023 	subu	v0,v0,v1
a08064d4:	24420001 	addiu	v0,v0,1
a08064d8:	2483a090 	addiu	v1,a0,-24432
a08064dc:	000210c0 	sll	v0,v0,0x3
a08064e0:	00621021 	addu	v0,v1,v0
a08064e4:	8c430004 	lw	v1,4(v0)
a08064e8:	8fc20040 	lw	v0,64(s8)
a08064ec:	afa20010 	sw	v0,16(sp)
a08064f0:	8fc2003c 	lw	v0,60(s8)
a08064f4:	afa20014 	sw	v0,20(sp)
a08064f8:	3c02a081 	lui	v0,0xa081
a08064fc:	24445ca4 	addiu	a0,v0,23716
a0806500:	0c203fd5 	jal	a080ff54 <printk>
a0806504:	00603821 	move	a3,v1
a0806508:	0c2016a8 	jal	a0805aa0 <get_tlb_invalid_index>
a080650c:	00000000 	nop
a0806510:	afc20038 	sw	v0,56(s8)
a0806514:	0c200373 	jal	a0800dcc <set_cp0_index>
a0806518:	8fc40038 	lw	a0,56(s8)
a080651c:	8fc30078 	lw	v1,120(s8)
a0806520:	24020001 	li	v0,1
a0806524:	14620013 	bne	v1,v0,a0806574 <handle_tlb_exception_helper+0x9f4>
a0806528:	00000000 	nop
a080652c:	8fc2003c 	lw	v0,60(s8)
a0806530:	00021180 	sll	v0,v0,0x6
a0806534:	34420016 	ori	v0,v0,0x16
a0806538:	afc20034 	sw	v0,52(s8)
a080653c:	8fc30038 	lw	v1,56(s8)
a0806540:	3c04a086 	lui	a0,0xa086
a0806544:	00601021 	move	v0,v1
a0806548:	00021040 	sll	v0,v0,0x1
a080654c:	00431021 	addu	v0,v0,v1
a0806550:	24420001 	addiu	v0,v0,1
a0806554:	24830d8c 	addiu	v1,a0,3468
a0806558:	000210c0 	sll	v0,v0,0x3
a080655c:	00621021 	addu	v0,v1,v0
a0806560:	8c420004 	lw	v0,4(v0)
a0806564:	00021180 	sll	v0,v0,0x6
a0806568:	34420016 	ori	v0,v0,0x16
a080656c:	0820196c 	j	a08065b0 <handle_tlb_exception_helper+0xa30>
a0806570:	afc20030 	sw	v0,48(s8)
a0806574:	8fc2003c 	lw	v0,60(s8)
a0806578:	00021180 	sll	v0,v0,0x6
a080657c:	34420016 	ori	v0,v0,0x16
a0806580:	afc20030 	sw	v0,48(s8)
a0806584:	8fc20038 	lw	v0,56(s8)
a0806588:	3c04a086 	lui	a0,0xa086
a080658c:	000218c0 	sll	v1,v0,0x3
a0806590:	00031080 	sll	v0,v1,0x2
a0806594:	00431023 	subu	v0,v0,v1
a0806598:	24830d8c 	addiu	v1,a0,3468
a080659c:	00431021 	addu	v0,v0,v1
a08065a0:	8c420010 	lw	v0,16(v0)
a08065a4:	00021180 	sll	v0,v0,0x6
a08065a8:	34420016 	ori	v0,v0,0x16
a08065ac:	afc20034 	sw	v0,52(s8)
a08065b0:	0c200387 	jal	a0800e1c <set_cp0_entrylo0>
a08065b4:	8fc40030 	lw	a0,48(s8)
a08065b8:	0c20038f 	jal	a0800e3c <set_cp0_entrylo1>
a08065bc:	8fc40034 	lw	a0,52(s8)
a08065c0:	0c200397 	jal	a0800e5c <set_cp0_pagemask>
a08065c4:	8fc40088 	lw	a0,136(s8)
a08065c8:	8fc30084 	lw	v1,132(s8)
a08065cc:	2402e000 	li	v0,-8192
a08065d0:	00621824 	and	v1,v1,v0
a08065d4:	8fc2006c 	lw	v0,108(s8)
a08065d8:	00621025 	or	v0,v1,v0
a08065dc:	afc20084 	sw	v0,132(s8)
a08065e0:	0c20037b 	jal	a0800dec <set_cp0_entryhi>
a08065e4:	8fc40084 	lw	a0,132(s8)
a08065e8:	42000002 	tlbwi
a08065ec:	8fc30038 	lw	v1,56(s8)
a08065f0:	3c02a081 	lui	v0,0xa081
a08065f4:	8c427290 	lw	v0,29328(v0)
a08065f8:	8c420140 	lw	v0,320(v0)
a08065fc:	00402821 	move	a1,v0
a0806600:	3c02a086 	lui	v0,0xa086
a0806604:	24440d8c 	addiu	a0,v0,3468
a0806608:	00601021 	move	v0,v1
a080660c:	000218c0 	sll	v1,v0,0x3
a0806610:	00031080 	sll	v0,v1,0x2
a0806614:	00431023 	subu	v0,v0,v1
a0806618:	00821021 	addu	v0,a0,v0
a080661c:	ac450014 	sw	a1,20(v0)
a0806620:	8fc30038 	lw	v1,56(s8)
a0806624:	3c02a086 	lui	v0,0xa086
a0806628:	24440d8c 	addiu	a0,v0,3468
a080662c:	00601021 	move	v0,v1
a0806630:	000218c0 	sll	v1,v0,0x3
a0806634:	00031080 	sll	v0,v1,0x2
a0806638:	00431023 	subu	v0,v0,v1
a080663c:	00821021 	addu	v0,a0,v0
a0806640:	ac400004 	sw	zero,4(v0)
a0806644:	8fc20038 	lw	v0,56(s8)
a0806648:	3c04a086 	lui	a0,0xa086
a080664c:	000218c0 	sll	v1,v0,0x3
a0806650:	00031080 	sll	v0,v1,0x2
a0806654:	00431023 	subu	v0,v0,v1
a0806658:	24830d8c 	addiu	v1,a0,3468
a080665c:	00431821 	addu	v1,v0,v1
a0806660:	8fc20038 	lw	v0,56(s8)
a0806664:	ac620000 	sw	v0,0(v1)
a0806668:	8fc30078 	lw	v1,120(s8)
a080666c:	24020001 	li	v0,1
a0806670:	1462000d 	bne	v1,v0,a08066a8 <handle_tlb_exception_helper+0xb28>
a0806674:	00000000 	nop
a0806678:	0c20038b 	jal	a0800e2c <get_cp0_entrylo1>
a080667c:	8fd00038 	lw	s0,56(s8)
a0806680:	00022982 	srl	a1,v0,0x6
a0806684:	3c04a086 	lui	a0,0xa086
a0806688:	02001021 	move	v0,s0
a080668c:	000218c0 	sll	v1,v0,0x3
a0806690:	00031080 	sll	v0,v1,0x2
a0806694:	00431023 	subu	v0,v0,v1
a0806698:	24830d8c 	addiu	v1,a0,3468
a080669c:	00431021 	addu	v0,v0,v1
a08066a0:	082019b6 	j	a08066d8 <handle_tlb_exception_helper+0xb58>
a08066a4:	ac450010 	sw	a1,16(v0)
a08066a8:	0c200383 	jal	a0800e0c <get_cp0_entrylo0>
a08066ac:	8fd00038 	lw	s0,56(s8)
a08066b0:	00022182 	srl	a0,v0,0x6
a08066b4:	3c03a086 	lui	v1,0xa086
a08066b8:	02001021 	move	v0,s0
a08066bc:	00021040 	sll	v0,v0,0x1
a08066c0:	00501021 	addu	v0,v0,s0
a08066c4:	24420001 	addiu	v0,v0,1
a08066c8:	24630d8c 	addiu	v1,v1,3468
a08066cc:	000210c0 	sll	v0,v0,0x3
a08066d0:	00621021 	addu	v0,v1,v0
a08066d4:	ac440004 	sw	a0,4(v0)
a08066d8:	0c200377 	jal	a0800ddc <get_cp0_entryhi>
a08066dc:	8fd00038 	lw	s0,56(s8)
a08066e0:	00022342 	srl	a0,v0,0xd
a08066e4:	3c05a086 	lui	a1,0xa086
a08066e8:	02001021 	move	v0,s0
a08066ec:	00021040 	sll	v0,v0,0x1
a08066f0:	00501021 	addu	v0,v0,s0
a08066f4:	24420001 	addiu	v0,v0,1
a08066f8:	000218c0 	sll	v1,v0,0x3
a08066fc:	24a20d8c 	addiu	v0,a1,3468
a0806700:	00621021 	addu	v0,v1,v0
a0806704:	08201a96 	j	a0806a58 <handle_tlb_exception_helper+0xed8>
a0806708:	ac440000 	sw	a0,0(v0)
a080670c:	afc0002c 	sw	zero,44(s8)
a0806710:	8fc4002c 	lw	a0,44(s8)
a0806714:	00002821 	move	a1,zero
a0806718:	0c201189 	jal	a0804624 <page_alloc>
a080671c:	24060001 	li	a2,1
a0806720:	afc20028 	sw	v0,40(s8)
a0806724:	8fc20028 	lw	v0,40(s8)
a0806728:	3c04a082 	lui	a0,0xa082
a080672c:	00021900 	sll	v1,v0,0x4
a0806730:	00031080 	sll	v0,v1,0x2
a0806734:	00431023 	subu	v0,v0,v1
a0806738:	2483a090 	addiu	v1,a0,-24432
a080673c:	00431021 	addu	v0,v0,v1
a0806740:	8c420000 	lw	v0,0(v0)
a0806744:	00021302 	srl	v0,v0,0xc
a0806748:	afc20024 	sw	v0,36(s8)
a080674c:	8fc20074 	lw	v0,116(s8)
a0806750:	00021880 	sll	v1,v0,0x2
a0806754:	8fc20070 	lw	v0,112(s8)
a0806758:	00431821 	addu	v1,v0,v1
a080675c:	8fc20024 	lw	v0,36(s8)
a0806760:	00021300 	sll	v0,v0,0xc
a0806764:	34420016 	ori	v0,v0,0x16
a0806768:	ac620000 	sw	v0,0(v1)
a080676c:	24040001 	li	a0,1
a0806770:	0c2004dc 	jal	a0801370 <vt100_move_cursor>
a0806774:	24050032 	li	a1,50
a0806778:	3c02a082 	lui	v0,0xa082
a080677c:	8c45a084 	lw	a1,-24444(v0)
a0806780:	3c02a082 	lui	v0,0xa082
a0806784:	8c42a084 	lw	v0,-24444(v0)
a0806788:	3c04a082 	lui	a0,0xa082
a080678c:	00021900 	sll	v1,v0,0x4
a0806790:	00031080 	sll	v0,v1,0x2
a0806794:	00431023 	subu	v0,v0,v1
a0806798:	2483a090 	addiu	v1,a0,-24432
a080679c:	00431021 	addu	v0,v0,v1
a08067a0:	8c460000 	lw	a2,0(v0)
a08067a4:	3c02a082 	lui	v0,0xa082
a08067a8:	8c42a084 	lw	v0,-24444(v0)
a08067ac:	3c04a082 	lui	a0,0xa082
a08067b0:	00021840 	sll	v1,v0,0x1
a08067b4:	00031080 	sll	v0,v1,0x2
a08067b8:	00431023 	subu	v0,v0,v1
a08067bc:	24420001 	addiu	v0,v0,1
a08067c0:	2483a090 	addiu	v1,a0,-24432
a08067c4:	000210c0 	sll	v0,v0,0x3
a08067c8:	00621021 	addu	v0,v1,v0
a08067cc:	8c430004 	lw	v1,4(v0)
a08067d0:	8fc20028 	lw	v0,40(s8)
a08067d4:	afa20010 	sw	v0,16(sp)
a08067d8:	8fc20024 	lw	v0,36(s8)
a08067dc:	afa20014 	sw	v0,20(sp)
a08067e0:	3c02a081 	lui	v0,0xa081
a08067e4:	24445ca4 	addiu	a0,v0,23716
a08067e8:	0c203fd5 	jal	a080ff54 <printk>
a08067ec:	00603821 	move	a3,v1
a08067f0:	0c2016a8 	jal	a0805aa0 <get_tlb_invalid_index>
a08067f4:	00000000 	nop
a08067f8:	afc20020 	sw	v0,32(s8)
a08067fc:	0c200373 	jal	a0800dcc <set_cp0_index>
a0806800:	8fc40020 	lw	a0,32(s8)
a0806804:	8fc30078 	lw	v1,120(s8)
a0806808:	24020001 	li	v0,1
a080680c:	14620013 	bne	v1,v0,a080685c <handle_tlb_exception_helper+0xcdc>
a0806810:	00000000 	nop
a0806814:	8fc20024 	lw	v0,36(s8)
a0806818:	00021180 	sll	v0,v0,0x6
a080681c:	34420016 	ori	v0,v0,0x16
a0806820:	afc2001c 	sw	v0,28(s8)
a0806824:	8fc30020 	lw	v1,32(s8)
a0806828:	3c04a086 	lui	a0,0xa086
a080682c:	00601021 	move	v0,v1
a0806830:	00021040 	sll	v0,v0,0x1
a0806834:	00431021 	addu	v0,v0,v1
a0806838:	24420001 	addiu	v0,v0,1
a080683c:	24830d8c 	addiu	v1,a0,3468
a0806840:	000210c0 	sll	v0,v0,0x3
a0806844:	00621021 	addu	v0,v1,v0
a0806848:	8c420004 	lw	v0,4(v0)
a080684c:	00021180 	sll	v0,v0,0x6
a0806850:	34420016 	ori	v0,v0,0x16
a0806854:	08201a26 	j	a0806898 <handle_tlb_exception_helper+0xd18>
a0806858:	afc20018 	sw	v0,24(s8)
a080685c:	8fc20024 	lw	v0,36(s8)
a0806860:	00021180 	sll	v0,v0,0x6
a0806864:	34420016 	ori	v0,v0,0x16
a0806868:	afc20018 	sw	v0,24(s8)
a080686c:	8fc20020 	lw	v0,32(s8)
a0806870:	3c04a086 	lui	a0,0xa086
a0806874:	000218c0 	sll	v1,v0,0x3
a0806878:	00031080 	sll	v0,v1,0x2
a080687c:	00431023 	subu	v0,v0,v1
a0806880:	24830d8c 	addiu	v1,a0,3468
a0806884:	00431021 	addu	v0,v0,v1
a0806888:	8c420010 	lw	v0,16(v0)
a080688c:	00021180 	sll	v0,v0,0x6
a0806890:	34420016 	ori	v0,v0,0x16
a0806894:	afc2001c 	sw	v0,28(s8)
a0806898:	0c200387 	jal	a0800e1c <set_cp0_entrylo0>
a080689c:	8fc40018 	lw	a0,24(s8)
a08068a0:	0c20038f 	jal	a0800e3c <set_cp0_entrylo1>
a08068a4:	8fc4001c 	lw	a0,28(s8)
a08068a8:	0c200397 	jal	a0800e5c <set_cp0_pagemask>
a08068ac:	8fc40088 	lw	a0,136(s8)
a08068b0:	8fc30084 	lw	v1,132(s8)
a08068b4:	2402e000 	li	v0,-8192
a08068b8:	00621824 	and	v1,v1,v0
a08068bc:	8fc2006c 	lw	v0,108(s8)
a08068c0:	00621025 	or	v0,v1,v0
a08068c4:	afc20084 	sw	v0,132(s8)
a08068c8:	0c20037b 	jal	a0800dec <set_cp0_entryhi>
a08068cc:	8fc40084 	lw	a0,132(s8)
a08068d0:	42000002 	tlbwi
a08068d4:	8fc30020 	lw	v1,32(s8)
a08068d8:	3c02a081 	lui	v0,0xa081
a08068dc:	8c427290 	lw	v0,29328(v0)
a08068e0:	8c420140 	lw	v0,320(v0)
a08068e4:	00402821 	move	a1,v0
a08068e8:	3c02a086 	lui	v0,0xa086
a08068ec:	24440d8c 	addiu	a0,v0,3468
a08068f0:	00601021 	move	v0,v1
a08068f4:	000218c0 	sll	v1,v0,0x3
a08068f8:	00031080 	sll	v0,v1,0x2
a08068fc:	00431023 	subu	v0,v0,v1
a0806900:	00821021 	addu	v0,a0,v0
a0806904:	ac450014 	sw	a1,20(v0)
a0806908:	8fc30020 	lw	v1,32(s8)
a080690c:	3c02a086 	lui	v0,0xa086
a0806910:	24440d8c 	addiu	a0,v0,3468
a0806914:	00601021 	move	v0,v1
a0806918:	000218c0 	sll	v1,v0,0x3
a080691c:	00031080 	sll	v0,v1,0x2
a0806920:	00431023 	subu	v0,v0,v1
a0806924:	00821021 	addu	v0,a0,v0
a0806928:	ac400004 	sw	zero,4(v0)
a080692c:	8fc20020 	lw	v0,32(s8)
a0806930:	3c04a086 	lui	a0,0xa086
a0806934:	000218c0 	sll	v1,v0,0x3
a0806938:	00031080 	sll	v0,v1,0x2
a080693c:	00431023 	subu	v0,v0,v1
a0806940:	24830d8c 	addiu	v1,a0,3468
a0806944:	00431821 	addu	v1,v0,v1
a0806948:	8fc20020 	lw	v0,32(s8)
a080694c:	ac620000 	sw	v0,0(v1)
a0806950:	8fc30078 	lw	v1,120(s8)
a0806954:	24020001 	li	v0,1
a0806958:	1462000d 	bne	v1,v0,a0806990 <handle_tlb_exception_helper+0xe10>
a080695c:	00000000 	nop
a0806960:	0c20038b 	jal	a0800e2c <get_cp0_entrylo1>
a0806964:	8fd00020 	lw	s0,32(s8)
a0806968:	00022982 	srl	a1,v0,0x6
a080696c:	3c04a086 	lui	a0,0xa086
a0806970:	02001021 	move	v0,s0
a0806974:	000218c0 	sll	v1,v0,0x3
a0806978:	00031080 	sll	v0,v1,0x2
a080697c:	00431023 	subu	v0,v0,v1
a0806980:	24830d8c 	addiu	v1,a0,3468
a0806984:	00431021 	addu	v0,v0,v1
a0806988:	08201a70 	j	a08069c0 <handle_tlb_exception_helper+0xe40>
a080698c:	ac450010 	sw	a1,16(v0)
a0806990:	0c200383 	jal	a0800e0c <get_cp0_entrylo0>
a0806994:	8fd00020 	lw	s0,32(s8)
a0806998:	00022182 	srl	a0,v0,0x6
a080699c:	3c03a086 	lui	v1,0xa086
a08069a0:	02001021 	move	v0,s0
a08069a4:	00021040 	sll	v0,v0,0x1
a08069a8:	00501021 	addu	v0,v0,s0
a08069ac:	24420001 	addiu	v0,v0,1
a08069b0:	24630d8c 	addiu	v1,v1,3468
a08069b4:	000210c0 	sll	v0,v0,0x3
a08069b8:	00621021 	addu	v0,v1,v0
a08069bc:	ac440004 	sw	a0,4(v0)
a08069c0:	0c200377 	jal	a0800ddc <get_cp0_entryhi>
a08069c4:	8fd00020 	lw	s0,32(s8)
a08069c8:	00022342 	srl	a0,v0,0xd
a08069cc:	3c05a086 	lui	a1,0xa086
a08069d0:	02001021 	move	v0,s0
a08069d4:	00021040 	sll	v0,v0,0x1
a08069d8:	00501021 	addu	v0,v0,s0
a08069dc:	24420001 	addiu	v0,v0,1
a08069e0:	000218c0 	sll	v1,v0,0x3
a08069e4:	24a20d8c 	addiu	v0,a1,3468
a08069e8:	00621021 	addu	v0,v1,v0
a08069ec:	08201a96 	j	a0806a58 <handle_tlb_exception_helper+0xed8>
a08069f0:	ac440000 	sw	a0,0(v0)
a08069f4:	8fc20074 	lw	v0,116(s8)
a08069f8:	00021880 	sll	v1,v0,0x2
a08069fc:	8fc20070 	lw	v0,112(s8)
a0806a00:	00431021 	addu	v0,v0,v1
a0806a04:	8c420000 	lw	v0,0(v0)
a0806a08:	10400013 	beqz	v0,a0806a58 <handle_tlb_exception_helper+0xed8>
a0806a0c:	00000000 	nop
a0806a10:	8fc20074 	lw	v0,116(s8)
a0806a14:	00021880 	sll	v1,v0,0x2
a0806a18:	8fc20070 	lw	v0,112(s8)
a0806a1c:	00431021 	addu	v0,v0,v1
a0806a20:	8c420000 	lw	v0,0(v0)
a0806a24:	30420002 	andi	v0,v0,0x2
a0806a28:	1440000b 	bnez	v0,a0806a58 <handle_tlb_exception_helper+0xed8>
a0806a2c:	00000000 	nop
a0806a30:	24040001 	li	a0,1
a0806a34:	0c2004dc 	jal	a0801370 <vt100_move_cursor>
a0806a38:	2405002e 	li	a1,46
a0806a3c:	3c02a081 	lui	v0,0xa081
a0806a40:	0c203fd5 	jal	a080ff54 <printk>
a0806a44:	24445c2c 	addiu	a0,v0,23596
a0806a48:	3c02a081 	lui	v0,0xa081
a0806a4c:	24445c4c 	addiu	a0,v0,23628
a0806a50:	0c203fd5 	jal	a080ff54 <printk>
a0806a54:	24050309 	li	a1,777
a0806a58:	03c0e821 	move	sp,s8
a0806a5c:	8fbf009c 	lw	ra,156(sp)
a0806a60:	8fbe0098 	lw	s8,152(sp)
a0806a64:	8fb00094 	lw	s0,148(sp)
a0806a68:	03e00008 	jr	ra
a0806a6c:	27bd00a0 	addiu	sp,sp,160

a0806a70 <print_sp_reg>:
a0806a70:	27bdffe0 	addiu	sp,sp,-32
a0806a74:	afbf001c 	sw	ra,28(sp)
a0806a78:	afbe0018 	sw	s8,24(sp)
a0806a7c:	03a0f021 	move	s8,sp
a0806a80:	0c20039b 	jal	a0800e6c <get_sp_reg>
a0806a84:	00000000 	nop
a0806a88:	afc20010 	sw	v0,16(s8)
a0806a8c:	24040002 	li	a0,2
a0806a90:	24050002 	li	a1,2
a0806a94:	0c2004dc 	jal	a0801370 <vt100_move_cursor>
a0806a98:	00000000 	nop
a0806a9c:	3c02a081 	lui	v0,0xa081
a0806aa0:	24445c18 	addiu	a0,v0,23576
a0806aa4:	8fc50010 	lw	a1,16(s8)
a0806aa8:	0c203fd5 	jal	a080ff54 <printk>
a0806aac:	00000000 	nop
a0806ab0:	03c0e821 	move	sp,s8
a0806ab4:	8fbf001c 	lw	ra,28(sp)
a0806ab8:	8fbe0018 	lw	s8,24(sp)
a0806abc:	27bd0020 	addiu	sp,sp,32
a0806ac0:	03e00008 	jr	ra
a0806ac4:	00000000 	nop
	...

a0806ad0 <get_queue_head_daedline>:
a0806ad0:	27bdfff8 	addiu	sp,sp,-8
a0806ad4:	afbe0004 	sw	s8,4(sp)
a0806ad8:	03a0f021 	move	s8,sp
a0806adc:	afc40008 	sw	a0,8(s8)
a0806ae0:	8fc20008 	lw	v0,8(s8)
a0806ae4:	8c420000 	lw	v0,0(v0)
a0806ae8:	8c4201a0 	lw	v0,416(v0)
a0806aec:	03c0e821 	move	sp,s8
a0806af0:	8fbe0004 	lw	s8,4(sp)
a0806af4:	27bd0008 	addiu	sp,sp,8
a0806af8:	03e00008 	jr	ra
a0806afc:	00000000 	nop

a0806b00 <check_sleeping>:
a0806b00:	27bdffd8 	addiu	sp,sp,-40
a0806b04:	afbf0024 	sw	ra,36(sp)
a0806b08:	afbe0020 	sw	s8,32(sp)
a0806b0c:	03a0f021 	move	s8,sp
a0806b10:	0c20226e 	jal	a08089b8 <get_timer>
a0806b14:	00000000 	nop
a0806b18:	afc20014 	sw	v0,20(s8)
a0806b1c:	3c02a081 	lui	v0,0xa081
a0806b20:	24447ac4 	addiu	a0,v0,31428
a0806b24:	0c20214b 	jal	a080852c <queue_is_empty>
a0806b28:	00000000 	nop
a0806b2c:	14400029 	bnez	v0,a0806bd4 <check_sleeping+0xd4>
a0806b30:	00000000 	nop
a0806b34:	3c02a081 	lui	v0,0xa081
a0806b38:	8c427ac4 	lw	v0,31428(v0)
a0806b3c:	afc20010 	sw	v0,16(s8)
a0806b40:	08201aec 	j	a0806bb0 <check_sleeping+0xb0>
a0806b44:	00000000 	nop
a0806b48:	8fc20010 	lw	v0,16(s8)
a0806b4c:	8c4301a0 	lw	v1,416(v0)
a0806b50:	8fc20014 	lw	v0,20(s8)
a0806b54:	0062102b 	sltu	v0,v1,v0
a0806b58:	10400012 	beqz	v0,a0806ba4 <check_sleeping+0xa4>
a0806b5c:	00000000 	nop
a0806b60:	3c02a081 	lui	v0,0xa081
a0806b64:	24447ac4 	addiu	a0,v0,31428
a0806b68:	8fc50010 	lw	a1,16(s8)
a0806b6c:	0c2021ed 	jal	a08087b4 <queue_remove>
a0806b70:	00000000 	nop
a0806b74:	8fc30010 	lw	v1,16(s8)
a0806b78:	24020002 	li	v0,2
a0806b7c:	ac620158 	sw	v0,344(v1)
a0806b80:	3c02a081 	lui	v0,0xa081
a0806b84:	24447abc 	addiu	a0,v0,31420
a0806b88:	8fc50010 	lw	a1,16(s8)
a0806b8c:	0c20215e 	jal	a0808578 <queue_push>
a0806b90:	00000000 	nop
a0806b94:	24020001 	li	v0,1
a0806b98:	afc20018 	sw	v0,24(s8)
a0806b9c:	08201af0 	j	a0806bc0 <check_sleeping+0xc0>
a0806ba0:	00000000 	nop
a0806ba4:	8fc20010 	lw	v0,16(s8)
a0806ba8:	8c420150 	lw	v0,336(v0)
a0806bac:	afc20010 	sw	v0,16(s8)
a0806bb0:	8fc20010 	lw	v0,16(s8)
a0806bb4:	1440ffe4 	bnez	v0,a0806b48 <check_sleeping+0x48>
a0806bb8:	00000000 	nop
a0806bbc:	afc00018 	sw	zero,24(s8)
a0806bc0:	8fc20018 	lw	v0,24(s8)
a0806bc4:	afc2001c 	sw	v0,28(s8)
a0806bc8:	8fc2001c 	lw	v0,28(s8)
a0806bcc:	08201af5 	j	a0806bd4 <check_sleeping+0xd4>
a0806bd0:	00000000 	nop
a0806bd4:	03c0e821 	move	sp,s8
a0806bd8:	8fbf0024 	lw	ra,36(sp)
a0806bdc:	8fbe0020 	lw	s8,32(sp)
a0806be0:	27bd0028 	addiu	sp,sp,40
a0806be4:	03e00008 	jr	ra
a0806be8:	00000000 	nop

a0806bec <deadline_comp>:
a0806bec:	27bdfff0 	addiu	sp,sp,-16
a0806bf0:	afbe000c 	sw	s8,12(sp)
a0806bf4:	03a0f021 	move	s8,sp
a0806bf8:	afc40010 	sw	a0,16(s8)
a0806bfc:	afc50014 	sw	a1,20(s8)
a0806c00:	8fc20010 	lw	v0,16(s8)
a0806c04:	afc20004 	sw	v0,4(s8)
a0806c08:	8fc20014 	lw	v0,20(s8)
a0806c0c:	afc20000 	sw	v0,0(s8)
a0806c10:	8fc20000 	lw	v0,0(s8)
a0806c14:	8c4301a0 	lw	v1,416(v0)
a0806c18:	8fc20004 	lw	v0,4(s8)
a0806c1c:	8c4201a0 	lw	v0,416(v0)
a0806c20:	0043102b 	sltu	v0,v0,v1
a0806c24:	03c0e821 	move	sp,s8
a0806c28:	8fbe000c 	lw	s8,12(sp)
a0806c2c:	27bd0010 	addiu	sp,sp,16
a0806c30:	03e00008 	jr	ra
a0806c34:	00000000 	nop

a0806c38 <scheduler>:
a0806c38:	27bdffe0 	addiu	sp,sp,-32
a0806c3c:	afbf001c 	sw	ra,28(sp)
a0806c40:	afbe0018 	sw	s8,24(sp)
a0806c44:	03a0f021 	move	s8,sp
a0806c48:	3c02a081 	lui	v0,0xa081
a0806c4c:	8c437290 	lw	v1,29328(v0)
a0806c50:	3c02a081 	lui	v0,0xa081
a0806c54:	8c427aa4 	lw	v0,31396(v0)
a0806c58:	ac62015c 	sw	v0,348(v1)
a0806c5c:	3c02a081 	lui	v0,0xa081
a0806c60:	8c437290 	lw	v1,29328(v0)
a0806c64:	3c02a081 	lui	v0,0xa081
a0806c68:	8c427aa8 	lw	v0,31400(v0)
a0806c6c:	ac620160 	sw	v0,352(v1)
a0806c70:	3c02a081 	lui	v0,0xa081
a0806c74:	8c427290 	lw	v0,29328(v0)
a0806c78:	8c430158 	lw	v1,344(v0)
a0806c7c:	24020001 	li	v0,1
a0806c80:	14620011 	bne	v1,v0,a0806cc8 <scheduler+0x90>
a0806c84:	00000000 	nop
a0806c88:	3c02a081 	lui	v0,0xa081
a0806c8c:	8c437290 	lw	v1,29328(v0)
a0806c90:	24020002 	li	v0,2
a0806c94:	ac620158 	sw	v0,344(v1)
a0806c98:	3c02a081 	lui	v0,0xa081
a0806c9c:	8c427290 	lw	v0,29328(v0)
a0806ca0:	8c420148 	lw	v0,328(v0)
a0806ca4:	10400008 	beqz	v0,a0806cc8 <scheduler+0x90>
a0806ca8:	00000000 	nop
a0806cac:	3c02a081 	lui	v0,0xa081
a0806cb0:	8c437290 	lw	v1,29328(v0)
a0806cb4:	3c02a081 	lui	v0,0xa081
a0806cb8:	24447abc 	addiu	a0,v0,31420
a0806cbc:	00602821 	move	a1,v1
a0806cc0:	0c20215e 	jal	a0808578 <queue_push>
a0806cc4:	00000000 	nop
a0806cc8:	0c201ac0 	jal	a0806b00 <check_sleeping>
a0806ccc:	00000000 	nop
a0806cd0:	08201b3e 	j	a0806cf8 <scheduler+0xc0>
a0806cd4:	00000000 	nop
a0806cd8:	3c02a081 	lui	v0,0xa081
a0806cdc:	24447ac4 	addiu	a0,v0,31428
a0806ce0:	0c20214b 	jal	a080852c <queue_is_empty>
a0806ce4:	00000000 	nop
a0806ce8:	14400009 	bnez	v0,a0806d10 <scheduler+0xd8>
a0806cec:	00000000 	nop
a0806cf0:	0c201ac0 	jal	a0806b00 <check_sleeping>
a0806cf4:	00000000 	nop
a0806cf8:	3c02a081 	lui	v0,0xa081
a0806cfc:	24447abc 	addiu	a0,v0,31420
a0806d00:	0c20214b 	jal	a080852c <queue_is_empty>
a0806d04:	00000000 	nop
a0806d08:	1440fff3 	bnez	v0,a0806cd8 <scheduler+0xa0>
a0806d0c:	00000000 	nop
a0806d10:	3c02a081 	lui	v0,0xa081
a0806d14:	8c427abc 	lw	v0,31420(v0)
a0806d18:	afc20010 	sw	v0,16(s8)
a0806d1c:	08201b4c 	j	a0806d30 <scheduler+0xf8>
a0806d20:	00000000 	nop
a0806d24:	8fc20010 	lw	v0,16(s8)
a0806d28:	8c420150 	lw	v0,336(v0)
a0806d2c:	afc20010 	sw	v0,16(s8)
a0806d30:	3c02a081 	lui	v0,0xa081
a0806d34:	24427abc 	addiu	v0,v0,31420
a0806d38:	8c420004 	lw	v0,4(v0)
a0806d3c:	00401821 	move	v1,v0
a0806d40:	8fc20010 	lw	v0,16(s8)
a0806d44:	10620009 	beq	v1,v0,a0806d6c <scheduler+0x134>
a0806d48:	00000000 	nop
a0806d4c:	8fc20010 	lw	v0,16(s8)
a0806d50:	8c430168 	lw	v1,360(v0)
a0806d54:	8fc20010 	lw	v0,16(s8)
a0806d58:	8c420150 	lw	v0,336(v0)
a0806d5c:	8c420168 	lw	v0,360(v0)
a0806d60:	0062102a 	slt	v0,v1,v0
a0806d64:	1440ffef 	bnez	v0,a0806d24 <scheduler+0xec>
a0806d68:	00000000 	nop
a0806d6c:	3c02a081 	lui	v0,0xa081
a0806d70:	8c437290 	lw	v1,29328(v0)
a0806d74:	8c620168 	lw	v0,360(v1)
a0806d78:	2442ffff 	addiu	v0,v0,-1
a0806d7c:	ac620168 	sw	v0,360(v1)
a0806d80:	3c03a081 	lui	v1,0xa081
a0806d84:	8fc20010 	lw	v0,16(s8)
a0806d88:	ac627290 	sw	v0,29328(v1)
a0806d8c:	3c02a081 	lui	v0,0xa081
a0806d90:	24447abc 	addiu	a0,v0,31420
a0806d94:	8fc50010 	lw	a1,16(s8)
a0806d98:	0c2021ed 	jal	a08087b4 <queue_remove>
a0806d9c:	00000000 	nop
a0806da0:	3c02a081 	lui	v0,0xa081
a0806da4:	8c437290 	lw	v1,29328(v0)
a0806da8:	24020001 	li	v0,1
a0806dac:	ac620158 	sw	v0,344(v1)
a0806db0:	3c02a081 	lui	v0,0xa081
a0806db4:	8c427290 	lw	v0,29328(v0)
a0806db8:	8c43015c 	lw	v1,348(v0)
a0806dbc:	3c02a081 	lui	v0,0xa081
a0806dc0:	ac437aa4 	sw	v1,31396(v0)
a0806dc4:	3c02a081 	lui	v0,0xa081
a0806dc8:	8c427290 	lw	v0,29328(v0)
a0806dcc:	8c430160 	lw	v1,352(v0)
a0806dd0:	3c02a081 	lui	v0,0xa081
a0806dd4:	ac437aa8 	sw	v1,31400(v0)
a0806dd8:	03c0e821 	move	sp,s8
a0806ddc:	8fbf001c 	lw	ra,28(sp)
a0806de0:	8fbe0018 	lw	s8,24(sp)
a0806de4:	27bd0020 	addiu	sp,sp,32
a0806de8:	03e00008 	jr	ra
a0806dec:	00000000 	nop

a0806df0 <do_sleep>:
a0806df0:	27bdffe0 	addiu	sp,sp,-32
a0806df4:	afbf001c 	sw	ra,28(sp)
a0806df8:	afbe0018 	sw	s8,24(sp)
a0806dfc:	afb00014 	sw	s0,20(sp)
a0806e00:	03a0f021 	move	s8,sp
a0806e04:	afc40020 	sw	a0,32(s8)
a0806e08:	3c02a081 	lui	v0,0xa081
a0806e0c:	8c427290 	lw	v0,29328(v0)
a0806e10:	8c430158 	lw	v1,344(v0)
a0806e14:	24020001 	li	v0,1
a0806e18:	14620014 	bne	v1,v0,a0806e6c <do_sleep+0x7c>
a0806e1c:	00000000 	nop
a0806e20:	3c02a081 	lui	v0,0xa081
a0806e24:	8c437290 	lw	v1,29328(v0)
a0806e28:	24020005 	li	v0,5
a0806e2c:	ac620158 	sw	v0,344(v1)
a0806e30:	3c02a081 	lui	v0,0xa081
a0806e34:	8c507290 	lw	s0,29328(v0)
a0806e38:	0c20226e 	jal	a08089b8 <get_timer>
a0806e3c:	00000000 	nop
a0806e40:	00401821 	move	v1,v0
a0806e44:	8fc20020 	lw	v0,32(s8)
a0806e48:	00621021 	addu	v0,v1,v0
a0806e4c:	ae0201a0 	sw	v0,416(s0)
a0806e50:	3c02a081 	lui	v0,0xa081
a0806e54:	8c437290 	lw	v1,29328(v0)
a0806e58:	3c02a081 	lui	v0,0xa081
a0806e5c:	24447ac4 	addiu	a0,v0,31428
a0806e60:	00602821 	move	a1,v1
a0806e64:	0c20215e 	jal	a0808578 <queue_push>
a0806e68:	00000000 	nop
a0806e6c:	0c2000b5 	jal	a08002d4 <do_scheduler>
a0806e70:	00000000 	nop
a0806e74:	03c0e821 	move	sp,s8
a0806e78:	8fbf001c 	lw	ra,28(sp)
a0806e7c:	8fbe0018 	lw	s8,24(sp)
a0806e80:	8fb00014 	lw	s0,20(sp)
a0806e84:	27bd0020 	addiu	sp,sp,32
a0806e88:	03e00008 	jr	ra
a0806e8c:	00000000 	nop

a0806e90 <priority_comp>:
a0806e90:	27bdfff0 	addiu	sp,sp,-16
a0806e94:	afbe000c 	sw	s8,12(sp)
a0806e98:	03a0f021 	move	s8,sp
a0806e9c:	afc40010 	sw	a0,16(s8)
a0806ea0:	afc50014 	sw	a1,20(s8)
a0806ea4:	8fc20010 	lw	v0,16(s8)
a0806ea8:	afc20004 	sw	v0,4(s8)
a0806eac:	8fc20014 	lw	v0,20(s8)
a0806eb0:	afc20000 	sw	v0,0(s8)
a0806eb4:	8fc20000 	lw	v0,0(s8)
a0806eb8:	8c430168 	lw	v1,360(v0)
a0806ebc:	8fc20004 	lw	v0,4(s8)
a0806ec0:	8c420168 	lw	v0,360(v0)
a0806ec4:	0043102a 	slt	v0,v0,v1
a0806ec8:	03c0e821 	move	sp,s8
a0806ecc:	8fbe000c 	lw	s8,12(sp)
a0806ed0:	27bd0010 	addiu	sp,sp,16
a0806ed4:	03e00008 	jr	ra
a0806ed8:	00000000 	nop

a0806edc <do_block>:
a0806edc:	27bdffe8 	addiu	sp,sp,-24
a0806ee0:	afbf0014 	sw	ra,20(sp)
a0806ee4:	afbe0010 	sw	s8,16(sp)
a0806ee8:	03a0f021 	move	s8,sp
a0806eec:	afc40018 	sw	a0,24(s8)
a0806ef0:	3c02a081 	lui	v0,0xa081
a0806ef4:	8c427290 	lw	v0,29328(v0)
a0806ef8:	8c430158 	lw	v1,344(v0)
a0806efc:	24020001 	li	v0,1
a0806f00:	1462000a 	bne	v1,v0,a0806f2c <do_block+0x50>
a0806f04:	00000000 	nop
a0806f08:	3c02a081 	lui	v0,0xa081
a0806f0c:	8c427290 	lw	v0,29328(v0)
a0806f10:	ac400158 	sw	zero,344(v0)
a0806f14:	3c02a081 	lui	v0,0xa081
a0806f18:	8c427290 	lw	v0,29328(v0)
a0806f1c:	8fc40018 	lw	a0,24(s8)
a0806f20:	00402821 	move	a1,v0
a0806f24:	0c20215e 	jal	a0808578 <queue_push>
a0806f28:	00000000 	nop
a0806f2c:	0c2000b5 	jal	a08002d4 <do_scheduler>
a0806f30:	00000000 	nop
a0806f34:	03c0e821 	move	sp,s8
a0806f38:	8fbf0014 	lw	ra,20(sp)
a0806f3c:	8fbe0010 	lw	s8,16(sp)
a0806f40:	27bd0018 	addiu	sp,sp,24
a0806f44:	03e00008 	jr	ra
a0806f48:	00000000 	nop

a0806f4c <do_unblock_one>:
a0806f4c:	27bdffe0 	addiu	sp,sp,-32
a0806f50:	afbf001c 	sw	ra,28(sp)
a0806f54:	afbe0018 	sw	s8,24(sp)
a0806f58:	03a0f021 	move	s8,sp
a0806f5c:	afc40020 	sw	a0,32(s8)
a0806f60:	8fc40020 	lw	a0,32(s8)
a0806f64:	0c20214b 	jal	a080852c <queue_is_empty>
a0806f68:	00000000 	nop
a0806f6c:	14400025 	bnez	v0,a0807004 <do_unblock_one+0xb8>
a0806f70:	00000000 	nop
a0806f74:	8fc20020 	lw	v0,32(s8)
a0806f78:	8c420000 	lw	v0,0(v0)
a0806f7c:	afc20010 	sw	v0,16(s8)
a0806f80:	08201be5 	j	a0806f94 <do_unblock_one+0x48>
a0806f84:	00000000 	nop
a0806f88:	8fc20010 	lw	v0,16(s8)
a0806f8c:	8c420150 	lw	v0,336(v0)
a0806f90:	afc20010 	sw	v0,16(s8)
a0806f94:	8fc20020 	lw	v0,32(s8)
a0806f98:	8c420004 	lw	v0,4(v0)
a0806f9c:	00401821 	move	v1,v0
a0806fa0:	8fc20010 	lw	v0,16(s8)
a0806fa4:	10620009 	beq	v1,v0,a0806fcc <do_unblock_one+0x80>
a0806fa8:	00000000 	nop
a0806fac:	8fc20010 	lw	v0,16(s8)
a0806fb0:	8c430168 	lw	v1,360(v0)
a0806fb4:	8fc20010 	lw	v0,16(s8)
a0806fb8:	8c420150 	lw	v0,336(v0)
a0806fbc:	8c420168 	lw	v0,360(v0)
a0806fc0:	0062102a 	slt	v0,v1,v0
a0806fc4:	1440fff0 	bnez	v0,a0806f88 <do_unblock_one+0x3c>
a0806fc8:	00000000 	nop
a0806fcc:	8fc20010 	lw	v0,16(s8)
a0806fd0:	afc20014 	sw	v0,20(s8)
a0806fd4:	8fc40020 	lw	a0,32(s8)
a0806fd8:	8fc50010 	lw	a1,16(s8)
a0806fdc:	0c2021ed 	jal	a08087b4 <queue_remove>
a0806fe0:	00000000 	nop
a0806fe4:	8fc30014 	lw	v1,20(s8)
a0806fe8:	24020002 	li	v0,2
a0806fec:	ac620158 	sw	v0,344(v1)
a0806ff0:	3c02a081 	lui	v0,0xa081
a0806ff4:	24447abc 	addiu	a0,v0,31420
a0806ff8:	8fc50014 	lw	a1,20(s8)
a0806ffc:	0c20215e 	jal	a0808578 <queue_push>
a0807000:	00000000 	nop
a0807004:	03c0e821 	move	sp,s8
a0807008:	8fbf001c 	lw	ra,28(sp)
a080700c:	8fbe0018 	lw	s8,24(sp)
a0807010:	27bd0020 	addiu	sp,sp,32
a0807014:	03e00008 	jr	ra
a0807018:	00000000 	nop

a080701c <do_unblock_all>:
a080701c:	27bdffe8 	addiu	sp,sp,-24
a0807020:	afbf0014 	sw	ra,20(sp)
a0807024:	afbe0010 	sw	s8,16(sp)
a0807028:	03a0f021 	move	s8,sp
a080702c:	afc40018 	sw	a0,24(s8)
a0807030:	08201c11 	j	a0807044 <do_unblock_all+0x28>
a0807034:	00000000 	nop
a0807038:	8fc40018 	lw	a0,24(s8)
a080703c:	0c201bd3 	jal	a0806f4c <do_unblock_one>
a0807040:	00000000 	nop
a0807044:	8fc40018 	lw	a0,24(s8)
a0807048:	0c20214b 	jal	a080852c <queue_is_empty>
a080704c:	00000000 	nop
a0807050:	1040fff9 	beqz	v0,a0807038 <do_unblock_all+0x1c>
a0807054:	00000000 	nop
a0807058:	03c0e821 	move	sp,s8
a080705c:	8fbf0014 	lw	ra,20(sp)
a0807060:	8fbe0010 	lw	s8,16(sp)
a0807064:	27bd0018 	addiu	sp,sp,24
a0807068:	03e00008 	jr	ra
a080706c:	00000000 	nop

a0807070 <do_ps>:
a0807070:	27bdffe8 	addiu	sp,sp,-24
a0807074:	afbe0014 	sw	s8,20(sp)
a0807078:	03a0f021 	move	s8,sp
a080707c:	24020001 	li	v0,1
a0807080:	afc20008 	sw	v0,8(s8)
a0807084:	afc00004 	sw	zero,4(s8)
a0807088:	3c02a081 	lui	v0,0xa081
a080708c:	8c427abc 	lw	v0,31420(v0)
a0807090:	afc20000 	sw	v0,0(s8)
a0807094:	3c02a087 	lui	v0,0xa087
a0807098:	ac404924 	sw	zero,18724(v0)
a080709c:	3c02a081 	lui	v0,0xa081
a08070a0:	8c427290 	lw	v0,29328(v0)
a08070a4:	8c430140 	lw	v1,320(v0)
a08070a8:	3c02a087 	lui	v0,0xa087
a08070ac:	24424924 	addiu	v0,v0,18724
a08070b0:	ac430004 	sw	v1,4(v0)
a08070b4:	3c02a081 	lui	v0,0xa081
a08070b8:	8c427290 	lw	v0,29328(v0)
a08070bc:	8c430158 	lw	v1,344(v0)
a08070c0:	3c02a087 	lui	v0,0xa087
a08070c4:	24424924 	addiu	v0,v0,18724
a08070c8:	ac430008 	sw	v1,8(v0)
a08070cc:	afc00004 	sw	zero,4(s8)
a08070d0:	08201c81 	j	a0807204 <do_ps+0x194>
a08070d4:	00000000 	nop
a08070d8:	8fc40004 	lw	a0,4(s8)
a08070dc:	3c05a086 	lui	a1,0xa086
a08070e0:	00801021 	move	v0,a0
a08070e4:	00021900 	sll	v1,v0,0x4
a08070e8:	00031080 	sll	v0,v1,0x2
a08070ec:	00431023 	subu	v0,v0,v1
a08070f0:	00441023 	subu	v0,v0,a0
a08070f4:	000218c0 	sll	v1,v0,0x3
a08070f8:	00431021 	addu	v0,v0,v1
a08070fc:	00441821 	addu	v1,v0,a0
a0807100:	24a2cacc 	addiu	v0,a1,-13620
a0807104:	00621021 	addu	v0,v1,v0
a0807108:	8c430158 	lw	v1,344(v0)
a080710c:	24020002 	li	v0,2
a0807110:	14620039 	bne	v1,v0,a08071f8 <do_ps+0x188>
a0807114:	00000000 	nop
a0807118:	8fc20008 	lw	v0,8(s8)
a080711c:	3c04a087 	lui	a0,0xa087
a0807120:	00021880 	sll	v1,v0,0x2
a0807124:	00031080 	sll	v0,v1,0x2
a0807128:	00431023 	subu	v0,v0,v1
a080712c:	24834924 	addiu	v1,a0,18724
a0807130:	00431821 	addu	v1,v0,v1
a0807134:	8fc20008 	lw	v0,8(s8)
a0807138:	ac620000 	sw	v0,0(v1)
a080713c:	8fc60008 	lw	a2,8(s8)
a0807140:	8fc40004 	lw	a0,4(s8)
a0807144:	3c05a086 	lui	a1,0xa086
a0807148:	00801021 	move	v0,a0
a080714c:	00021900 	sll	v1,v0,0x4
a0807150:	00031080 	sll	v0,v1,0x2
a0807154:	00431023 	subu	v0,v0,v1
a0807158:	00441023 	subu	v0,v0,a0
a080715c:	000218c0 	sll	v1,v0,0x3
a0807160:	00431021 	addu	v0,v0,v1
a0807164:	00441821 	addu	v1,v0,a0
a0807168:	24a2cacc 	addiu	v0,a1,-13620
a080716c:	00621021 	addu	v0,v1,v0
a0807170:	8c450140 	lw	a1,320(v0)
a0807174:	3c02a087 	lui	v0,0xa087
a0807178:	24444924 	addiu	a0,v0,18724
a080717c:	00c01021 	move	v0,a2
a0807180:	00021880 	sll	v1,v0,0x2
a0807184:	00031080 	sll	v0,v1,0x2
a0807188:	00431023 	subu	v0,v0,v1
a080718c:	00821021 	addu	v0,a0,v0
a0807190:	ac450004 	sw	a1,4(v0)
a0807194:	8fc60008 	lw	a2,8(s8)
a0807198:	8fc40004 	lw	a0,4(s8)
a080719c:	3c05a086 	lui	a1,0xa086
a08071a0:	00801021 	move	v0,a0
a08071a4:	00021900 	sll	v1,v0,0x4
a08071a8:	00031080 	sll	v0,v1,0x2
a08071ac:	00431023 	subu	v0,v0,v1
a08071b0:	00441023 	subu	v0,v0,a0
a08071b4:	000218c0 	sll	v1,v0,0x3
a08071b8:	00431021 	addu	v0,v0,v1
a08071bc:	00441821 	addu	v1,v0,a0
a08071c0:	24a2cacc 	addiu	v0,a1,-13620
a08071c4:	00621021 	addu	v0,v1,v0
a08071c8:	8c450158 	lw	a1,344(v0)
a08071cc:	3c04a087 	lui	a0,0xa087
a08071d0:	00c01021 	move	v0,a2
a08071d4:	00021880 	sll	v1,v0,0x2
a08071d8:	00031080 	sll	v0,v1,0x2
a08071dc:	00431023 	subu	v0,v0,v1
a08071e0:	24834924 	addiu	v1,a0,18724
a08071e4:	00431021 	addu	v0,v0,v1
a08071e8:	ac450008 	sw	a1,8(v0)
a08071ec:	8fc20008 	lw	v0,8(s8)
a08071f0:	24420001 	addiu	v0,v0,1
a08071f4:	afc20008 	sw	v0,8(s8)
a08071f8:	8fc20004 	lw	v0,4(s8)
a08071fc:	24420001 	addiu	v0,v0,1
a0807200:	afc20004 	sw	v0,4(s8)
a0807204:	8fc20004 	lw	v0,4(s8)
a0807208:	28420028 	slti	v0,v0,40
a080720c:	1440ffb2 	bnez	v0,a08070d8 <do_ps+0x68>
a0807210:	00000000 	nop
a0807214:	afc00004 	sw	zero,4(s8)
a0807218:	08201cd3 	j	a080734c <do_ps+0x2dc>
a080721c:	00000000 	nop
a0807220:	8fc40004 	lw	a0,4(s8)
a0807224:	3c05a086 	lui	a1,0xa086
a0807228:	00801021 	move	v0,a0
a080722c:	00021900 	sll	v1,v0,0x4
a0807230:	00031080 	sll	v0,v1,0x2
a0807234:	00431023 	subu	v0,v0,v1
a0807238:	00441023 	subu	v0,v0,a0
a080723c:	000218c0 	sll	v1,v0,0x3
a0807240:	00431021 	addu	v0,v0,v1
a0807244:	00441821 	addu	v1,v0,a0
a0807248:	24a2cacc 	addiu	v0,a1,-13620
a080724c:	00621021 	addu	v0,v1,v0
a0807250:	8c430158 	lw	v1,344(v0)
a0807254:	24020005 	li	v0,5
a0807258:	14620039 	bne	v1,v0,a0807340 <do_ps+0x2d0>
a080725c:	00000000 	nop
a0807260:	8fc20008 	lw	v0,8(s8)
a0807264:	3c04a087 	lui	a0,0xa087
a0807268:	00021880 	sll	v1,v0,0x2
a080726c:	00031080 	sll	v0,v1,0x2
a0807270:	00431023 	subu	v0,v0,v1
a0807274:	24834924 	addiu	v1,a0,18724
a0807278:	00431821 	addu	v1,v0,v1
a080727c:	8fc20008 	lw	v0,8(s8)
a0807280:	ac620000 	sw	v0,0(v1)
a0807284:	8fc60008 	lw	a2,8(s8)
a0807288:	8fc40004 	lw	a0,4(s8)
a080728c:	3c05a086 	lui	a1,0xa086
a0807290:	00801021 	move	v0,a0
a0807294:	00021900 	sll	v1,v0,0x4
a0807298:	00031080 	sll	v0,v1,0x2
a080729c:	00431023 	subu	v0,v0,v1
a08072a0:	00441023 	subu	v0,v0,a0
a08072a4:	000218c0 	sll	v1,v0,0x3
a08072a8:	00431021 	addu	v0,v0,v1
a08072ac:	00441821 	addu	v1,v0,a0
a08072b0:	24a2cacc 	addiu	v0,a1,-13620
a08072b4:	00621021 	addu	v0,v1,v0
a08072b8:	8c450140 	lw	a1,320(v0)
a08072bc:	3c02a087 	lui	v0,0xa087
a08072c0:	24444924 	addiu	a0,v0,18724
a08072c4:	00c01021 	move	v0,a2
a08072c8:	00021880 	sll	v1,v0,0x2
a08072cc:	00031080 	sll	v0,v1,0x2
a08072d0:	00431023 	subu	v0,v0,v1
a08072d4:	00821021 	addu	v0,a0,v0
a08072d8:	ac450004 	sw	a1,4(v0)
a08072dc:	8fc60008 	lw	a2,8(s8)
a08072e0:	8fc40004 	lw	a0,4(s8)
a08072e4:	3c05a086 	lui	a1,0xa086
a08072e8:	00801021 	move	v0,a0
a08072ec:	00021900 	sll	v1,v0,0x4
a08072f0:	00031080 	sll	v0,v1,0x2
a08072f4:	00431023 	subu	v0,v0,v1
a08072f8:	00441023 	subu	v0,v0,a0
a08072fc:	000218c0 	sll	v1,v0,0x3
a0807300:	00431021 	addu	v0,v0,v1
a0807304:	00441821 	addu	v1,v0,a0
a0807308:	24a2cacc 	addiu	v0,a1,-13620
a080730c:	00621021 	addu	v0,v1,v0
a0807310:	8c450158 	lw	a1,344(v0)
a0807314:	3c04a087 	lui	a0,0xa087
a0807318:	00c01021 	move	v0,a2
a080731c:	00021880 	sll	v1,v0,0x2
a0807320:	00031080 	sll	v0,v1,0x2
a0807324:	00431023 	subu	v0,v0,v1
a0807328:	24834924 	addiu	v1,a0,18724
a080732c:	00431021 	addu	v0,v0,v1
a0807330:	ac450008 	sw	a1,8(v0)
a0807334:	8fc20008 	lw	v0,8(s8)
a0807338:	24420001 	addiu	v0,v0,1
a080733c:	afc20008 	sw	v0,8(s8)
a0807340:	8fc20004 	lw	v0,4(s8)
a0807344:	24420001 	addiu	v0,v0,1
a0807348:	afc20004 	sw	v0,4(s8)
a080734c:	8fc20004 	lw	v0,4(s8)
a0807350:	28420028 	slti	v0,v0,40
a0807354:	1440ffb2 	bnez	v0,a0807220 <do_ps+0x1b0>
a0807358:	00000000 	nop
a080735c:	afc00004 	sw	zero,4(s8)
a0807360:	08201d24 	j	a0807490 <do_ps+0x420>
a0807364:	00000000 	nop
a0807368:	8fc40004 	lw	a0,4(s8)
a080736c:	3c05a086 	lui	a1,0xa086
a0807370:	00801021 	move	v0,a0
a0807374:	00021900 	sll	v1,v0,0x4
a0807378:	00031080 	sll	v0,v1,0x2
a080737c:	00431023 	subu	v0,v0,v1
a0807380:	00441023 	subu	v0,v0,a0
a0807384:	000218c0 	sll	v1,v0,0x3
a0807388:	00431021 	addu	v0,v0,v1
a080738c:	00441821 	addu	v1,v0,a0
a0807390:	24a2cacc 	addiu	v0,a1,-13620
a0807394:	00621021 	addu	v0,v1,v0
a0807398:	8c420158 	lw	v0,344(v0)
a080739c:	14400039 	bnez	v0,a0807484 <do_ps+0x414>
a08073a0:	00000000 	nop
a08073a4:	8fc20008 	lw	v0,8(s8)
a08073a8:	3c04a087 	lui	a0,0xa087
a08073ac:	00021880 	sll	v1,v0,0x2
a08073b0:	00031080 	sll	v0,v1,0x2
a08073b4:	00431023 	subu	v0,v0,v1
a08073b8:	24834924 	addiu	v1,a0,18724
a08073bc:	00431821 	addu	v1,v0,v1
a08073c0:	8fc20008 	lw	v0,8(s8)
a08073c4:	ac620000 	sw	v0,0(v1)
a08073c8:	8fc60008 	lw	a2,8(s8)
a08073cc:	8fc40004 	lw	a0,4(s8)
a08073d0:	3c05a086 	lui	a1,0xa086
a08073d4:	00801021 	move	v0,a0
a08073d8:	00021900 	sll	v1,v0,0x4
a08073dc:	00031080 	sll	v0,v1,0x2
a08073e0:	00431023 	subu	v0,v0,v1
a08073e4:	00441023 	subu	v0,v0,a0
a08073e8:	000218c0 	sll	v1,v0,0x3
a08073ec:	00431021 	addu	v0,v0,v1
a08073f0:	00441821 	addu	v1,v0,a0
a08073f4:	24a2cacc 	addiu	v0,a1,-13620
a08073f8:	00621021 	addu	v0,v1,v0
a08073fc:	8c450140 	lw	a1,320(v0)
a0807400:	3c02a087 	lui	v0,0xa087
a0807404:	24444924 	addiu	a0,v0,18724
a0807408:	00c01021 	move	v0,a2
a080740c:	00021880 	sll	v1,v0,0x2
a0807410:	00031080 	sll	v0,v1,0x2
a0807414:	00431023 	subu	v0,v0,v1
a0807418:	00821021 	addu	v0,a0,v0
a080741c:	ac450004 	sw	a1,4(v0)
a0807420:	8fc60008 	lw	a2,8(s8)
a0807424:	8fc40004 	lw	a0,4(s8)
a0807428:	3c05a086 	lui	a1,0xa086
a080742c:	00801021 	move	v0,a0
a0807430:	00021900 	sll	v1,v0,0x4
a0807434:	00031080 	sll	v0,v1,0x2
a0807438:	00431023 	subu	v0,v0,v1
a080743c:	00441023 	subu	v0,v0,a0
a0807440:	000218c0 	sll	v1,v0,0x3
a0807444:	00431021 	addu	v0,v0,v1
a0807448:	00441821 	addu	v1,v0,a0
a080744c:	24a2cacc 	addiu	v0,a1,-13620
a0807450:	00621021 	addu	v0,v1,v0
a0807454:	8c450158 	lw	a1,344(v0)
a0807458:	3c04a087 	lui	a0,0xa087
a080745c:	00c01021 	move	v0,a2
a0807460:	00021880 	sll	v1,v0,0x2
a0807464:	00031080 	sll	v0,v1,0x2
a0807468:	00431023 	subu	v0,v0,v1
a080746c:	24834924 	addiu	v1,a0,18724
a0807470:	00431021 	addu	v0,v0,v1
a0807474:	ac450008 	sw	a1,8(v0)
a0807478:	8fc20008 	lw	v0,8(s8)
a080747c:	24420001 	addiu	v0,v0,1
a0807480:	afc20008 	sw	v0,8(s8)
a0807484:	8fc20004 	lw	v0,4(s8)
a0807488:	24420001 	addiu	v0,v0,1
a080748c:	afc20004 	sw	v0,4(s8)
a0807490:	8fc20004 	lw	v0,4(s8)
a0807494:	28420028 	slti	v0,v0,40
a0807498:	1440ffb3 	bnez	v0,a0807368 <do_ps+0x2f8>
a080749c:	00000000 	nop
a08074a0:	8fc20008 	lw	v0,8(s8)
a08074a4:	3c04a087 	lui	a0,0xa087
a08074a8:	00021880 	sll	v1,v0,0x2
a08074ac:	00031080 	sll	v0,v1,0x2
a08074b0:	00431023 	subu	v0,v0,v1
a08074b4:	24834924 	addiu	v1,a0,18724
a08074b8:	00431821 	addu	v1,v0,v1
a08074bc:	2402ffff 	li	v0,-1
a08074c0:	ac620000 	sw	v0,0(v1)
a08074c4:	03c0e821 	move	sp,s8
a08074c8:	8fbe0014 	lw	s8,20(sp)
a08074cc:	27bd0018 	addiu	sp,sp,24
a08074d0:	03e00008 	jr	ra
a08074d4:	00000000 	nop

a08074d8 <do_spawn>:
a08074d8:	27bdffe0 	addiu	sp,sp,-32
a08074dc:	afbf001c 	sw	ra,28(sp)
a08074e0:	afbe0018 	sw	s8,24(sp)
a08074e4:	03a0f021 	move	s8,sp
a08074e8:	afc40020 	sw	a0,32(s8)
a08074ec:	afc00014 	sw	zero,20(s8)
a08074f0:	3c02a082 	lui	v0,0xa082
a08074f4:	8c42a064 	lw	v0,-24476(v0)
a08074f8:	24430001 	addiu	v1,v0,1
a08074fc:	3c02a082 	lui	v0,0xa082
a0807500:	ac43a064 	sw	v1,-24476(v0)
a0807504:	08201d4a 	j	a0807528 <do_spawn+0x50>
a0807508:	00000000 	nop
a080750c:	8fc20014 	lw	v0,20(s8)
a0807510:	24420001 	addiu	v0,v0,1
a0807514:	afc20014 	sw	v0,20(s8)
a0807518:	8fc20014 	lw	v0,20(s8)
a080751c:	28420028 	slti	v0,v0,40
a0807520:	104001f1 	beqz	v0,a0807ce8 <do_spawn+0x810>
a0807524:	00000000 	nop
a0807528:	8fc40014 	lw	a0,20(s8)
a080752c:	3c05a086 	lui	a1,0xa086
a0807530:	00801021 	move	v0,a0
a0807534:	00021900 	sll	v1,v0,0x4
a0807538:	00031080 	sll	v0,v1,0x2
a080753c:	00431023 	subu	v0,v0,v1
a0807540:	00441023 	subu	v0,v0,a0
a0807544:	000218c0 	sll	v1,v0,0x3
a0807548:	00431021 	addu	v0,v0,v1
a080754c:	00441821 	addu	v1,v0,a0
a0807550:	24a2cacc 	addiu	v0,a1,-13620
a0807554:	00621021 	addu	v0,v1,v0
a0807558:	8c430158 	lw	v1,344(v0)
a080755c:	24020003 	li	v0,3
a0807560:	1462ffea 	bne	v1,v0,a080750c <do_spawn+0x34>
a0807564:	00000000 	nop
a0807568:	3c02a082 	lui	v0,0xa082
a080756c:	8c42a064 	lw	v0,-24476(v0)
a0807570:	00402021 	move	a0,v0
a0807574:	0c200366 	jal	a0800d98 <set_entryhi_asid>
a0807578:	00000000 	nop
a080757c:	8fc40014 	lw	a0,20(s8)
a0807580:	00801021 	move	v0,a0
a0807584:	00021900 	sll	v1,v0,0x4
a0807588:	00031080 	sll	v0,v1,0x2
a080758c:	00431023 	subu	v0,v0,v1
a0807590:	00441023 	subu	v0,v0,a0
a0807594:	000218c0 	sll	v1,v0,0x3
a0807598:	00431021 	addu	v0,v0,v1
a080759c:	00441021 	addu	v0,v0,a0
a08075a0:	24430198 	addiu	v1,v0,408
a08075a4:	3c02a086 	lui	v0,0xa086
a08075a8:	2442cacc 	addiu	v0,v0,-13620
a08075ac:	00621021 	addu	v0,v1,v0
a08075b0:	00402021 	move	a0,v0
a08075b4:	0c20213c 	jal	a08084f0 <queue_init>
a08075b8:	00000000 	nop
a08075bc:	8fc40014 	lw	a0,20(s8)
a08075c0:	00801021 	move	v0,a0
a08075c4:	00021900 	sll	v1,v0,0x4
a08075c8:	00031080 	sll	v0,v1,0x2
a08075cc:	00431023 	subu	v0,v0,v1
a08075d0:	00441023 	subu	v0,v0,a0
a08075d4:	000218c0 	sll	v1,v0,0x3
a08075d8:	00431021 	addu	v0,v0,v1
a08075dc:	00441821 	addu	v1,v0,a0
a08075e0:	3c02a086 	lui	v0,0xa086
a08075e4:	2442cacc 	addiu	v0,v0,-13620
a08075e8:	00621021 	addu	v0,v1,v0
a08075ec:	00402021 	move	a0,v0
a08075f0:	2405009c 	li	a1,156
a08075f4:	0c203ad3 	jal	a080eb4c <bzero>
a08075f8:	00000000 	nop
a08075fc:	8fc40014 	lw	a0,20(s8)
a0807600:	00801021 	move	v0,a0
a0807604:	00021900 	sll	v1,v0,0x4
a0807608:	00031080 	sll	v0,v1,0x2
a080760c:	00431023 	subu	v0,v0,v1
a0807610:	00441023 	subu	v0,v0,a0
a0807614:	000218c0 	sll	v1,v0,0x3
a0807618:	00431021 	addu	v0,v0,v1
a080761c:	00441021 	addu	v0,v0,a0
a0807620:	24430098 	addiu	v1,v0,152
a0807624:	3c02a086 	lui	v0,0xa086
a0807628:	2442cacc 	addiu	v0,v0,-13620
a080762c:	00621021 	addu	v0,v1,v0
a0807630:	24420004 	addiu	v0,v0,4
a0807634:	00402021 	move	a0,v0
a0807638:	2405009c 	li	a1,156
a080763c:	0c203ad3 	jal	a080eb4c <bzero>
a0807640:	00000000 	nop
a0807644:	afc00010 	sw	zero,16(s8)
a0807648:	08201da6 	j	a0807698 <do_spawn+0x1c0>
a080764c:	00000000 	nop
a0807650:	8fc40014 	lw	a0,20(s8)
a0807654:	8fc50010 	lw	a1,16(s8)
a0807658:	3c06a086 	lui	a2,0xa086
a080765c:	00801021 	move	v0,a0
a0807660:	000218c0 	sll	v1,v0,0x3
a0807664:	00641823 	subu	v1,v1,a0
a0807668:	00031100 	sll	v0,v1,0x4
a080766c:	00431023 	subu	v0,v0,v1
a0807670:	00441021 	addu	v0,v0,a0
a0807674:	00451021 	addu	v0,v0,a1
a0807678:	2442005a 	addiu	v0,v0,90
a080767c:	24c3cacc 	addiu	v1,a2,-13620
a0807680:	00021080 	sll	v0,v0,0x2
a0807684:	00621021 	addu	v0,v1,v0
a0807688:	ac400004 	sw	zero,4(v0)
a080768c:	8fc20010 	lw	v0,16(s8)
a0807690:	24420001 	addiu	v0,v0,1
a0807694:	afc20010 	sw	v0,16(s8)
a0807698:	8fc20010 	lw	v0,16(s8)
a080769c:	2842000a 	slti	v0,v0,10
a08076a0:	1440ffeb 	bnez	v0,a0807650 <do_spawn+0x178>
a08076a4:	00000000 	nop
a08076a8:	8fc40014 	lw	a0,20(s8)
a08076ac:	3c02a081 	lui	v0,0xa081
a08076b0:	8c467294 	lw	a2,29332(v0)
a08076b4:	3c05a086 	lui	a1,0xa086
a08076b8:	00801021 	move	v0,a0
a08076bc:	00021900 	sll	v1,v0,0x4
a08076c0:	00031080 	sll	v0,v1,0x2
a08076c4:	00431023 	subu	v0,v0,v1
a08076c8:	00441023 	subu	v0,v0,a0
a08076cc:	000218c0 	sll	v1,v0,0x3
a08076d0:	00431021 	addu	v0,v0,v1
a08076d4:	00441821 	addu	v1,v0,a0
a08076d8:	24a2cacc 	addiu	v0,a1,-13620
a08076dc:	00621021 	addu	v0,v1,v0
a08076e0:	ac460074 	sw	a2,116(v0)
a08076e4:	8fc40014 	lw	a0,20(s8)
a08076e8:	3c02a081 	lui	v0,0xa081
a08076ec:	8c437294 	lw	v1,29332(v0)
a08076f0:	3c020008 	lui	v0,0x8
a08076f4:	00623021 	addu	a2,v1,v0
a08076f8:	3c02a086 	lui	v0,0xa086
a08076fc:	2445cacc 	addiu	a1,v0,-13620
a0807700:	00801021 	move	v0,a0
a0807704:	00021900 	sll	v1,v0,0x4
a0807708:	00031080 	sll	v0,v1,0x2
a080770c:	00431023 	subu	v0,v0,v1
a0807710:	00441023 	subu	v0,v0,a0
a0807714:	000218c0 	sll	v1,v0,0x3
a0807718:	00431021 	addu	v0,v0,v1
a080771c:	00441021 	addu	v0,v0,a0
a0807720:	00a21021 	addu	v0,a1,v0
a0807724:	ac460110 	sw	a2,272(v0)
a0807728:	8fc40014 	lw	a0,20(s8)
a080772c:	3c02a081 	lui	v0,0xa081
a0807730:	8c467294 	lw	a2,29332(v0)
a0807734:	3c05a086 	lui	a1,0xa086
a0807738:	00801021 	move	v0,a0
a080773c:	00021900 	sll	v1,v0,0x4
a0807740:	00031080 	sll	v0,v1,0x2
a0807744:	00431023 	subu	v0,v0,v1
a0807748:	00441023 	subu	v0,v0,a0
a080774c:	000218c0 	sll	v1,v0,0x3
a0807750:	00431021 	addu	v0,v0,v1
a0807754:	00441821 	addu	v1,v0,a0
a0807758:	24a2cacc 	addiu	v0,a1,-13620
a080775c:	00621021 	addu	v0,v1,v0
a0807760:	ac460078 	sw	a2,120(v0)
a0807764:	8fc40014 	lw	a0,20(s8)
a0807768:	3c02a081 	lui	v0,0xa081
a080776c:	8c437294 	lw	v1,29332(v0)
a0807770:	3c020008 	lui	v0,0x8
a0807774:	00623021 	addu	a2,v1,v0
a0807778:	3c02a086 	lui	v0,0xa086
a080777c:	2445cacc 	addiu	a1,v0,-13620
a0807780:	00801021 	move	v0,a0
a0807784:	00021900 	sll	v1,v0,0x4
a0807788:	00031080 	sll	v0,v1,0x2
a080778c:	00431023 	subu	v0,v0,v1
a0807790:	00441023 	subu	v0,v0,a0
a0807794:	000218c0 	sll	v1,v0,0x3
a0807798:	00431021 	addu	v0,v0,v1
a080779c:	00441021 	addu	v0,v0,a0
a08077a0:	00a21021 	addu	v0,a1,v0
a08077a4:	ac460114 	sw	a2,276(v0)
a08077a8:	8fc40014 	lw	a0,20(s8)
a08077ac:	3c02a081 	lui	v0,0xa081
a08077b0:	8c467294 	lw	a2,29332(v0)
a08077b4:	3c05a086 	lui	a1,0xa086
a08077b8:	00801021 	move	v0,a0
a08077bc:	00021900 	sll	v1,v0,0x4
a08077c0:	00031080 	sll	v0,v1,0x2
a08077c4:	00431023 	subu	v0,v0,v1
a08077c8:	00441023 	subu	v0,v0,a0
a08077cc:	000218c0 	sll	v1,v0,0x3
a08077d0:	00431021 	addu	v0,v0,v1
a08077d4:	00441821 	addu	v1,v0,a0
a08077d8:	24a2cacc 	addiu	v0,a1,-13620
a08077dc:	00621021 	addu	v0,v1,v0
a08077e0:	ac460138 	sw	a2,312(v0)
a08077e4:	8fc40014 	lw	a0,20(s8)
a08077e8:	3c02a081 	lui	v0,0xa081
a08077ec:	8c437294 	lw	v1,29332(v0)
a08077f0:	3c020008 	lui	v0,0x8
a08077f4:	00623021 	addu	a2,v1,v0
a08077f8:	3c02a086 	lui	v0,0xa086
a08077fc:	2445cacc 	addiu	a1,v0,-13620
a0807800:	00801021 	move	v0,a0
a0807804:	00021900 	sll	v1,v0,0x4
a0807808:	00031080 	sll	v0,v1,0x2
a080780c:	00431023 	subu	v0,v0,v1
a0807810:	00441023 	subu	v0,v0,a0
a0807814:	000218c0 	sll	v1,v0,0x3
a0807818:	00431021 	addu	v0,v0,v1
a080781c:	00441021 	addu	v0,v0,a0
a0807820:	00a21021 	addu	v0,a1,v0
a0807824:	ac46013c 	sw	a2,316(v0)
a0807828:	3c02a081 	lui	v0,0xa081
a080782c:	8c427298 	lw	v0,29336(v0)
a0807830:	24432000 	addiu	v1,v0,8192
a0807834:	3c02a081 	lui	v0,0xa081
a0807838:	ac437298 	sw	v1,29336(v0)
a080783c:	3c02a081 	lui	v0,0xa081
a0807840:	8c437294 	lw	v1,29332(v0)
a0807844:	3c020010 	lui	v0,0x10
a0807848:	00621821 	addu	v1,v1,v0
a080784c:	3c02a081 	lui	v0,0xa081
a0807850:	ac437294 	sw	v1,29332(v0)
a0807854:	8fc40014 	lw	a0,20(s8)
a0807858:	3c02a086 	lui	v0,0xa086
a080785c:	2445cacc 	addiu	a1,v0,-13620
a0807860:	00801021 	move	v0,a0
a0807864:	00021900 	sll	v1,v0,0x4
a0807868:	00031080 	sll	v0,v1,0x2
a080786c:	00431023 	subu	v0,v0,v1
a0807870:	00441023 	subu	v0,v0,a0
a0807874:	000218c0 	sll	v1,v0,0x3
a0807878:	00431021 	addu	v0,v0,v1
a080787c:	00441021 	addu	v0,v0,a0
a0807880:	00a21021 	addu	v0,a1,v0
a0807884:	ac40014c 	sw	zero,332(v0)
a0807888:	8fc40014 	lw	a0,20(s8)
a080788c:	3c05a086 	lui	a1,0xa086
a0807890:	00801021 	move	v0,a0
a0807894:	00021900 	sll	v1,v0,0x4
a0807898:	00031080 	sll	v0,v1,0x2
a080789c:	00431023 	subu	v0,v0,v1
a08078a0:	00441023 	subu	v0,v0,a0
a08078a4:	000218c0 	sll	v1,v0,0x3
a08078a8:	00431021 	addu	v0,v0,v1
a08078ac:	00441821 	addu	v1,v0,a0
a08078b0:	24a2cacc 	addiu	v0,a1,-13620
a08078b4:	00621021 	addu	v0,v1,v0
a08078b8:	ac400150 	sw	zero,336(v0)
a08078bc:	8fc40014 	lw	a0,20(s8)
a08078c0:	3c02a082 	lui	v0,0xa082
a08078c4:	8c42a064 	lw	v0,-24476(v0)
a08078c8:	00403021 	move	a2,v0
a08078cc:	3c05a086 	lui	a1,0xa086
a08078d0:	00801021 	move	v0,a0
a08078d4:	00021900 	sll	v1,v0,0x4
a08078d8:	00031080 	sll	v0,v1,0x2
a08078dc:	00431023 	subu	v0,v0,v1
a08078e0:	00441023 	subu	v0,v0,a0
a08078e4:	000218c0 	sll	v1,v0,0x3
a08078e8:	00431021 	addu	v0,v0,v1
a08078ec:	00441821 	addu	v1,v0,a0
a08078f0:	24a2cacc 	addiu	v0,a1,-13620
a08078f4:	00621021 	addu	v0,v1,v0
a08078f8:	ac460140 	sw	a2,320(v0)
a08078fc:	8fc40014 	lw	a0,20(s8)
a0807900:	8fc20020 	lw	v0,32(s8)
a0807904:	8c460008 	lw	a2,8(v0)
a0807908:	3c02a086 	lui	v0,0xa086
a080790c:	2445cacc 	addiu	a1,v0,-13620
a0807910:	00801021 	move	v0,a0
a0807914:	00021900 	sll	v1,v0,0x4
a0807918:	00031080 	sll	v0,v1,0x2
a080791c:	00431023 	subu	v0,v0,v1
a0807920:	00441023 	subu	v0,v0,a0
a0807924:	000218c0 	sll	v1,v0,0x3
a0807928:	00431021 	addu	v0,v0,v1
a080792c:	00441021 	addu	v0,v0,a0
a0807930:	00a21021 	addu	v0,a1,v0
a0807934:	ac460154 	sw	a2,340(v0)
a0807938:	8fc40014 	lw	a0,20(s8)
a080793c:	3c05a086 	lui	a1,0xa086
a0807940:	00801021 	move	v0,a0
a0807944:	00021900 	sll	v1,v0,0x4
a0807948:	00031080 	sll	v0,v1,0x2
a080794c:	00431023 	subu	v0,v0,v1
a0807950:	00441023 	subu	v0,v0,a0
a0807954:	000218c0 	sll	v1,v0,0x3
a0807958:	00431021 	addu	v0,v0,v1
a080795c:	00441821 	addu	v1,v0,a0
a0807960:	24a2cacc 	addiu	v0,a1,-13620
a0807964:	00621821 	addu	v1,v1,v0
a0807968:	24020004 	li	v0,4
a080796c:	ac620158 	sw	v0,344(v1)
a0807970:	8fc40014 	lw	a0,20(s8)
a0807974:	3c02a086 	lui	v0,0xa086
a0807978:	2445cacc 	addiu	a1,v0,-13620
a080797c:	00801021 	move	v0,a0
a0807980:	00021900 	sll	v1,v0,0x4
a0807984:	00031080 	sll	v0,v1,0x2
a0807988:	00431023 	subu	v0,v0,v1
a080798c:	00441023 	subu	v0,v0,a0
a0807990:	000218c0 	sll	v1,v0,0x3
a0807994:	00431021 	addu	v0,v0,v1
a0807998:	00441021 	addu	v0,v0,a0
a080799c:	00a21021 	addu	v0,a1,v0
a08079a0:	ac40015c 	sw	zero,348(v0)
a08079a4:	8fc40014 	lw	a0,20(s8)
a08079a8:	3c05a086 	lui	a1,0xa086
a08079ac:	00801021 	move	v0,a0
a08079b0:	00021900 	sll	v1,v0,0x4
a08079b4:	00031080 	sll	v0,v1,0x2
a08079b8:	00431023 	subu	v0,v0,v1
a08079bc:	00441023 	subu	v0,v0,a0
a08079c0:	000218c0 	sll	v1,v0,0x3
a08079c4:	00431021 	addu	v0,v0,v1
a08079c8:	00441821 	addu	v1,v0,a0
a08079cc:	24a2cacc 	addiu	v0,a1,-13620
a08079d0:	00621021 	addu	v0,v1,v0
a08079d4:	ac400160 	sw	zero,352(v0)
a08079d8:	8fc40014 	lw	a0,20(s8)
a08079dc:	8fc20020 	lw	v0,32(s8)
a08079e0:	8c460004 	lw	a2,4(v0)
a08079e4:	3c05a086 	lui	a1,0xa086
a08079e8:	00801021 	move	v0,a0
a08079ec:	00021900 	sll	v1,v0,0x4
a08079f0:	00031080 	sll	v0,v1,0x2
a08079f4:	00431023 	subu	v0,v0,v1
a08079f8:	00441023 	subu	v0,v0,a0
a08079fc:	000218c0 	sll	v1,v0,0x3
a0807a00:	00431021 	addu	v0,v0,v1
a0807a04:	00441821 	addu	v1,v0,a0
a0807a08:	24a2cacc 	addiu	v0,a1,-13620
a0807a0c:	00621021 	addu	v0,v1,v0
a0807a10:	ac460148 	sw	a2,328(v0)
a0807a14:	8fc40014 	lw	a0,20(s8)
a0807a18:	3c02a080 	lui	v0,0xa080
a0807a1c:	24460c5c 	addiu	a2,v0,3164
a0807a20:	3c05a086 	lui	a1,0xa086
a0807a24:	00801021 	move	v0,a0
a0807a28:	00021900 	sll	v1,v0,0x4
a0807a2c:	00031080 	sll	v0,v1,0x2
a0807a30:	00431023 	subu	v0,v0,v1
a0807a34:	00441023 	subu	v0,v0,a0
a0807a38:	000218c0 	sll	v1,v0,0x3
a0807a3c:	00431021 	addu	v0,v0,v1
a0807a40:	00441821 	addu	v1,v0,a0
a0807a44:	24a2cacc 	addiu	v0,a1,-13620
a0807a48:	00621021 	addu	v0,v1,v0
a0807a4c:	ac46007c 	sw	a2,124(v0)
a0807a50:	8fc40014 	lw	a0,20(s8)
a0807a54:	3c05a086 	lui	a1,0xa086
a0807a58:	00801021 	move	v0,a0
a0807a5c:	00021900 	sll	v1,v0,0x4
a0807a60:	00031080 	sll	v0,v1,0x2
a0807a64:	00431023 	subu	v0,v0,v1
a0807a68:	00441023 	subu	v0,v0,a0
a0807a6c:	000218c0 	sll	v1,v0,0x3
a0807a70:	00431021 	addu	v0,v0,v1
a0807a74:	00441821 	addu	v1,v0,a0
a0807a78:	24a2cacc 	addiu	v0,a1,-13620
a0807a7c:	00621821 	addu	v1,v1,v0
a0807a80:	3c021000 	lui	v0,0x1000
a0807a84:	34428000 	ori	v0,v0,0x8000
a0807a88:	ac620080 	sw	v0,128(v1)
a0807a8c:	8fc40014 	lw	a0,20(s8)
a0807a90:	3c02a086 	lui	v0,0xa086
a0807a94:	2445cacc 	addiu	a1,v0,-13620
a0807a98:	00801021 	move	v0,a0
a0807a9c:	00021900 	sll	v1,v0,0x4
a0807aa0:	00031080 	sll	v0,v1,0x2
a0807aa4:	00431023 	subu	v0,v0,v1
a0807aa8:	00441023 	subu	v0,v0,a0
a0807aac:	000218c0 	sll	v1,v0,0x3
a0807ab0:	00431021 	addu	v0,v0,v1
a0807ab4:	00441021 	addu	v0,v0,a0
a0807ab8:	00a21021 	addu	v0,a1,v0
a0807abc:	3c031000 	lui	v1,0x1000
a0807ac0:	34638000 	ori	v1,v1,0x8000
a0807ac4:	ac43011c 	sw	v1,284(v0)
a0807ac8:	8fc50014 	lw	a1,20(s8)
a0807acc:	8fc40014 	lw	a0,20(s8)
a0807ad0:	3c06a086 	lui	a2,0xa086
a0807ad4:	00801021 	move	v0,a0
a0807ad8:	00021900 	sll	v1,v0,0x4
a0807adc:	00031080 	sll	v0,v1,0x2
a0807ae0:	00431023 	subu	v0,v0,v1
a0807ae4:	00441023 	subu	v0,v0,a0
a0807ae8:	000218c0 	sll	v1,v0,0x3
a0807aec:	00431021 	addu	v0,v0,v1
a0807af0:	00441821 	addu	v1,v0,a0
a0807af4:	24c2cacc 	addiu	v0,a2,-13620
a0807af8:	00621021 	addu	v0,v1,v0
a0807afc:	8c460148 	lw	a2,328(v0)
a0807b00:	3c02a086 	lui	v0,0xa086
a0807b04:	2444cacc 	addiu	a0,v0,-13620
a0807b08:	00a01021 	move	v0,a1
a0807b0c:	00021900 	sll	v1,v0,0x4
a0807b10:	00031080 	sll	v0,v1,0x2
a0807b14:	00431023 	subu	v0,v0,v1
a0807b18:	00451023 	subu	v0,v0,a1
a0807b1c:	000218c0 	sll	v1,v0,0x3
a0807b20:	00431021 	addu	v0,v0,v1
a0807b24:	00451021 	addu	v0,v0,a1
a0807b28:	00821021 	addu	v0,a0,v0
a0807b2c:	ac460094 	sw	a2,148(v0)
a0807b30:	8fc50014 	lw	a1,20(s8)
a0807b34:	8fc40014 	lw	a0,20(s8)
a0807b38:	3c06a086 	lui	a2,0xa086
a0807b3c:	00801021 	move	v0,a0
a0807b40:	00021900 	sll	v1,v0,0x4
a0807b44:	00031080 	sll	v0,v1,0x2
a0807b48:	00431023 	subu	v0,v0,v1
a0807b4c:	00441023 	subu	v0,v0,a0
a0807b50:	000218c0 	sll	v1,v0,0x3
a0807b54:	00431021 	addu	v0,v0,v1
a0807b58:	00441821 	addu	v1,v0,a0
a0807b5c:	24c2cacc 	addiu	v0,a2,-13620
a0807b60:	00621021 	addu	v0,v1,v0
a0807b64:	8c460148 	lw	a2,328(v0)
a0807b68:	3c02a086 	lui	v0,0xa086
a0807b6c:	2444cacc 	addiu	a0,v0,-13620
a0807b70:	00a01021 	move	v0,a1
a0807b74:	00021900 	sll	v1,v0,0x4
a0807b78:	00031080 	sll	v0,v1,0x2
a0807b7c:	00431023 	subu	v0,v0,v1
a0807b80:	00451023 	subu	v0,v0,a1
a0807b84:	000218c0 	sll	v1,v0,0x3
a0807b88:	00431021 	addu	v0,v0,v1
a0807b8c:	00451021 	addu	v0,v0,a1
a0807b90:	00821021 	addu	v0,a0,v0
a0807b94:	ac460130 	sw	a2,304(v0)
a0807b98:	8fc40014 	lw	a0,20(s8)
a0807b9c:	3c02a086 	lui	v0,0xa086
a0807ba0:	2445cacc 	addiu	a1,v0,-13620
a0807ba4:	00801021 	move	v0,a0
a0807ba8:	00021900 	sll	v1,v0,0x4
a0807bac:	00031080 	sll	v0,v1,0x2
a0807bb0:	00431023 	subu	v0,v0,v1
a0807bb4:	00441023 	subu	v0,v0,a0
a0807bb8:	000218c0 	sll	v1,v0,0x3
a0807bbc:	00431021 	addu	v0,v0,v1
a0807bc0:	00441021 	addu	v0,v0,a0
a0807bc4:	00a21021 	addu	v0,a1,v0
a0807bc8:	24030001 	li	v1,1
a0807bcc:	ac430144 	sw	v1,324(v0)
a0807bd0:	8fc40014 	lw	a0,20(s8)
a0807bd4:	3c05a086 	lui	a1,0xa086
a0807bd8:	00801021 	move	v0,a0
a0807bdc:	00021900 	sll	v1,v0,0x4
a0807be0:	00031080 	sll	v0,v1,0x2
a0807be4:	00431023 	subu	v0,v0,v1
a0807be8:	00441023 	subu	v0,v0,a0
a0807bec:	000218c0 	sll	v1,v0,0x3
a0807bf0:	00431021 	addu	v0,v0,v1
a0807bf4:	00441821 	addu	v1,v0,a0
a0807bf8:	24a2cacc 	addiu	v0,a1,-13620
a0807bfc:	00621821 	addu	v1,v1,v0
a0807c00:	24020004 	li	v0,4
a0807c04:	ac620168 	sw	v0,360(v1)
a0807c08:	8fc40014 	lw	a0,20(s8)
a0807c0c:	3c02a086 	lui	v0,0xa086
a0807c10:	2445cacc 	addiu	a1,v0,-13620
a0807c14:	00801021 	move	v0,a0
a0807c18:	00021900 	sll	v1,v0,0x4
a0807c1c:	00031080 	sll	v0,v1,0x2
a0807c20:	00431023 	subu	v0,v0,v1
a0807c24:	00441023 	subu	v0,v0,a0
a0807c28:	000218c0 	sll	v1,v0,0x3
a0807c2c:	00431021 	addu	v0,v0,v1
a0807c30:	00441021 	addu	v0,v0,a0
a0807c34:	00a21021 	addu	v0,a1,v0
a0807c38:	ac400164 	sw	zero,356(v0)
a0807c3c:	8fc40014 	lw	a0,20(s8)
a0807c40:	3c05a086 	lui	a1,0xa086
a0807c44:	00801021 	move	v0,a0
a0807c48:	00021900 	sll	v1,v0,0x4
a0807c4c:	00031080 	sll	v0,v1,0x2
a0807c50:	00431023 	subu	v0,v0,v1
a0807c54:	00441023 	subu	v0,v0,a0
a0807c58:	000218c0 	sll	v1,v0,0x3
a0807c5c:	00431021 	addu	v0,v0,v1
a0807c60:	00441821 	addu	v1,v0,a0
a0807c64:	24a2cacc 	addiu	v0,a1,-13620
a0807c68:	00621021 	addu	v0,v1,v0
a0807c6c:	ac4001a0 	sw	zero,416(v0)
a0807c70:	8fc40014 	lw	a0,20(s8)
a0807c74:	3c02a086 	lui	v0,0xa086
a0807c78:	2445cacc 	addiu	a1,v0,-13620
a0807c7c:	00801021 	move	v0,a0
a0807c80:	00021900 	sll	v1,v0,0x4
a0807c84:	00031080 	sll	v0,v1,0x2
a0807c88:	00431023 	subu	v0,v0,v1
a0807c8c:	00441023 	subu	v0,v0,a0
a0807c90:	000218c0 	sll	v1,v0,0x3
a0807c94:	00431021 	addu	v0,v0,v1
a0807c98:	00441021 	addu	v0,v0,a0
a0807c9c:	00a21021 	addu	v0,a1,v0
a0807ca0:	ac400194 	sw	zero,404(v0)
a0807ca4:	8fc40014 	lw	a0,20(s8)
a0807ca8:	00801021 	move	v0,a0
a0807cac:	00021900 	sll	v1,v0,0x4
a0807cb0:	00031080 	sll	v0,v1,0x2
a0807cb4:	00431023 	subu	v0,v0,v1
a0807cb8:	00441023 	subu	v0,v0,a0
a0807cbc:	000218c0 	sll	v1,v0,0x3
a0807cc0:	00431021 	addu	v0,v0,v1
a0807cc4:	00441821 	addu	v1,v0,a0
a0807cc8:	3c02a086 	lui	v0,0xa086
a0807ccc:	2442cacc 	addiu	v0,v0,-13620
a0807cd0:	00621821 	addu	v1,v1,v0
a0807cd4:	3c02a081 	lui	v0,0xa081
a0807cd8:	24447abc 	addiu	a0,v0,31420
a0807cdc:	00602821 	move	a1,v1
a0807ce0:	0c20215e 	jal	a0808578 <queue_push>
a0807ce4:	00000000 	nop
a0807ce8:	03c0e821 	move	sp,s8
a0807cec:	8fbf001c 	lw	ra,28(sp)
a0807cf0:	8fbe0018 	lw	s8,24(sp)
a0807cf4:	27bd0020 	addiu	sp,sp,32
a0807cf8:	03e00008 	jr	ra
a0807cfc:	00000000 	nop

a0807d00 <do_exit>:
a0807d00:	27bdffe0 	addiu	sp,sp,-32
a0807d04:	afbf001c 	sw	ra,28(sp)
a0807d08:	afbe0018 	sw	s8,24(sp)
a0807d0c:	03a0f021 	move	s8,sp
a0807d10:	afc00014 	sw	zero,20(s8)
a0807d14:	08201f5d 	j	a0807d74 <do_exit+0x74>
a0807d18:	00000000 	nop
a0807d1c:	3c02a081 	lui	v0,0xa081
a0807d20:	8c437290 	lw	v1,29328(v0)
a0807d24:	8fc20014 	lw	v0,20(s8)
a0807d28:	2442005a 	addiu	v0,v0,90
a0807d2c:	00021080 	sll	v0,v0,0x2
a0807d30:	00621021 	addu	v0,v1,v0
a0807d34:	8c420004 	lw	v0,4(v0)
a0807d38:	1040000b 	beqz	v0,a0807d68 <do_exit+0x68>
a0807d3c:	00000000 	nop
a0807d40:	3c02a081 	lui	v0,0xa081
a0807d44:	8c437290 	lw	v1,29328(v0)
a0807d48:	8fc20014 	lw	v0,20(s8)
a0807d4c:	2442005a 	addiu	v0,v0,90
a0807d50:	00021080 	sll	v0,v0,0x2
a0807d54:	00621021 	addu	v0,v1,v0
a0807d58:	8c420004 	lw	v0,4(v0)
a0807d5c:	00402021 	move	a0,v0
a0807d60:	0c200fbd 	jal	a0803ef4 <do_mutex_lock_release>
a0807d64:	00000000 	nop
a0807d68:	8fc20014 	lw	v0,20(s8)
a0807d6c:	24420001 	addiu	v0,v0,1
a0807d70:	afc20014 	sw	v0,20(s8)
a0807d74:	8fc20014 	lw	v0,20(s8)
a0807d78:	2842000a 	slti	v0,v0,10
a0807d7c:	1440ffe7 	bnez	v0,a0807d1c <do_exit+0x1c>
a0807d80:	00000000 	nop
a0807d84:	08201f72 	j	a0807dc8 <do_exit+0xc8>
a0807d88:	00000000 	nop
a0807d8c:	3c02a081 	lui	v0,0xa081
a0807d90:	8c427290 	lw	v0,29328(v0)
a0807d94:	24420198 	addiu	v0,v0,408
a0807d98:	00402021 	move	a0,v0
a0807d9c:	0c202188 	jal	a0808620 <queue_dequeue>
a0807da0:	00000000 	nop
a0807da4:	afc20010 	sw	v0,16(s8)
a0807da8:	8fc30010 	lw	v1,16(s8)
a0807dac:	24020002 	li	v0,2
a0807db0:	ac620158 	sw	v0,344(v1)
a0807db4:	3c02a081 	lui	v0,0xa081
a0807db8:	24447abc 	addiu	a0,v0,31420
a0807dbc:	8fc50010 	lw	a1,16(s8)
a0807dc0:	0c20215e 	jal	a0808578 <queue_push>
a0807dc4:	00000000 	nop
a0807dc8:	3c02a081 	lui	v0,0xa081
a0807dcc:	8c427290 	lw	v0,29328(v0)
a0807dd0:	24420198 	addiu	v0,v0,408
a0807dd4:	00402021 	move	a0,v0
a0807dd8:	0c20214b 	jal	a080852c <queue_is_empty>
a0807ddc:	00000000 	nop
a0807de0:	1040ffea 	beqz	v0,a0807d8c <do_exit+0x8c>
a0807de4:	00000000 	nop
a0807de8:	3c02a081 	lui	v0,0xa081
a0807dec:	8c437290 	lw	v1,29328(v0)
a0807df0:	24020003 	li	v0,3
a0807df4:	ac620158 	sw	v0,344(v1)
a0807df8:	0c2000b5 	jal	a08002d4 <do_scheduler>
a0807dfc:	00000000 	nop
a0807e00:	03c0e821 	move	sp,s8
a0807e04:	8fbf001c 	lw	ra,28(sp)
a0807e08:	8fbe0018 	lw	s8,24(sp)
a0807e0c:	27bd0020 	addiu	sp,sp,32
a0807e10:	03e00008 	jr	ra
a0807e14:	00000000 	nop

a0807e18 <do_getpid>:
a0807e18:	27bdfff8 	addiu	sp,sp,-8
a0807e1c:	afbe0004 	sw	s8,4(sp)
a0807e20:	03a0f021 	move	s8,sp
a0807e24:	3c02a081 	lui	v0,0xa081
a0807e28:	8c427290 	lw	v0,29328(v0)
a0807e2c:	8c420140 	lw	v0,320(v0)
a0807e30:	03c0e821 	move	sp,s8
a0807e34:	8fbe0004 	lw	s8,4(sp)
a0807e38:	27bd0008 	addiu	sp,sp,8
a0807e3c:	03e00008 	jr	ra
a0807e40:	00000000 	nop

a0807e44 <do_waitpid>:
a0807e44:	27bdffe0 	addiu	sp,sp,-32
a0807e48:	afbf001c 	sw	ra,28(sp)
a0807e4c:	afbe0018 	sw	s8,24(sp)
a0807e50:	03a0f021 	move	s8,sp
a0807e54:	afc40020 	sw	a0,32(s8)
a0807e58:	afc00010 	sw	zero,16(s8)
a0807e5c:	08201fa0 	j	a0807e80 <do_waitpid+0x3c>
a0807e60:	00000000 	nop
a0807e64:	8fc20010 	lw	v0,16(s8)
a0807e68:	24420001 	addiu	v0,v0,1
a0807e6c:	afc20010 	sw	v0,16(s8)
a0807e70:	8fc20010 	lw	v0,16(s8)
a0807e74:	28420028 	slti	v0,v0,40
a0807e78:	10400039 	beqz	v0,a0807f60 <do_waitpid+0x11c>
a0807e7c:	00000000 	nop
a0807e80:	8fc40010 	lw	a0,16(s8)
a0807e84:	3c05a086 	lui	a1,0xa086
a0807e88:	00801021 	move	v0,a0
a0807e8c:	00021900 	sll	v1,v0,0x4
a0807e90:	00031080 	sll	v0,v1,0x2
a0807e94:	00431023 	subu	v0,v0,v1
a0807e98:	00441023 	subu	v0,v0,a0
a0807e9c:	000218c0 	sll	v1,v0,0x3
a0807ea0:	00431021 	addu	v0,v0,v1
a0807ea4:	00441821 	addu	v1,v0,a0
a0807ea8:	24a2cacc 	addiu	v0,a1,-13620
a0807eac:	00621021 	addu	v0,v1,v0
a0807eb0:	8c430140 	lw	v1,320(v0)
a0807eb4:	8fc20020 	lw	v0,32(s8)
a0807eb8:	1462ffea 	bne	v1,v0,a0807e64 <do_waitpid+0x20>
a0807ebc:	00000000 	nop
a0807ec0:	8fc40010 	lw	a0,16(s8)
a0807ec4:	3c05a086 	lui	a1,0xa086
a0807ec8:	00801021 	move	v0,a0
a0807ecc:	00021900 	sll	v1,v0,0x4
a0807ed0:	00031080 	sll	v0,v1,0x2
a0807ed4:	00431023 	subu	v0,v0,v1
a0807ed8:	00441023 	subu	v0,v0,a0
a0807edc:	000218c0 	sll	v1,v0,0x3
a0807ee0:	00431021 	addu	v0,v0,v1
a0807ee4:	00441821 	addu	v1,v0,a0
a0807ee8:	24a2cacc 	addiu	v0,a1,-13620
a0807eec:	00621021 	addu	v0,v1,v0
a0807ef0:	8c430158 	lw	v1,344(v0)
a0807ef4:	24020003 	li	v0,3
a0807ef8:	10620019 	beq	v1,v0,a0807f60 <do_waitpid+0x11c>
a0807efc:	00000000 	nop
a0807f00:	3c02a081 	lui	v0,0xa081
a0807f04:	8c427290 	lw	v0,29328(v0)
a0807f08:	ac400158 	sw	zero,344(v0)
a0807f0c:	8fc40010 	lw	a0,16(s8)
a0807f10:	00801021 	move	v0,a0
a0807f14:	00021900 	sll	v1,v0,0x4
a0807f18:	00031080 	sll	v0,v1,0x2
a0807f1c:	00431023 	subu	v0,v0,v1
a0807f20:	00441023 	subu	v0,v0,a0
a0807f24:	000218c0 	sll	v1,v0,0x3
a0807f28:	00431021 	addu	v0,v0,v1
a0807f2c:	00441021 	addu	v0,v0,a0
a0807f30:	24430198 	addiu	v1,v0,408
a0807f34:	3c02a086 	lui	v0,0xa086
a0807f38:	2442cacc 	addiu	v0,v0,-13620
a0807f3c:	00621821 	addu	v1,v1,v0
a0807f40:	3c02a081 	lui	v0,0xa081
a0807f44:	8c427290 	lw	v0,29328(v0)
a0807f48:	00602021 	move	a0,v1
a0807f4c:	00402821 	move	a1,v0
a0807f50:	0c20215e 	jal	a0808578 <queue_push>
a0807f54:	00000000 	nop
a0807f58:	0c2000b5 	jal	a08002d4 <do_scheduler>
a0807f5c:	00000000 	nop
a0807f60:	03c0e821 	move	sp,s8
a0807f64:	8fbf001c 	lw	ra,28(sp)
a0807f68:	8fbe0018 	lw	s8,24(sp)
a0807f6c:	27bd0020 	addiu	sp,sp,32
a0807f70:	03e00008 	jr	ra
a0807f74:	00000000 	nop

a0807f78 <do_kill>:
a0807f78:	27bdffd8 	addiu	sp,sp,-40
a0807f7c:	afbf0024 	sw	ra,36(sp)
a0807f80:	afbe0020 	sw	s8,32(sp)
a0807f84:	03a0f021 	move	s8,sp
a0807f88:	afc40028 	sw	a0,40(s8)
a0807f8c:	afc00018 	sw	zero,24(s8)
a0807f90:	08201fed 	j	a0807fb4 <do_kill+0x3c>
a0807f94:	00000000 	nop
a0807f98:	8fc20018 	lw	v0,24(s8)
a0807f9c:	24420001 	addiu	v0,v0,1
a0807fa0:	afc20018 	sw	v0,24(s8)
a0807fa4:	8fc20018 	lw	v0,24(s8)
a0807fa8:	28420028 	slti	v0,v0,40
a0807fac:	10400126 	beqz	v0,a0808448 <do_kill+0x4d0>
a0807fb0:	00000000 	nop
a0807fb4:	8fc40018 	lw	a0,24(s8)
a0807fb8:	3c05a086 	lui	a1,0xa086
a0807fbc:	00801021 	move	v0,a0
a0807fc0:	00021900 	sll	v1,v0,0x4
a0807fc4:	00031080 	sll	v0,v1,0x2
a0807fc8:	00431023 	subu	v0,v0,v1
a0807fcc:	00441023 	subu	v0,v0,a0
a0807fd0:	000218c0 	sll	v1,v0,0x3
a0807fd4:	00431021 	addu	v0,v0,v1
a0807fd8:	00441821 	addu	v1,v0,a0
a0807fdc:	24a2cacc 	addiu	v0,a1,-13620
a0807fe0:	00621021 	addu	v0,v1,v0
a0807fe4:	8c430140 	lw	v1,320(v0)
a0807fe8:	8fc20028 	lw	v0,40(s8)
a0807fec:	1462ffea 	bne	v1,v0,a0807f98 <do_kill+0x20>
a0807ff0:	00000000 	nop
a0807ff4:	8fc40018 	lw	a0,24(s8)
a0807ff8:	3c05a086 	lui	a1,0xa086
a0807ffc:	00801021 	move	v0,a0
a0808000:	00021900 	sll	v1,v0,0x4
a0808004:	00031080 	sll	v0,v1,0x2
a0808008:	00431023 	subu	v0,v0,v1
a080800c:	00441023 	subu	v0,v0,a0
a0808010:	000218c0 	sll	v1,v0,0x3
a0808014:	00431021 	addu	v0,v0,v1
a0808018:	00441821 	addu	v1,v0,a0
a080801c:	24a2cacc 	addiu	v0,a1,-13620
a0808020:	00621021 	addu	v0,v1,v0
a0808024:	8c430158 	lw	v1,344(v0)
a0808028:	24020003 	li	v0,3
a080802c:	106200fe 	beq	v1,v0,a0808428 <do_kill+0x4b0>
a0808030:	00000000 	nop
a0808034:	8fc40018 	lw	a0,24(s8)
a0808038:	3c05a086 	lui	a1,0xa086
a080803c:	00801021 	move	v0,a0
a0808040:	00021900 	sll	v1,v0,0x4
a0808044:	00031080 	sll	v0,v1,0x2
a0808048:	00431023 	subu	v0,v0,v1
a080804c:	00441023 	subu	v0,v0,a0
a0808050:	000218c0 	sll	v1,v0,0x3
a0808054:	00431021 	addu	v0,v0,v1
a0808058:	00441821 	addu	v1,v0,a0
a080805c:	24a2cacc 	addiu	v0,a1,-13620
a0808060:	00621021 	addu	v0,v1,v0
a0808064:	8c430158 	lw	v1,344(v0)
a0808068:	24020002 	li	v0,2
a080806c:	14620014 	bne	v1,v0,a08080c0 <do_kill+0x148>
a0808070:	00000000 	nop
a0808074:	8fc40018 	lw	a0,24(s8)
a0808078:	00801021 	move	v0,a0
a080807c:	00021900 	sll	v1,v0,0x4
a0808080:	00031080 	sll	v0,v1,0x2
a0808084:	00431023 	subu	v0,v0,v1
a0808088:	00441023 	subu	v0,v0,a0
a080808c:	000218c0 	sll	v1,v0,0x3
a0808090:	00431021 	addu	v0,v0,v1
a0808094:	00441821 	addu	v1,v0,a0
a0808098:	3c02a086 	lui	v0,0xa086
a080809c:	2442cacc 	addiu	v0,v0,-13620
a08080a0:	00621821 	addu	v1,v1,v0
a08080a4:	3c02a081 	lui	v0,0xa081
a08080a8:	24447abc 	addiu	a0,v0,31420
a08080ac:	00602821 	move	a1,v1
a08080b0:	0c2021ed 	jal	a08087b4 <queue_remove>
a08080b4:	00000000 	nop
a08080b8:	082020bf 	j	a08082fc <do_kill+0x384>
a08080bc:	00000000 	nop
a08080c0:	8fc40018 	lw	a0,24(s8)
a08080c4:	3c05a086 	lui	a1,0xa086
a08080c8:	00801021 	move	v0,a0
a08080cc:	00021900 	sll	v1,v0,0x4
a08080d0:	00031080 	sll	v0,v1,0x2
a08080d4:	00431023 	subu	v0,v0,v1
a08080d8:	00441023 	subu	v0,v0,a0
a08080dc:	000218c0 	sll	v1,v0,0x3
a08080e0:	00431021 	addu	v0,v0,v1
a08080e4:	00441821 	addu	v1,v0,a0
a08080e8:	24a2cacc 	addiu	v0,a1,-13620
a08080ec:	00621021 	addu	v0,v1,v0
a08080f0:	8c420158 	lw	v0,344(v0)
a08080f4:	1440003d 	bnez	v0,a08081ec <do_kill+0x274>
a08080f8:	00000000 	nop
a08080fc:	afc00010 	sw	zero,16(s8)
a0808100:	08202075 	j	a08081d4 <do_kill+0x25c>
a0808104:	00000000 	nop
a0808108:	8fc20010 	lw	v0,16(s8)
a080810c:	3c03a085 	lui	v1,0xa085
a0808110:	00022080 	sll	a0,v0,0x2
a0808114:	2462a020 	addiu	v0,v1,-24544
a0808118:	00821021 	addu	v0,a0,v0
a080811c:	8c420000 	lw	v0,0(v0)
a0808120:	00402821 	move	a1,v0
a0808124:	8fc40018 	lw	a0,24(s8)
a0808128:	00801021 	move	v0,a0
a080812c:	00021900 	sll	v1,v0,0x4
a0808130:	00031080 	sll	v0,v1,0x2
a0808134:	00431023 	subu	v0,v0,v1
a0808138:	00441023 	subu	v0,v0,a0
a080813c:	000218c0 	sll	v1,v0,0x3
a0808140:	00431021 	addu	v0,v0,v1
a0808144:	00441821 	addu	v1,v0,a0
a0808148:	3c02a086 	lui	v0,0xa086
a080814c:	2442cacc 	addiu	v0,v0,-13620
a0808150:	00621021 	addu	v0,v1,v0
a0808154:	00a02021 	move	a0,a1
a0808158:	00402821 	move	a1,v0
a080815c:	0c2021ad 	jal	a08086b4 <check_in_queue>
a0808160:	00000000 	nop
a0808164:	10400018 	beqz	v0,a08081c8 <do_kill+0x250>
a0808168:	00000000 	nop
a080816c:	8fc20010 	lw	v0,16(s8)
a0808170:	3c03a085 	lui	v1,0xa085
a0808174:	00022080 	sll	a0,v0,0x2
a0808178:	2462a020 	addiu	v0,v1,-24544
a080817c:	00821021 	addu	v0,a0,v0
a0808180:	8c420000 	lw	v0,0(v0)
a0808184:	00402821 	move	a1,v0
a0808188:	8fc40018 	lw	a0,24(s8)
a080818c:	00801021 	move	v0,a0
a0808190:	00021900 	sll	v1,v0,0x4
a0808194:	00031080 	sll	v0,v1,0x2
a0808198:	00431023 	subu	v0,v0,v1
a080819c:	00441023 	subu	v0,v0,a0
a08081a0:	000218c0 	sll	v1,v0,0x3
a08081a4:	00431021 	addu	v0,v0,v1
a08081a8:	00441821 	addu	v1,v0,a0
a08081ac:	3c02a086 	lui	v0,0xa086
a08081b0:	2442cacc 	addiu	v0,v0,-13620
a08081b4:	00621021 	addu	v0,v1,v0
a08081b8:	00a02021 	move	a0,a1
a08081bc:	00402821 	move	a1,v0
a08081c0:	0c2021ed 	jal	a08087b4 <queue_remove>
a08081c4:	00000000 	nop
a08081c8:	8fc20010 	lw	v0,16(s8)
a08081cc:	24420001 	addiu	v0,v0,1
a08081d0:	afc20010 	sw	v0,16(s8)
a08081d4:	8fc20010 	lw	v0,16(s8)
a08081d8:	28420022 	slti	v0,v0,34
a08081dc:	1440ffca 	bnez	v0,a0808108 <do_kill+0x190>
a08081e0:	00000000 	nop
a08081e4:	082020bf 	j	a08082fc <do_kill+0x384>
a08081e8:	00000000 	nop
a08081ec:	8fc40018 	lw	a0,24(s8)
a08081f0:	3c05a086 	lui	a1,0xa086
a08081f4:	00801021 	move	v0,a0
a08081f8:	00021900 	sll	v1,v0,0x4
a08081fc:	00031080 	sll	v0,v1,0x2
a0808200:	00431023 	subu	v0,v0,v1
a0808204:	00441023 	subu	v0,v0,a0
a0808208:	000218c0 	sll	v1,v0,0x3
a080820c:	00431021 	addu	v0,v0,v1
a0808210:	00441821 	addu	v1,v0,a0
a0808214:	24a2cacc 	addiu	v0,a1,-13620
a0808218:	00621021 	addu	v0,v1,v0
a080821c:	8c430158 	lw	v1,344(v0)
a0808220:	24020005 	li	v0,5
a0808224:	14620014 	bne	v1,v0,a0808278 <do_kill+0x300>
a0808228:	00000000 	nop
a080822c:	8fc40018 	lw	a0,24(s8)
a0808230:	00801021 	move	v0,a0
a0808234:	00021900 	sll	v1,v0,0x4
a0808238:	00031080 	sll	v0,v1,0x2
a080823c:	00431023 	subu	v0,v0,v1
a0808240:	00441023 	subu	v0,v0,a0
a0808244:	000218c0 	sll	v1,v0,0x3
a0808248:	00431021 	addu	v0,v0,v1
a080824c:	00441821 	addu	v1,v0,a0
a0808250:	3c02a086 	lui	v0,0xa086
a0808254:	2442cacc 	addiu	v0,v0,-13620
a0808258:	00621821 	addu	v1,v1,v0
a080825c:	3c02a081 	lui	v0,0xa081
a0808260:	24447ac4 	addiu	a0,v0,31428
a0808264:	00602821 	move	a1,v1
a0808268:	0c2021ed 	jal	a08087b4 <queue_remove>
a080826c:	00000000 	nop
a0808270:	082020bf 	j	a08082fc <do_kill+0x384>
a0808274:	00000000 	nop
a0808278:	8fc40018 	lw	a0,24(s8)
a080827c:	3c05a086 	lui	a1,0xa086
a0808280:	00801021 	move	v0,a0
a0808284:	00021900 	sll	v1,v0,0x4
a0808288:	00031080 	sll	v0,v1,0x2
a080828c:	00431023 	subu	v0,v0,v1
a0808290:	00441023 	subu	v0,v0,a0
a0808294:	000218c0 	sll	v1,v0,0x3
a0808298:	00431021 	addu	v0,v0,v1
a080829c:	00441821 	addu	v1,v0,a0
a08082a0:	24a2cacc 	addiu	v0,a1,-13620
a08082a4:	00621021 	addu	v0,v1,v0
a08082a8:	8c430158 	lw	v1,344(v0)
a08082ac:	24020004 	li	v0,4
a08082b0:	14620012 	bne	v1,v0,a08082fc <do_kill+0x384>
a08082b4:	00000000 	nop
a08082b8:	8fc40018 	lw	a0,24(s8)
a08082bc:	00801021 	move	v0,a0
a08082c0:	00021900 	sll	v1,v0,0x4
a08082c4:	00031080 	sll	v0,v1,0x2
a08082c8:	00431023 	subu	v0,v0,v1
a08082cc:	00441023 	subu	v0,v0,a0
a08082d0:	000218c0 	sll	v1,v0,0x3
a08082d4:	00431021 	addu	v0,v0,v1
a08082d8:	00441821 	addu	v1,v0,a0
a08082dc:	3c02a086 	lui	v0,0xa086
a08082e0:	2442cacc 	addiu	v0,v0,-13620
a08082e4:	00621821 	addu	v1,v1,v0
a08082e8:	3c02a081 	lui	v0,0xa081
a08082ec:	24447abc 	addiu	a0,v0,31420
a08082f0:	00602821 	move	a1,v1
a08082f4:	0c2021ed 	jal	a08087b4 <queue_remove>
a08082f8:	00000000 	nop
a08082fc:	8fc40018 	lw	a0,24(s8)
a0808300:	3c05a086 	lui	a1,0xa086
a0808304:	00801021 	move	v0,a0
a0808308:	00021900 	sll	v1,v0,0x4
a080830c:	00031080 	sll	v0,v1,0x2
a0808310:	00431023 	subu	v0,v0,v1
a0808314:	00441023 	subu	v0,v0,a0
a0808318:	000218c0 	sll	v1,v0,0x3
a080831c:	00431021 	addu	v0,v0,v1
a0808320:	00441821 	addu	v1,v0,a0
a0808324:	24a2cacc 	addiu	v0,a1,-13620
a0808328:	00621821 	addu	v1,v1,v0
a080832c:	24020003 	li	v0,3
a0808330:	ac620158 	sw	v0,344(v1)
a0808334:	afc00014 	sw	zero,20(s8)
a0808338:	082020f6 	j	a08083d8 <do_kill+0x460>
a080833c:	00000000 	nop
a0808340:	8fc40018 	lw	a0,24(s8)
a0808344:	8fc50014 	lw	a1,20(s8)
a0808348:	3c06a086 	lui	a2,0xa086
a080834c:	00801021 	move	v0,a0
a0808350:	000218c0 	sll	v1,v0,0x3
a0808354:	00641823 	subu	v1,v1,a0
a0808358:	00031100 	sll	v0,v1,0x4
a080835c:	00431023 	subu	v0,v0,v1
a0808360:	00441021 	addu	v0,v0,a0
a0808364:	00451021 	addu	v0,v0,a1
a0808368:	2442005a 	addiu	v0,v0,90
a080836c:	24c3cacc 	addiu	v1,a2,-13620
a0808370:	00021080 	sll	v0,v0,0x2
a0808374:	00621021 	addu	v0,v1,v0
a0808378:	8c420004 	lw	v0,4(v0)
a080837c:	10400013 	beqz	v0,a08083cc <do_kill+0x454>
a0808380:	00000000 	nop
a0808384:	8fc40018 	lw	a0,24(s8)
a0808388:	8fc50014 	lw	a1,20(s8)
a080838c:	3c06a086 	lui	a2,0xa086
a0808390:	00801021 	move	v0,a0
a0808394:	000218c0 	sll	v1,v0,0x3
a0808398:	00641823 	subu	v1,v1,a0
a080839c:	00031100 	sll	v0,v1,0x4
a08083a0:	00431023 	subu	v0,v0,v1
a08083a4:	00441021 	addu	v0,v0,a0
a08083a8:	00451021 	addu	v0,v0,a1
a08083ac:	2442005a 	addiu	v0,v0,90
a08083b0:	24c3cacc 	addiu	v1,a2,-13620
a08083b4:	00021080 	sll	v0,v0,0x2
a08083b8:	00621021 	addu	v0,v1,v0
a08083bc:	8c420004 	lw	v0,4(v0)
a08083c0:	00402021 	move	a0,v0
a08083c4:	0c200fbd 	jal	a0803ef4 <do_mutex_lock_release>
a08083c8:	00000000 	nop
a08083cc:	8fc20014 	lw	v0,20(s8)
a08083d0:	24420001 	addiu	v0,v0,1
a08083d4:	afc20014 	sw	v0,20(s8)
a08083d8:	8fc20014 	lw	v0,20(s8)
a08083dc:	2842000a 	slti	v0,v0,10
a08083e0:	1440ffd7 	bnez	v0,a0808340 <do_kill+0x3c8>
a08083e4:	00000000 	nop
a08083e8:	8fc40018 	lw	a0,24(s8)
a08083ec:	00801021 	move	v0,a0
a08083f0:	00021900 	sll	v1,v0,0x4
a08083f4:	00031080 	sll	v0,v1,0x2
a08083f8:	00431023 	subu	v0,v0,v1
a08083fc:	00441023 	subu	v0,v0,a0
a0808400:	000218c0 	sll	v1,v0,0x3
a0808404:	00431021 	addu	v0,v0,v1
a0808408:	00441021 	addu	v0,v0,a0
a080840c:	24430198 	addiu	v1,v0,408
a0808410:	3c02a086 	lui	v0,0xa086
a0808414:	2442cacc 	addiu	v0,v0,-13620
a0808418:	00621021 	addu	v0,v1,v0
a080841c:	00402021 	move	a0,v0
a0808420:	0c2021cf 	jal	a080873c <clear_waiting_queue>
a0808424:	00000000 	nop
a0808428:	3c02a081 	lui	v0,0xa081
a080842c:	8c427290 	lw	v0,29328(v0)
a0808430:	8c430140 	lw	v1,320(v0)
a0808434:	8fc20028 	lw	v0,40(s8)
a0808438:	14620003 	bne	v1,v0,a0808448 <do_kill+0x4d0>
a080843c:	00000000 	nop
a0808440:	0c2000b5 	jal	a08002d4 <do_scheduler>
a0808444:	00000000 	nop
a0808448:	03c0e821 	move	sp,s8
a080844c:	8fbf0024 	lw	ra,36(sp)
a0808450:	8fbe0020 	lw	s8,32(sp)
a0808454:	27bd0028 	addiu	sp,sp,40
a0808458:	03e00008 	jr	ra
a080845c:	00000000 	nop

a0808460 <get_pcb_index>:
a0808460:	27bdfff0 	addiu	sp,sp,-16
a0808464:	afbe000c 	sw	s8,12(sp)
a0808468:	03a0f021 	move	s8,sp
a080846c:	afc40010 	sw	a0,16(s8)
a0808470:	afc00000 	sw	zero,0(s8)
a0808474:	08202122 	j	a0808488 <get_pcb_index+0x28>
a0808478:	00000000 	nop
a080847c:	8fc20000 	lw	v0,0(s8)
a0808480:	24420001 	addiu	v0,v0,1
a0808484:	afc20000 	sw	v0,0(s8)
a0808488:	8fc20000 	lw	v0,0(s8)
a080848c:	28420028 	slti	v0,v0,40
a0808490:	10400011 	beqz	v0,a08084d8 <get_pcb_index+0x78>
a0808494:	00000000 	nop
a0808498:	8fc40000 	lw	a0,0(s8)
a080849c:	3c05a086 	lui	a1,0xa086
a08084a0:	00801021 	move	v0,a0
a08084a4:	00021900 	sll	v1,v0,0x4
a08084a8:	00031080 	sll	v0,v1,0x2
a08084ac:	00431023 	subu	v0,v0,v1
a08084b0:	00441023 	subu	v0,v0,a0
a08084b4:	000218c0 	sll	v1,v0,0x3
a08084b8:	00431021 	addu	v0,v0,v1
a08084bc:	00441821 	addu	v1,v0,a0
a08084c0:	24a2cacc 	addiu	v0,a1,-13620
a08084c4:	00621021 	addu	v0,v1,v0
a08084c8:	8c430140 	lw	v1,320(v0)
a08084cc:	8fc20010 	lw	v0,16(s8)
a08084d0:	1462ffea 	bne	v1,v0,a080847c <get_pcb_index+0x1c>
a08084d4:	00000000 	nop
a08084d8:	8fc20000 	lw	v0,0(s8)
a08084dc:	03c0e821 	move	sp,s8
a08084e0:	8fbe000c 	lw	s8,12(sp)
a08084e4:	27bd0010 	addiu	sp,sp,16
a08084e8:	03e00008 	jr	ra
a08084ec:	00000000 	nop

a08084f0 <queue_init>:
a08084f0:	27bdfff8 	addiu	sp,sp,-8
a08084f4:	afbe0004 	sw	s8,4(sp)
a08084f8:	03a0f021 	move	s8,sp
a08084fc:	afc40008 	sw	a0,8(s8)
a0808500:	8fc20008 	lw	v0,8(s8)
a0808504:	ac400004 	sw	zero,4(v0)
a0808508:	8fc20008 	lw	v0,8(s8)
a080850c:	8c430004 	lw	v1,4(v0)
a0808510:	8fc20008 	lw	v0,8(s8)
a0808514:	ac430000 	sw	v1,0(v0)
a0808518:	03c0e821 	move	sp,s8
a080851c:	8fbe0004 	lw	s8,4(sp)
a0808520:	27bd0008 	addiu	sp,sp,8
a0808524:	03e00008 	jr	ra
a0808528:	00000000 	nop

a080852c <queue_is_empty>:
a080852c:	27bdfff0 	addiu	sp,sp,-16
a0808530:	afbe000c 	sw	s8,12(sp)
a0808534:	03a0f021 	move	s8,sp
a0808538:	afc40010 	sw	a0,16(s8)
a080853c:	8fc20010 	lw	v0,16(s8)
a0808540:	8c420000 	lw	v0,0(v0)
a0808544:	14400005 	bnez	v0,a080855c <queue_is_empty+0x30>
a0808548:	00000000 	nop
a080854c:	24020001 	li	v0,1
a0808550:	afc20000 	sw	v0,0(s8)
a0808554:	08202158 	j	a0808560 <queue_is_empty+0x34>
a0808558:	00000000 	nop
a080855c:	afc00000 	sw	zero,0(s8)
a0808560:	8fc20000 	lw	v0,0(s8)
a0808564:	03c0e821 	move	sp,s8
a0808568:	8fbe000c 	lw	s8,12(sp)
a080856c:	27bd0010 	addiu	sp,sp,16
a0808570:	03e00008 	jr	ra
a0808574:	00000000 	nop

a0808578 <queue_push>:
a0808578:	27bdfff0 	addiu	sp,sp,-16
a080857c:	afbe000c 	sw	s8,12(sp)
a0808580:	03a0f021 	move	s8,sp
a0808584:	afc40010 	sw	a0,16(s8)
a0808588:	afc50014 	sw	a1,20(s8)
a080858c:	8fc20014 	lw	v0,20(s8)
a0808590:	afc20000 	sw	v0,0(s8)
a0808594:	8fc20010 	lw	v0,16(s8)
a0808598:	8c420000 	lw	v0,0(v0)
a080859c:	1440000d 	bnez	v0,a08085d4 <queue_push+0x5c>
a08085a0:	00000000 	nop
a08085a4:	8fc30010 	lw	v1,16(s8)
a08085a8:	8fc20014 	lw	v0,20(s8)
a08085ac:	ac620000 	sw	v0,0(v1)
a08085b0:	8fc30010 	lw	v1,16(s8)
a08085b4:	8fc20014 	lw	v0,20(s8)
a08085b8:	ac620004 	sw	v0,4(v1)
a08085bc:	8fc20000 	lw	v0,0(s8)
a08085c0:	ac400150 	sw	zero,336(v0)
a08085c4:	8fc20000 	lw	v0,0(s8)
a08085c8:	ac40014c 	sw	zero,332(v0)
a08085cc:	08202183 	j	a080860c <queue_push+0x94>
a08085d0:	00000000 	nop
a08085d4:	8fc20010 	lw	v0,16(s8)
a08085d8:	8c420004 	lw	v0,4(v0)
a08085dc:	00401821 	move	v1,v0
a08085e0:	8fc20014 	lw	v0,20(s8)
a08085e4:	ac620150 	sw	v0,336(v1)
a08085e8:	8fc20000 	lw	v0,0(s8)
a08085ec:	ac400150 	sw	zero,336(v0)
a08085f0:	8fc20010 	lw	v0,16(s8)
a08085f4:	8c430004 	lw	v1,4(v0)
a08085f8:	8fc20000 	lw	v0,0(s8)
a08085fc:	ac43014c 	sw	v1,332(v0)
a0808600:	8fc30010 	lw	v1,16(s8)
a0808604:	8fc20014 	lw	v0,20(s8)
a0808608:	ac620004 	sw	v0,4(v1)
a080860c:	03c0e821 	move	sp,s8
a0808610:	8fbe000c 	lw	s8,12(sp)
a0808614:	27bd0010 	addiu	sp,sp,16
a0808618:	03e00008 	jr	ra
a080861c:	00000000 	nop

a0808620 <queue_dequeue>:
a0808620:	27bdfff0 	addiu	sp,sp,-16
a0808624:	afbe000c 	sw	s8,12(sp)
a0808628:	03a0f021 	move	s8,sp
a080862c:	afc40010 	sw	a0,16(s8)
a0808630:	8fc20010 	lw	v0,16(s8)
a0808634:	8c420000 	lw	v0,0(v0)
a0808638:	afc20000 	sw	v0,0(s8)
a080863c:	8fc20000 	lw	v0,0(s8)
a0808640:	8c420150 	lw	v0,336(v0)
a0808644:	14400009 	bnez	v0,a080866c <queue_dequeue+0x4c>
a0808648:	00000000 	nop
a080864c:	8fc20010 	lw	v0,16(s8)
a0808650:	ac400004 	sw	zero,4(v0)
a0808654:	8fc20010 	lw	v0,16(s8)
a0808658:	8c430004 	lw	v1,4(v0)
a080865c:	8fc20010 	lw	v0,16(s8)
a0808660:	ac430000 	sw	v1,0(v0)
a0808664:	082021a3 	j	a080868c <queue_dequeue+0x6c>
a0808668:	00000000 	nop
a080866c:	8fc20010 	lw	v0,16(s8)
a0808670:	8c420000 	lw	v0,0(v0)
a0808674:	8c430150 	lw	v1,336(v0)
a0808678:	8fc20010 	lw	v0,16(s8)
a080867c:	ac430000 	sw	v1,0(v0)
a0808680:	8fc20010 	lw	v0,16(s8)
a0808684:	8c420000 	lw	v0,0(v0)
a0808688:	ac40014c 	sw	zero,332(v0)
a080868c:	8fc20000 	lw	v0,0(s8)
a0808690:	ac40014c 	sw	zero,332(v0)
a0808694:	8fc20000 	lw	v0,0(s8)
a0808698:	ac400150 	sw	zero,336(v0)
a080869c:	8fc20000 	lw	v0,0(s8)
a08086a0:	03c0e821 	move	sp,s8
a08086a4:	8fbe000c 	lw	s8,12(sp)
a08086a8:	27bd0010 	addiu	sp,sp,16
a08086ac:	03e00008 	jr	ra
a08086b0:	00000000 	nop

a08086b4 <check_in_queue>:
a08086b4:	27bdffe8 	addiu	sp,sp,-24
a08086b8:	afbe0014 	sw	s8,20(sp)
a08086bc:	03a0f021 	move	s8,sp
a08086c0:	afc40018 	sw	a0,24(s8)
a08086c4:	afc5001c 	sw	a1,28(s8)
a08086c8:	8fc20018 	lw	v0,24(s8)
a08086cc:	8c420000 	lw	v0,0(v0)
a08086d0:	afc20004 	sw	v0,4(s8)
a08086d4:	8fc20018 	lw	v0,24(s8)
a08086d8:	8c420004 	lw	v0,4(v0)
a08086dc:	afc20000 	sw	v0,0(s8)
a08086e0:	082021c5 	j	a0808714 <check_in_queue+0x60>
a08086e4:	00000000 	nop
a08086e8:	8fc3001c 	lw	v1,28(s8)
a08086ec:	8fc20004 	lw	v0,4(s8)
a08086f0:	14430005 	bne	v0,v1,a0808708 <check_in_queue+0x54>
a08086f4:	00000000 	nop
a08086f8:	24020001 	li	v0,1
a08086fc:	afc20008 	sw	v0,8(s8)
a0808700:	082021c9 	j	a0808724 <check_in_queue+0x70>
a0808704:	00000000 	nop
a0808708:	8fc20004 	lw	v0,4(s8)
a080870c:	8c420150 	lw	v0,336(v0)
a0808710:	afc20004 	sw	v0,4(s8)
a0808714:	8fc20004 	lw	v0,4(s8)
a0808718:	1440fff3 	bnez	v0,a08086e8 <check_in_queue+0x34>
a080871c:	00000000 	nop
a0808720:	afc00008 	sw	zero,8(s8)
a0808724:	8fc20008 	lw	v0,8(s8)
a0808728:	03c0e821 	move	sp,s8
a080872c:	8fbe0014 	lw	s8,20(sp)
a0808730:	27bd0018 	addiu	sp,sp,24
a0808734:	03e00008 	jr	ra
a0808738:	00000000 	nop

a080873c <clear_waiting_queue>:
a080873c:	27bdffe0 	addiu	sp,sp,-32
a0808740:	afbf001c 	sw	ra,28(sp)
a0808744:	afbe0018 	sw	s8,24(sp)
a0808748:	03a0f021 	move	s8,sp
a080874c:	afc40020 	sw	a0,32(s8)
a0808750:	082021e2 	j	a0808788 <clear_waiting_queue+0x4c>
a0808754:	00000000 	nop
a0808758:	8fc40020 	lw	a0,32(s8)
a080875c:	0c202188 	jal	a0808620 <queue_dequeue>
a0808760:	00000000 	nop
a0808764:	afc20010 	sw	v0,16(s8)
a0808768:	8fc30010 	lw	v1,16(s8)
a080876c:	24020002 	li	v0,2
a0808770:	ac620158 	sw	v0,344(v1)
a0808774:	3c02a081 	lui	v0,0xa081
a0808778:	24447abc 	addiu	a0,v0,31420
a080877c:	8fc50010 	lw	a1,16(s8)
a0808780:	0c20215e 	jal	a0808578 <queue_push>
a0808784:	00000000 	nop
a0808788:	8fc40020 	lw	a0,32(s8)
a080878c:	0c20214b 	jal	a080852c <queue_is_empty>
a0808790:	00000000 	nop
a0808794:	1040fff0 	beqz	v0,a0808758 <clear_waiting_queue+0x1c>
a0808798:	00000000 	nop
a080879c:	03c0e821 	move	sp,s8
a08087a0:	8fbf001c 	lw	ra,28(sp)
a08087a4:	8fbe0018 	lw	s8,24(sp)
a08087a8:	27bd0020 	addiu	sp,sp,32
a08087ac:	03e00008 	jr	ra
a08087b0:	00000000 	nop

a08087b4 <queue_remove>:
a08087b4:	27bdfff0 	addiu	sp,sp,-16
a08087b8:	afbe000c 	sw	s8,12(sp)
a08087bc:	03a0f021 	move	s8,sp
a08087c0:	afc40010 	sw	a0,16(s8)
a08087c4:	afc50014 	sw	a1,20(s8)
a08087c8:	8fc20014 	lw	v0,20(s8)
a08087cc:	afc20004 	sw	v0,4(s8)
a08087d0:	8fc20004 	lw	v0,4(s8)
a08087d4:	8c420150 	lw	v0,336(v0)
a08087d8:	afc20000 	sw	v0,0(s8)
a08087dc:	8fc20010 	lw	v0,16(s8)
a08087e0:	8c430000 	lw	v1,0(v0)
a08087e4:	8fc20014 	lw	v0,20(s8)
a08087e8:	1462000c 	bne	v1,v0,a080881c <queue_remove+0x68>
a08087ec:	00000000 	nop
a08087f0:	8fc20010 	lw	v0,16(s8)
a08087f4:	8c430004 	lw	v1,4(v0)
a08087f8:	8fc20014 	lw	v0,20(s8)
a08087fc:	14620007 	bne	v1,v0,a080881c <queue_remove+0x68>
a0808800:	00000000 	nop
a0808804:	8fc20010 	lw	v0,16(s8)
a0808808:	ac400000 	sw	zero,0(v0)
a080880c:	8fc20010 	lw	v0,16(s8)
a0808810:	ac400004 	sw	zero,4(v0)
a0808814:	0820222f 	j	a08088bc <queue_remove+0x108>
a0808818:	00000000 	nop
a080881c:	8fc20010 	lw	v0,16(s8)
a0808820:	8c430000 	lw	v1,0(v0)
a0808824:	8fc20014 	lw	v0,20(s8)
a0808828:	1462000a 	bne	v1,v0,a0808854 <queue_remove+0xa0>
a080882c:	00000000 	nop
a0808830:	8fc20004 	lw	v0,4(s8)
a0808834:	8c430150 	lw	v1,336(v0)
a0808838:	8fc20010 	lw	v0,16(s8)
a080883c:	ac430000 	sw	v1,0(v0)
a0808840:	8fc20010 	lw	v0,16(s8)
a0808844:	8c420000 	lw	v0,0(v0)
a0808848:	ac40014c 	sw	zero,332(v0)
a080884c:	0820222f 	j	a08088bc <queue_remove+0x108>
a0808850:	00000000 	nop
a0808854:	8fc20010 	lw	v0,16(s8)
a0808858:	8c430004 	lw	v1,4(v0)
a080885c:	8fc20014 	lw	v0,20(s8)
a0808860:	1462000a 	bne	v1,v0,a080888c <queue_remove+0xd8>
a0808864:	00000000 	nop
a0808868:	8fc20004 	lw	v0,4(s8)
a080886c:	8c43014c 	lw	v1,332(v0)
a0808870:	8fc20010 	lw	v0,16(s8)
a0808874:	ac430004 	sw	v1,4(v0)
a0808878:	8fc20010 	lw	v0,16(s8)
a080887c:	8c420004 	lw	v0,4(v0)
a0808880:	ac400150 	sw	zero,336(v0)
a0808884:	0820222f 	j	a08088bc <queue_remove+0x108>
a0808888:	00000000 	nop
a080888c:	8fc20004 	lw	v0,4(s8)
a0808890:	8c42014c 	lw	v0,332(v0)
a0808894:	00401821 	move	v1,v0
a0808898:	8fc20004 	lw	v0,4(s8)
a080889c:	8c420150 	lw	v0,336(v0)
a08088a0:	ac620150 	sw	v0,336(v1)
a08088a4:	8fc20004 	lw	v0,4(s8)
a08088a8:	8c420150 	lw	v0,336(v0)
a08088ac:	00401821 	move	v1,v0
a08088b0:	8fc20004 	lw	v0,4(s8)
a08088b4:	8c42014c 	lw	v0,332(v0)
a08088b8:	ac62014c 	sw	v0,332(v1)
a08088bc:	8fc20004 	lw	v0,4(s8)
a08088c0:	ac40014c 	sw	zero,332(v0)
a08088c4:	8fc20004 	lw	v0,4(s8)
a08088c8:	ac400150 	sw	zero,336(v0)
a08088cc:	8fc20000 	lw	v0,0(s8)
a08088d0:	03c0e821 	move	sp,s8
a08088d4:	8fbe000c 	lw	s8,12(sp)
a08088d8:	27bd0010 	addiu	sp,sp,16
a08088dc:	03e00008 	jr	ra
a08088e0:	00000000 	nop

a08088e4 <enqueue>:
a08088e4:	27bdfff0 	addiu	sp,sp,-16
a08088e8:	afbe000c 	sw	s8,12(sp)
a08088ec:	03a0f021 	move	s8,sp
a08088f0:	afc40010 	sw	a0,16(s8)
a08088f4:	afc50014 	sw	a1,20(s8)
a08088f8:	8fc20014 	lw	v0,20(s8)
a08088fc:	afc20000 	sw	v0,0(s8)
a0808900:	8fc20010 	lw	v0,16(s8)
a0808904:	8c420000 	lw	v0,0(v0)
a0808908:	1440000d 	bnez	v0,a0808940 <enqueue+0x5c>
a080890c:	00000000 	nop
a0808910:	8fc30010 	lw	v1,16(s8)
a0808914:	8fc20014 	lw	v0,20(s8)
a0808918:	ac620000 	sw	v0,0(v1)
a080891c:	8fc30010 	lw	v1,16(s8)
a0808920:	8fc20014 	lw	v0,20(s8)
a0808924:	ac620004 	sw	v0,4(v1)
a0808928:	8fc20000 	lw	v0,0(s8)
a080892c:	ac400150 	sw	zero,336(v0)
a0808930:	8fc20000 	lw	v0,0(s8)
a0808934:	ac40014c 	sw	zero,332(v0)
a0808938:	0820225e 	j	a0808978 <enqueue+0x94>
a080893c:	00000000 	nop
a0808940:	8fc20010 	lw	v0,16(s8)
a0808944:	8c420000 	lw	v0,0(v0)
a0808948:	00401821 	move	v1,v0
a080894c:	8fc20014 	lw	v0,20(s8)
a0808950:	ac62014c 	sw	v0,332(v1)
a0808954:	8fc20000 	lw	v0,0(s8)
a0808958:	ac40014c 	sw	zero,332(v0)
a080895c:	8fc20010 	lw	v0,16(s8)
a0808960:	8c430000 	lw	v1,0(v0)
a0808964:	8fc20000 	lw	v0,0(s8)
a0808968:	ac430150 	sw	v1,336(v0)
a080896c:	8fc30010 	lw	v1,16(s8)
a0808970:	8fc20014 	lw	v0,20(s8)
a0808974:	ac620000 	sw	v0,0(v1)
a0808978:	03c0e821 	move	sp,s8
a080897c:	8fbe000c 	lw	s8,12(sp)
a0808980:	27bd0010 	addiu	sp,sp,16
a0808984:	03e00008 	jr	ra
a0808988:	00000000 	nop
a080898c:	00000000 	nop

a0808990 <get_ticks>:
a0808990:	27bdfff8 	addiu	sp,sp,-8
a0808994:	afbe0004 	sw	s8,4(sp)
a0808998:	03a0f021 	move	s8,sp
a080899c:	3c02a082 	lui	v0,0xa082
a08089a0:	8c42a068 	lw	v0,-24472(v0)
a08089a4:	03c0e821 	move	sp,s8
a08089a8:	8fbe0004 	lw	s8,4(sp)
a08089ac:	27bd0008 	addiu	sp,sp,8
a08089b0:	03e00008 	jr	ra
a08089b4:	00000000 	nop

a08089b8 <get_timer>:
a08089b8:	27bdfff8 	addiu	sp,sp,-8
a08089bc:	afbe0004 	sw	s8,4(sp)
a08089c0:	03a0f021 	move	s8,sp
a08089c4:	3c02a082 	lui	v0,0xa082
a08089c8:	8c43a068 	lw	v1,-24472(v0)
a08089cc:	3c02d1b7 	lui	v0,0xd1b7
a08089d0:	34421759 	ori	v0,v0,0x1759
a08089d4:	00620019 	multu	v1,v0
a08089d8:	00001010 	mfhi	v0
a08089dc:	00021302 	srl	v0,v0,0xc
a08089e0:	03c0e821 	move	sp,s8
a08089e4:	8fbe0004 	lw	s8,4(sp)
a08089e8:	27bd0008 	addiu	sp,sp,8
a08089ec:	03e00008 	jr	ra
a08089f0:	00000000 	nop

a08089f4 <latency>:
a08089f4:	27bdffe0 	addiu	sp,sp,-32
a08089f8:	afbf001c 	sw	ra,28(sp)
a08089fc:	afbe0018 	sw	s8,24(sp)
a0808a00:	03a0f021 	move	s8,sp
a0808a04:	afc40020 	sw	a0,32(s8)
a0808a08:	0c20226e 	jal	a08089b8 <get_timer>
a0808a0c:	00000000 	nop
a0808a10:	afc20010 	sw	v0,16(s8)
a0808a14:	0c20226e 	jal	a08089b8 <get_timer>
a0808a18:	00000000 	nop
a0808a1c:	00401821 	move	v1,v0
a0808a20:	8fc20010 	lw	v0,16(s8)
a0808a24:	00621823 	subu	v1,v1,v0
a0808a28:	8fc20020 	lw	v0,32(s8)
a0808a2c:	0062102b 	sltu	v0,v1,v0
a0808a30:	1440fff8 	bnez	v0,a0808a14 <latency+0x20>
a0808a34:	00000000 	nop
a0808a38:	03c0e821 	move	sp,s8
a0808a3c:	8fbf001c 	lw	ra,28(sp)
a0808a40:	8fbe0018 	lw	s8,24(sp)
a0808a44:	27bd0020 	addiu	sp,sp,32
a0808a48:	03e00008 	jr	ra
a0808a4c:	00000000 	nop

a0808a50 <set_block_bmp>:
a0808a50:	27bdffe8 	addiu	sp,sp,-24
a0808a54:	afbf0014 	sw	ra,20(sp)
a0808a58:	afbe0010 	sw	s8,16(sp)
a0808a5c:	03a0f021 	move	s8,sp
a0808a60:	afc40018 	sw	a0,24(s8)
a0808a64:	3c02a083 	lui	v0,0xa083
a0808a68:	244430f0 	addiu	a0,v0,12528
a0808a6c:	8fc50018 	lw	a1,24(s8)
a0808a70:	0c20428e 	jal	a0810a38 <set_bitmap>
a0808a74:	00000000 	nop
a0808a78:	03c0e821 	move	sp,s8
a0808a7c:	8fbf0014 	lw	ra,20(sp)
a0808a80:	8fbe0010 	lw	s8,16(sp)
a0808a84:	27bd0018 	addiu	sp,sp,24
a0808a88:	03e00008 	jr	ra
a0808a8c:	00000000 	nop

a0808a90 <unset_block_bmp>:
a0808a90:	27bdffe8 	addiu	sp,sp,-24
a0808a94:	afbf0014 	sw	ra,20(sp)
a0808a98:	afbe0010 	sw	s8,16(sp)
a0808a9c:	03a0f021 	move	s8,sp
a0808aa0:	afc40018 	sw	a0,24(s8)
a0808aa4:	3c02a083 	lui	v0,0xa083
a0808aa8:	244430f0 	addiu	a0,v0,12528
a0808aac:	8fc50018 	lw	a1,24(s8)
a0808ab0:	0c2042b3 	jal	a0810acc <unset_bitmap>
a0808ab4:	00000000 	nop
a0808ab8:	03c0e821 	move	sp,s8
a0808abc:	8fbf0014 	lw	ra,20(sp)
a0808ac0:	8fbe0010 	lw	s8,16(sp)
a0808ac4:	27bd0018 	addiu	sp,sp,24
a0808ac8:	03e00008 	jr	ra
a0808acc:	00000000 	nop

a0808ad0 <check_block_bmp>:
a0808ad0:	27bdffe8 	addiu	sp,sp,-24
a0808ad4:	afbf0014 	sw	ra,20(sp)
a0808ad8:	afbe0010 	sw	s8,16(sp)
a0808adc:	03a0f021 	move	s8,sp
a0808ae0:	afc40018 	sw	a0,24(s8)
a0808ae4:	3c02a083 	lui	v0,0xa083
a0808ae8:	244430f0 	addiu	a0,v0,12528
a0808aec:	8fc50018 	lw	a1,24(s8)
a0808af0:	0c20426c 	jal	a08109b0 <check_bitmap>
a0808af4:	00000000 	nop
a0808af8:	03c0e821 	move	sp,s8
a0808afc:	8fbf0014 	lw	ra,20(sp)
a0808b00:	8fbe0010 	lw	s8,16(sp)
a0808b04:	27bd0018 	addiu	sp,sp,24
a0808b08:	03e00008 	jr	ra
a0808b0c:	00000000 	nop

a0808b10 <set_inode_bmp>:
a0808b10:	27bdffe8 	addiu	sp,sp,-24
a0808b14:	afbf0014 	sw	ra,20(sp)
a0808b18:	afbe0010 	sw	s8,16(sp)
a0808b1c:	03a0f021 	move	s8,sp
a0808b20:	afc40018 	sw	a0,24(s8)
a0808b24:	3c02a084 	lui	v0,0xa084
a0808b28:	2444b0f0 	addiu	a0,v0,-20240
a0808b2c:	8fc50018 	lw	a1,24(s8)
a0808b30:	0c20428e 	jal	a0810a38 <set_bitmap>
a0808b34:	00000000 	nop
a0808b38:	03c0e821 	move	sp,s8
a0808b3c:	8fbf0014 	lw	ra,20(sp)
a0808b40:	8fbe0010 	lw	s8,16(sp)
a0808b44:	27bd0018 	addiu	sp,sp,24
a0808b48:	03e00008 	jr	ra
a0808b4c:	00000000 	nop

a0808b50 <unset_inode_bmp>:
a0808b50:	27bdffe8 	addiu	sp,sp,-24
a0808b54:	afbf0014 	sw	ra,20(sp)
a0808b58:	afbe0010 	sw	s8,16(sp)
a0808b5c:	03a0f021 	move	s8,sp
a0808b60:	afc40018 	sw	a0,24(s8)
a0808b64:	3c02a084 	lui	v0,0xa084
a0808b68:	2444b0f0 	addiu	a0,v0,-20240
a0808b6c:	8fc50018 	lw	a1,24(s8)
a0808b70:	0c2042b3 	jal	a0810acc <unset_bitmap>
a0808b74:	00000000 	nop
a0808b78:	03c0e821 	move	sp,s8
a0808b7c:	8fbf0014 	lw	ra,20(sp)
a0808b80:	8fbe0010 	lw	s8,16(sp)
a0808b84:	27bd0018 	addiu	sp,sp,24
a0808b88:	03e00008 	jr	ra
a0808b8c:	00000000 	nop

a0808b90 <check_inode_bmp>:
a0808b90:	27bdffe8 	addiu	sp,sp,-24
a0808b94:	afbf0014 	sw	ra,20(sp)
a0808b98:	afbe0010 	sw	s8,16(sp)
a0808b9c:	03a0f021 	move	s8,sp
a0808ba0:	afc40018 	sw	a0,24(s8)
a0808ba4:	3c02a084 	lui	v0,0xa084
a0808ba8:	2444b0f0 	addiu	a0,v0,-20240
a0808bac:	8fc50018 	lw	a1,24(s8)
a0808bb0:	0c20426c 	jal	a08109b0 <check_bitmap>
a0808bb4:	00000000 	nop
a0808bb8:	03c0e821 	move	sp,s8
a0808bbc:	8fbf0014 	lw	ra,20(sp)
a0808bc0:	8fbe0010 	lw	s8,16(sp)
a0808bc4:	27bd0018 	addiu	sp,sp,24
a0808bc8:	03e00008 	jr	ra
a0808bcc:	00000000 	nop

a0808bd0 <sd_card_read>:
a0808bd0:	27bdffe8 	addiu	sp,sp,-24
a0808bd4:	afbf0014 	sw	ra,20(sp)
a0808bd8:	afbe0010 	sw	s8,16(sp)
a0808bdc:	03a0f021 	move	s8,sp
a0808be0:	afc40018 	sw	a0,24(s8)
a0808be4:	afc5001c 	sw	a1,28(s8)
a0808be8:	afc60020 	sw	a2,32(s8)
a0808bec:	8fc20018 	lw	v0,24(s8)
a0808bf0:	8fc30020 	lw	v1,32(s8)
a0808bf4:	00402021 	move	a0,v0
a0808bf8:	8fc5001c 	lw	a1,28(s8)
a0808bfc:	00603021 	move	a2,v1
a0808c00:	0c2054b6 	jal	a08152d8 <.pic.sdread>
a0808c04:	00000000 	nop
a0808c08:	03c0e821 	move	sp,s8
a0808c0c:	8fbf0014 	lw	ra,20(sp)
a0808c10:	8fbe0010 	lw	s8,16(sp)
a0808c14:	27bd0018 	addiu	sp,sp,24
a0808c18:	03e00008 	jr	ra
a0808c1c:	00000000 	nop

a0808c20 <sd_card_write>:
a0808c20:	27bdffe8 	addiu	sp,sp,-24
a0808c24:	afbf0014 	sw	ra,20(sp)
a0808c28:	afbe0010 	sw	s8,16(sp)
a0808c2c:	03a0f021 	move	s8,sp
a0808c30:	afc40018 	sw	a0,24(s8)
a0808c34:	afc5001c 	sw	a1,28(s8)
a0808c38:	afc60020 	sw	a2,32(s8)
a0808c3c:	8fc20018 	lw	v0,24(s8)
a0808c40:	8fc30020 	lw	v1,32(s8)
a0808c44:	00402021 	move	a0,v0
a0808c48:	8fc5001c 	lw	a1,28(s8)
a0808c4c:	00603021 	move	a2,v1
a0808c50:	0c20543a 	jal	a08150e8 <.pic.sdwrite>
a0808c54:	00000000 	nop
a0808c58:	03c0e821 	move	sp,s8
a0808c5c:	8fbf0014 	lw	ra,20(sp)
a0808c60:	8fbe0010 	lw	s8,16(sp)
a0808c64:	27bd0018 	addiu	sp,sp,24
a0808c68:	03e00008 	jr	ra
a0808c6c:	00000000 	nop

a0808c70 <write_block>:
a0808c70:	27bdffe0 	addiu	sp,sp,-32
a0808c74:	afbf001c 	sw	ra,28(sp)
a0808c78:	afbe0018 	sw	s8,24(sp)
a0808c7c:	03a0f021 	move	s8,sp
a0808c80:	afc40020 	sw	a0,32(s8)
a0808c84:	afc50024 	sw	a1,36(s8)
a0808c88:	8fc30020 	lw	v1,32(s8)
a0808c8c:	3c020002 	lui	v0,0x2
a0808c90:	00621021 	addu	v0,v1,v0
a0808c94:	00021300 	sll	v0,v0,0xc
a0808c98:	afc20010 	sw	v0,16(s8)
a0808c9c:	8fc40024 	lw	a0,36(s8)
a0808ca0:	8fc50010 	lw	a1,16(s8)
a0808ca4:	24061000 	li	a2,4096
a0808ca8:	0c202308 	jal	a0808c20 <sd_card_write>
a0808cac:	00000000 	nop
a0808cb0:	03c0e821 	move	sp,s8
a0808cb4:	8fbf001c 	lw	ra,28(sp)
a0808cb8:	8fbe0018 	lw	s8,24(sp)
a0808cbc:	27bd0020 	addiu	sp,sp,32
a0808cc0:	03e00008 	jr	ra
a0808cc4:	00000000 	nop

a0808cc8 <read_block>:
a0808cc8:	27bdffe0 	addiu	sp,sp,-32
a0808ccc:	afbf001c 	sw	ra,28(sp)
a0808cd0:	afbe0018 	sw	s8,24(sp)
a0808cd4:	03a0f021 	move	s8,sp
a0808cd8:	afc40020 	sw	a0,32(s8)
a0808cdc:	afc50024 	sw	a1,36(s8)
a0808ce0:	8fc30020 	lw	v1,32(s8)
a0808ce4:	3c020002 	lui	v0,0x2
a0808ce8:	00621021 	addu	v0,v1,v0
a0808cec:	00021300 	sll	v0,v0,0xc
a0808cf0:	afc20010 	sw	v0,16(s8)
a0808cf4:	8fc40024 	lw	a0,36(s8)
a0808cf8:	8fc50010 	lw	a1,16(s8)
a0808cfc:	24061000 	li	a2,4096
a0808d00:	0c2022f4 	jal	a0808bd0 <sd_card_read>
a0808d04:	00000000 	nop
a0808d08:	03c0e821 	move	sp,s8
a0808d0c:	8fbf001c 	lw	ra,28(sp)
a0808d10:	8fbe0018 	lw	s8,24(sp)
a0808d14:	27bd0020 	addiu	sp,sp,32
a0808d18:	03e00008 	jr	ra
a0808d1c:	00000000 	nop

a0808d20 <sync_to_disk_inode_bmp>:
a0808d20:	27bdffe8 	addiu	sp,sp,-24
a0808d24:	afbf0014 	sw	ra,20(sp)
a0808d28:	afbe0010 	sw	s8,16(sp)
a0808d2c:	03a0f021 	move	s8,sp
a0808d30:	24040009 	li	a0,9
a0808d34:	3c02a084 	lui	v0,0xa084
a0808d38:	2445b0f0 	addiu	a1,v0,-20240
a0808d3c:	0c20231c 	jal	a0808c70 <write_block>
a0808d40:	00000000 	nop
a0808d44:	03c0e821 	move	sp,s8
a0808d48:	8fbf0014 	lw	ra,20(sp)
a0808d4c:	8fbe0010 	lw	s8,16(sp)
a0808d50:	27bd0018 	addiu	sp,sp,24
a0808d54:	03e00008 	jr	ra
a0808d58:	00000000 	nop

a0808d5c <sync_to_disk_block_bmp>:
a0808d5c:	27bdffe0 	addiu	sp,sp,-32
a0808d60:	afbf001c 	sw	ra,28(sp)
a0808d64:	afbe0018 	sw	s8,24(sp)
a0808d68:	03a0f021 	move	s8,sp
a0808d6c:	afc00010 	sw	zero,16(s8)
a0808d70:	0820236d 	j	a0808db4 <sync_to_disk_block_bmp+0x58>
a0808d74:	00000000 	nop
a0808d78:	8fc20010 	lw	v0,16(s8)
a0808d7c:	24420001 	addiu	v0,v0,1
a0808d80:	00402021 	move	a0,v0
a0808d84:	8fc20010 	lw	v0,16(s8)
a0808d88:	00021300 	sll	v0,v0,0xc
a0808d8c:	00401821 	move	v1,v0
a0808d90:	3c02a083 	lui	v0,0xa083
a0808d94:	244230f0 	addiu	v0,v0,12528
a0808d98:	00621021 	addu	v0,v1,v0
a0808d9c:	00402821 	move	a1,v0
a0808da0:	0c20231c 	jal	a0808c70 <write_block>
a0808da4:	00000000 	nop
a0808da8:	8fc20010 	lw	v0,16(s8)
a0808dac:	24420001 	addiu	v0,v0,1
a0808db0:	afc20010 	sw	v0,16(s8)
a0808db4:	8fc20010 	lw	v0,16(s8)
a0808db8:	28420008 	slti	v0,v0,8
a0808dbc:	1440ffee 	bnez	v0,a0808d78 <sync_to_disk_block_bmp+0x1c>
a0808dc0:	00000000 	nop
a0808dc4:	03c0e821 	move	sp,s8
a0808dc8:	8fbf001c 	lw	ra,28(sp)
a0808dcc:	8fbe0018 	lw	s8,24(sp)
a0808dd0:	27bd0020 	addiu	sp,sp,32
a0808dd4:	03e00008 	jr	ra
a0808dd8:	00000000 	nop

a0808ddc <sync_to_disk_superblock>:
a0808ddc:	27bdffe8 	addiu	sp,sp,-24
a0808de0:	afbf0014 	sw	ra,20(sp)
a0808de4:	afbe0010 	sw	s8,16(sp)
a0808de8:	03a0f021 	move	s8,sp
a0808dec:	00002021 	move	a0,zero
a0808df0:	3c02a083 	lui	v0,0xa083
a0808df4:	244520f0 	addiu	a1,v0,8432
a0808df8:	0c20231c 	jal	a0808c70 <write_block>
a0808dfc:	00000000 	nop
a0808e00:	03c0e821 	move	sp,s8
a0808e04:	8fbf0014 	lw	ra,20(sp)
a0808e08:	8fbe0010 	lw	s8,16(sp)
a0808e0c:	27bd0018 	addiu	sp,sp,24
a0808e10:	03e00008 	jr	ra
a0808e14:	00000000 	nop

a0808e18 <sync_to_disk_inode_table>:
a0808e18:	27bdffe8 	addiu	sp,sp,-24
a0808e1c:	afbf0014 	sw	ra,20(sp)
a0808e20:	afbe0010 	sw	s8,16(sp)
a0808e24:	03a0f021 	move	s8,sp
a0808e28:	afc40018 	sw	a0,24(s8)
a0808e2c:	8fc20018 	lw	v0,24(s8)
a0808e30:	2442000a 	addiu	v0,v0,10
a0808e34:	00402021 	move	a0,v0
a0808e38:	3c02a084 	lui	v0,0xa084
a0808e3c:	2445c0f0 	addiu	a1,v0,-16144
a0808e40:	0c20231c 	jal	a0808c70 <write_block>
a0808e44:	00000000 	nop
a0808e48:	03c0e821 	move	sp,s8
a0808e4c:	8fbf0014 	lw	ra,20(sp)
a0808e50:	8fbe0010 	lw	s8,16(sp)
a0808e54:	27bd0018 	addiu	sp,sp,24
a0808e58:	03e00008 	jr	ra
a0808e5c:	00000000 	nop

a0808e60 <sync_to_disk_file_data>:
a0808e60:	27bdffe8 	addiu	sp,sp,-24
a0808e64:	afbf0014 	sw	ra,20(sp)
a0808e68:	afbe0010 	sw	s8,16(sp)
a0808e6c:	03a0f021 	move	s8,sp
a0808e70:	afc40018 	sw	a0,24(s8)
a0808e74:	8fc40018 	lw	a0,24(s8)
a0808e78:	3c02a084 	lui	v0,0xa084
a0808e7c:	2445d0f0 	addiu	a1,v0,-12048
a0808e80:	0c20231c 	jal	a0808c70 <write_block>
a0808e84:	00000000 	nop
a0808e88:	03c0e821 	move	sp,s8
a0808e8c:	8fbf0014 	lw	ra,20(sp)
a0808e90:	8fbe0010 	lw	s8,16(sp)
a0808e94:	27bd0018 	addiu	sp,sp,24
a0808e98:	03e00008 	jr	ra
a0808e9c:	00000000 	nop

a0808ea0 <sync_to_disk_dentry>:
a0808ea0:	27bdffe8 	addiu	sp,sp,-24
a0808ea4:	afbf0014 	sw	ra,20(sp)
a0808ea8:	afbe0010 	sw	s8,16(sp)
a0808eac:	03a0f021 	move	s8,sp
a0808eb0:	afc40018 	sw	a0,24(s8)
a0808eb4:	8fc40018 	lw	a0,24(s8)
a0808eb8:	3c02a084 	lui	v0,0xa084
a0808ebc:	2445e0f0 	addiu	a1,v0,-7952
a0808ec0:	0c20231c 	jal	a0808c70 <write_block>
a0808ec4:	00000000 	nop
a0808ec8:	03c0e821 	move	sp,s8
a0808ecc:	8fbf0014 	lw	ra,20(sp)
a0808ed0:	8fbe0010 	lw	s8,16(sp)
a0808ed4:	27bd0018 	addiu	sp,sp,24
a0808ed8:	03e00008 	jr	ra
a0808edc:	00000000 	nop

a0808ee0 <sync_from_disk_inode_bmp>:
a0808ee0:	27bdffe8 	addiu	sp,sp,-24
a0808ee4:	afbf0014 	sw	ra,20(sp)
a0808ee8:	afbe0010 	sw	s8,16(sp)
a0808eec:	03a0f021 	move	s8,sp
a0808ef0:	24040009 	li	a0,9
a0808ef4:	3c02a084 	lui	v0,0xa084
a0808ef8:	2445b0f0 	addiu	a1,v0,-20240
a0808efc:	0c202332 	jal	a0808cc8 <read_block>
a0808f00:	00000000 	nop
a0808f04:	03c0e821 	move	sp,s8
a0808f08:	8fbf0014 	lw	ra,20(sp)
a0808f0c:	8fbe0010 	lw	s8,16(sp)
a0808f10:	27bd0018 	addiu	sp,sp,24
a0808f14:	03e00008 	jr	ra
a0808f18:	00000000 	nop

a0808f1c <sync_from_disk_block_bmp>:
a0808f1c:	27bdffe0 	addiu	sp,sp,-32
a0808f20:	afbf001c 	sw	ra,28(sp)
a0808f24:	afbe0018 	sw	s8,24(sp)
a0808f28:	03a0f021 	move	s8,sp
a0808f2c:	afc00010 	sw	zero,16(s8)
a0808f30:	082023dd 	j	a0808f74 <sync_from_disk_block_bmp+0x58>
a0808f34:	00000000 	nop
a0808f38:	8fc20010 	lw	v0,16(s8)
a0808f3c:	24420001 	addiu	v0,v0,1
a0808f40:	00402021 	move	a0,v0
a0808f44:	8fc20010 	lw	v0,16(s8)
a0808f48:	00021300 	sll	v0,v0,0xc
a0808f4c:	00401821 	move	v1,v0
a0808f50:	3c02a083 	lui	v0,0xa083
a0808f54:	244230f0 	addiu	v0,v0,12528
a0808f58:	00621021 	addu	v0,v1,v0
a0808f5c:	00402821 	move	a1,v0
a0808f60:	0c202332 	jal	a0808cc8 <read_block>
a0808f64:	00000000 	nop
a0808f68:	8fc20010 	lw	v0,16(s8)
a0808f6c:	24420001 	addiu	v0,v0,1
a0808f70:	afc20010 	sw	v0,16(s8)
a0808f74:	8fc20010 	lw	v0,16(s8)
a0808f78:	28420008 	slti	v0,v0,8
a0808f7c:	1440ffee 	bnez	v0,a0808f38 <sync_from_disk_block_bmp+0x1c>
a0808f80:	00000000 	nop
a0808f84:	03c0e821 	move	sp,s8
a0808f88:	8fbf001c 	lw	ra,28(sp)
a0808f8c:	8fbe0018 	lw	s8,24(sp)
a0808f90:	27bd0020 	addiu	sp,sp,32
a0808f94:	03e00008 	jr	ra
a0808f98:	00000000 	nop

a0808f9c <sync_from_disk_superblock>:
a0808f9c:	27bdffe8 	addiu	sp,sp,-24
a0808fa0:	afbf0014 	sw	ra,20(sp)
a0808fa4:	afbe0010 	sw	s8,16(sp)
a0808fa8:	03a0f021 	move	s8,sp
a0808fac:	00002021 	move	a0,zero
a0808fb0:	3c02a083 	lui	v0,0xa083
a0808fb4:	244520f0 	addiu	a1,v0,8432
a0808fb8:	0c202332 	jal	a0808cc8 <read_block>
a0808fbc:	00000000 	nop
a0808fc0:	03c0e821 	move	sp,s8
a0808fc4:	8fbf0014 	lw	ra,20(sp)
a0808fc8:	8fbe0010 	lw	s8,16(sp)
a0808fcc:	27bd0018 	addiu	sp,sp,24
a0808fd0:	03e00008 	jr	ra
a0808fd4:	00000000 	nop

a0808fd8 <sync_from_disk_inode_table>:
a0808fd8:	27bdffe8 	addiu	sp,sp,-24
a0808fdc:	afbf0014 	sw	ra,20(sp)
a0808fe0:	afbe0010 	sw	s8,16(sp)
a0808fe4:	03a0f021 	move	s8,sp
a0808fe8:	afc40018 	sw	a0,24(s8)
a0808fec:	8fc20018 	lw	v0,24(s8)
a0808ff0:	2442000a 	addiu	v0,v0,10
a0808ff4:	00402021 	move	a0,v0
a0808ff8:	3c02a084 	lui	v0,0xa084
a0808ffc:	2445c0f0 	addiu	a1,v0,-16144
a0809000:	0c202332 	jal	a0808cc8 <read_block>
a0809004:	00000000 	nop
a0809008:	03c0e821 	move	sp,s8
a080900c:	8fbf0014 	lw	ra,20(sp)
a0809010:	8fbe0010 	lw	s8,16(sp)
a0809014:	27bd0018 	addiu	sp,sp,24
a0809018:	03e00008 	jr	ra
a080901c:	00000000 	nop

a0809020 <sync_from_disk_file_data>:
a0809020:	27bdffe8 	addiu	sp,sp,-24
a0809024:	afbf0014 	sw	ra,20(sp)
a0809028:	afbe0010 	sw	s8,16(sp)
a080902c:	03a0f021 	move	s8,sp
a0809030:	afc40018 	sw	a0,24(s8)
a0809034:	8fc40018 	lw	a0,24(s8)
a0809038:	3c02a084 	lui	v0,0xa084
a080903c:	2445d0f0 	addiu	a1,v0,-12048
a0809040:	0c202332 	jal	a0808cc8 <read_block>
a0809044:	00000000 	nop
a0809048:	03c0e821 	move	sp,s8
a080904c:	8fbf0014 	lw	ra,20(sp)
a0809050:	8fbe0010 	lw	s8,16(sp)
a0809054:	27bd0018 	addiu	sp,sp,24
a0809058:	03e00008 	jr	ra
a080905c:	00000000 	nop

a0809060 <sync_from_disk_dentry>:
a0809060:	27bdffe8 	addiu	sp,sp,-24
a0809064:	afbf0014 	sw	ra,20(sp)
a0809068:	afbe0010 	sw	s8,16(sp)
a080906c:	03a0f021 	move	s8,sp
a0809070:	afc40018 	sw	a0,24(s8)
a0809074:	8fc40018 	lw	a0,24(s8)
a0809078:	3c02a084 	lui	v0,0xa084
a080907c:	2445e0f0 	addiu	a1,v0,-7952
a0809080:	0c202332 	jal	a0808cc8 <read_block>
a0809084:	00000000 	nop
a0809088:	03c0e821 	move	sp,s8
a080908c:	8fbf0014 	lw	ra,20(sp)
a0809090:	8fbe0010 	lw	s8,16(sp)
a0809094:	27bd0018 	addiu	sp,sp,24
a0809098:	03e00008 	jr	ra
a080909c:	00000000 	nop

a08090a0 <count_char_in_string>:
a08090a0:	27bdfff0 	addiu	sp,sp,-16
a08090a4:	afbe000c 	sw	s8,12(sp)
a08090a8:	03a0f021 	move	s8,sp
a08090ac:	00801021 	move	v0,a0
a08090b0:	afc50014 	sw	a1,20(s8)
a08090b4:	a3c20010 	sb	v0,16(s8)
a08090b8:	afc00004 	sw	zero,4(s8)
a08090bc:	afc00000 	sw	zero,0(s8)
a08090c0:	0820243f 	j	a08090fc <count_char_in_string+0x5c>
a08090c4:	00000000 	nop
a08090c8:	8fc30004 	lw	v1,4(s8)
a08090cc:	8fc20014 	lw	v0,20(s8)
a08090d0:	00431021 	addu	v0,v0,v1
a08090d4:	80430000 	lb	v1,0(v0)
a08090d8:	83c20010 	lb	v0,16(s8)
a08090dc:	14430004 	bne	v0,v1,a08090f0 <count_char_in_string+0x50>
a08090e0:	00000000 	nop
a08090e4:	8fc20000 	lw	v0,0(s8)
a08090e8:	24420001 	addiu	v0,v0,1
a08090ec:	afc20000 	sw	v0,0(s8)
a08090f0:	8fc20004 	lw	v0,4(s8)
a08090f4:	24420001 	addiu	v0,v0,1
a08090f8:	afc20004 	sw	v0,4(s8)
a08090fc:	8fc30004 	lw	v1,4(s8)
a0809100:	8fc20014 	lw	v0,20(s8)
a0809104:	00431021 	addu	v0,v0,v1
a0809108:	80420000 	lb	v0,0(v0)
a080910c:	1440ffee 	bnez	v0,a08090c8 <count_char_in_string+0x28>
a0809110:	00000000 	nop
a0809114:	8fc20000 	lw	v0,0(s8)
a0809118:	03c0e821 	move	sp,s8
a080911c:	8fbe000c 	lw	s8,12(sp)
a0809120:	27bd0010 	addiu	sp,sp,16
a0809124:	03e00008 	jr	ra
a0809128:	00000000 	nop

a080912c <clear_block_index>:
a080912c:	27bdffe8 	addiu	sp,sp,-24
a0809130:	afbf0014 	sw	ra,20(sp)
a0809134:	afbe0010 	sw	s8,16(sp)
a0809138:	03a0f021 	move	s8,sp
a080913c:	afc40018 	sw	a0,24(s8)
a0809140:	3c02a084 	lui	v0,0xa084
a0809144:	244432f0 	addiu	a0,v0,13040
a0809148:	24051000 	li	a1,4096
a080914c:	0c203ad3 	jal	a080eb4c <bzero>
a0809150:	00000000 	nop
a0809154:	3c02a084 	lui	v0,0xa084
a0809158:	244232f0 	addiu	v0,v0,13040
a080915c:	8fc40018 	lw	a0,24(s8)
a0809160:	00402821 	move	a1,v0
a0809164:	0c20231c 	jal	a0808c70 <write_block>
a0809168:	00000000 	nop
a080916c:	03c0e821 	move	sp,s8
a0809170:	8fbf0014 	lw	ra,20(sp)
a0809174:	8fbe0010 	lw	s8,16(sp)
a0809178:	27bd0018 	addiu	sp,sp,24
a080917c:	03e00008 	jr	ra
a0809180:	00000000 	nop

a0809184 <write_to_buffer_inode>:
a0809184:	27bdffe8 	addiu	sp,sp,-24
a0809188:	afbf0014 	sw	ra,20(sp)
a080918c:	afbe0010 	sw	s8,16(sp)
a0809190:	03a0f021 	move	s8,sp
a0809194:	afc40018 	sw	a0,24(s8)
a0809198:	8fc20018 	lw	v0,24(s8)
a080919c:	8c420054 	lw	v0,84(v0)
a08091a0:	3042001f 	andi	v0,v0,0x1f
a08091a4:	000219c0 	sll	v1,v0,0x7
a08091a8:	3c02a084 	lui	v0,0xa084
a08091ac:	2442c0f0 	addiu	v0,v0,-16144
a08091b0:	00621021 	addu	v0,v1,v0
a08091b4:	8fc30018 	lw	v1,24(s8)
a08091b8:	00402021 	move	a0,v0
a08091bc:	00602821 	move	a1,v1
a08091c0:	24060080 	li	a2,128
a08091c4:	0c203a9a 	jal	a080ea68 <memcpy>
a08091c8:	00000000 	nop
a08091cc:	03c0e821 	move	sp,s8
a08091d0:	8fbf0014 	lw	ra,20(sp)
a08091d4:	8fbe0010 	lw	s8,16(sp)
a08091d8:	27bd0018 	addiu	sp,sp,24
a08091dc:	03e00008 	jr	ra
a08091e0:	00000000 	nop

a08091e4 <sync_from_disk_inode>:
a08091e4:	27bdffe0 	addiu	sp,sp,-32
a08091e8:	afbf001c 	sw	ra,28(sp)
a08091ec:	afbe0018 	sw	s8,24(sp)
a08091f0:	03a0f021 	move	s8,sp
a08091f4:	afc40020 	sw	a0,32(s8)
a08091f8:	afc50024 	sw	a1,36(s8)
a08091fc:	8fc20020 	lw	v0,32(s8)
a0809200:	00021142 	srl	v0,v0,0x5
a0809204:	afc20010 	sw	v0,16(s8)
a0809208:	8fc40010 	lw	a0,16(s8)
a080920c:	0c2023f6 	jal	a0808fd8 <sync_from_disk_inode_table>
a0809210:	00000000 	nop
a0809214:	8fc40024 	lw	a0,36(s8)
a0809218:	8fc20020 	lw	v0,32(s8)
a080921c:	3042001f 	andi	v0,v0,0x1f
a0809220:	000219c0 	sll	v1,v0,0x7
a0809224:	3c02a084 	lui	v0,0xa084
a0809228:	2442c0f0 	addiu	v0,v0,-16144
a080922c:	00621021 	addu	v0,v1,v0
a0809230:	00402821 	move	a1,v0
a0809234:	24060080 	li	a2,128
a0809238:	0c203a9a 	jal	a080ea68 <memcpy>
a080923c:	00000000 	nop
a0809240:	03c0e821 	move	sp,s8
a0809244:	8fbf001c 	lw	ra,28(sp)
a0809248:	8fbe0018 	lw	s8,24(sp)
a080924c:	27bd0020 	addiu	sp,sp,32
a0809250:	03e00008 	jr	ra
a0809254:	00000000 	nop

a0809258 <sync_to_disk_inode>:
a0809258:	27bdffe0 	addiu	sp,sp,-32
a080925c:	afbf001c 	sw	ra,28(sp)
a0809260:	afbe0018 	sw	s8,24(sp)
a0809264:	03a0f021 	move	s8,sp
a0809268:	afc40020 	sw	a0,32(s8)
a080926c:	3c02a084 	lui	v0,0xa084
a0809270:	2444c0f0 	addiu	a0,v0,-16144
a0809274:	24051000 	li	a1,4096
a0809278:	0c203ad3 	jal	a080eb4c <bzero>
a080927c:	00000000 	nop
a0809280:	8fc20020 	lw	v0,32(s8)
a0809284:	8c420054 	lw	v0,84(v0)
a0809288:	00021142 	srl	v0,v0,0x5
a080928c:	afc20010 	sw	v0,16(s8)
a0809290:	8fc40010 	lw	a0,16(s8)
a0809294:	0c2023f6 	jal	a0808fd8 <sync_from_disk_inode_table>
a0809298:	00000000 	nop
a080929c:	8fc40020 	lw	a0,32(s8)
a08092a0:	0c202461 	jal	a0809184 <write_to_buffer_inode>
a08092a4:	00000000 	nop
a08092a8:	8fc40010 	lw	a0,16(s8)
a08092ac:	0c202386 	jal	a0808e18 <sync_to_disk_inode_table>
a08092b0:	00000000 	nop
a08092b4:	03c0e821 	move	sp,s8
a08092b8:	8fbf001c 	lw	ra,28(sp)
a08092bc:	8fbe0018 	lw	s8,24(sp)
a08092c0:	27bd0020 	addiu	sp,sp,32
a08092c4:	03e00008 	jr	ra
a08092c8:	00000000 	nop

a08092cc <write_dentry>:
a08092cc:	27bdffd0 	addiu	sp,sp,-48
a08092d0:	afbf002c 	sw	ra,44(sp)
a08092d4:	afbe0028 	sw	s8,40(sp)
a08092d8:	03a0f021 	move	s8,sp
a08092dc:	afc40030 	sw	a0,48(s8)
a08092e0:	afc50034 	sw	a1,52(s8)
a08092e4:	afc60038 	sw	a2,56(s8)
a08092e8:	8fc20034 	lw	v0,52(s8)
a08092ec:	2c420002 	sltiu	v0,v0,2
a08092f0:	1040000d 	beqz	v0,a0809328 <write_dentry+0x5c>
a08092f4:	00000000 	nop
a08092f8:	24040001 	li	a0,1
a08092fc:	2405002d 	li	a1,45
a0809300:	0c2004dc 	jal	a0801370 <vt100_move_cursor>
a0809304:	00000000 	nop
a0809308:	3c02a081 	lui	v0,0xa081
a080930c:	24445cc0 	addiu	a0,v0,23744
a0809310:	0c203fd5 	jal	a080ff54 <printk>
a0809314:	00000000 	nop
a0809318:	2402fffc 	li	v0,-4
a080931c:	afc20020 	sw	v0,32(s8)
a0809320:	0820253a 	j	a08094e8 <write_dentry+0x21c>
a0809324:	00000000 	nop
a0809328:	8fc20030 	lw	v0,48(s8)
a080932c:	8c420008 	lw	v0,8(v0)
a0809330:	24430002 	addiu	v1,v0,2
a0809334:	8fc20034 	lw	v0,52(s8)
a0809338:	0062102b 	sltu	v0,v1,v0
a080933c:	1040000d 	beqz	v0,a0809374 <write_dentry+0xa8>
a0809340:	00000000 	nop
a0809344:	24040001 	li	a0,1
a0809348:	2405002d 	li	a1,45
a080934c:	0c2004dc 	jal	a0801370 <vt100_move_cursor>
a0809350:	00000000 	nop
a0809354:	3c02a081 	lui	v0,0xa081
a0809358:	24445ce4 	addiu	a0,v0,23780
a080935c:	0c203fd5 	jal	a080ff54 <printk>
a0809360:	00000000 	nop
a0809364:	2402fffb 	li	v0,-5
a0809368:	afc20020 	sw	v0,32(s8)
a080936c:	0820253a 	j	a08094e8 <write_dentry+0x21c>
a0809370:	00000000 	nop
a0809374:	8fc20034 	lw	v0,52(s8)
a0809378:	00021142 	srl	v0,v0,0x5
a080937c:	afc2001c 	sw	v0,28(s8)
a0809380:	8fc20034 	lw	v0,52(s8)
a0809384:	3042001f 	andi	v0,v0,0x1f
a0809388:	afc20018 	sw	v0,24(s8)
a080938c:	3c02a084 	lui	v0,0xa084
a0809390:	2444e0f0 	addiu	a0,v0,-7952
a0809394:	24051000 	li	a1,4096
a0809398:	0c203ad3 	jal	a080eb4c <bzero>
a080939c:	00000000 	nop
a08093a0:	3c02a084 	lui	v0,0xa084
a08093a4:	2442e0f0 	addiu	v0,v0,-7952
a08093a8:	afc20014 	sw	v0,20(s8)
a08093ac:	8fc40030 	lw	a0,48(s8)
a08093b0:	8fc5001c 	lw	a1,28(s8)
a08093b4:	0c2025be 	jal	a08096f8 <get_block_index_in_dir>
a08093b8:	00000000 	nop
a08093bc:	14400024 	bnez	v0,a0809450 <write_dentry+0x184>
a08093c0:	00000000 	nop
a08093c4:	0c2029d1 	jal	a080a744 <find_free_block>
a08093c8:	00000000 	nop
a08093cc:	afc20010 	sw	v0,16(s8)
a08093d0:	8fc40010 	lw	a0,16(s8)
a08093d4:	0c202294 	jal	a0808a50 <set_block_bmp>
a08093d8:	00000000 	nop
a08093dc:	0c202357 	jal	a0808d5c <sync_to_disk_block_bmp>
a08093e0:	00000000 	nop
a08093e4:	3c02a081 	lui	v0,0xa081
a08093e8:	8c4372d0 	lw	v1,29392(v0)
a08093ec:	8c620018 	lw	v0,24(v1)
a08093f0:	2442ffff 	addiu	v0,v0,-1
a08093f4:	ac620018 	sw	v0,24(v1)
a08093f8:	0c202377 	jal	a0808ddc <sync_to_disk_superblock>
a08093fc:	00000000 	nop
a0809400:	8fc40030 	lw	a0,48(s8)
a0809404:	8fc5001c 	lw	a1,28(s8)
a0809408:	8fc60010 	lw	a2,16(s8)
a080940c:	0c2026af 	jal	a0809abc <write_block_index_in_dir>
a0809410:	00000000 	nop
a0809414:	8fc20030 	lw	v0,48(s8)
a0809418:	8c420004 	lw	v0,4(v0)
a080941c:	24431000 	addiu	v1,v0,4096
a0809420:	8fc20030 	lw	v0,48(s8)
a0809424:	ac430004 	sw	v1,4(v0)
a0809428:	8fc20030 	lw	v0,48(s8)
a080942c:	8c420008 	lw	v0,8(v0)
a0809430:	24430001 	addiu	v1,v0,1
a0809434:	8fc20030 	lw	v0,48(s8)
a0809438:	ac430008 	sw	v1,8(v0)
a080943c:	8fc40030 	lw	a0,48(s8)
a0809440:	0c202496 	jal	a0809258 <sync_to_disk_inode>
a0809444:	00000000 	nop
a0809448:	08202525 	j	a0809494 <write_dentry+0x1c8>
a080944c:	00000000 	nop
a0809450:	8fc20030 	lw	v0,48(s8)
a0809454:	8c420008 	lw	v0,8(v0)
a0809458:	24430001 	addiu	v1,v0,1
a080945c:	8fc20030 	lw	v0,48(s8)
a0809460:	ac430008 	sw	v1,8(v0)
a0809464:	8fc40030 	lw	a0,48(s8)
a0809468:	0c202496 	jal	a0809258 <sync_to_disk_inode>
a080946c:	00000000 	nop
a0809470:	8fc40030 	lw	a0,48(s8)
a0809474:	8fc5001c 	lw	a1,28(s8)
a0809478:	0c2025be 	jal	a08096f8 <get_block_index_in_dir>
a080947c:	00000000 	nop
a0809480:	00402021 	move	a0,v0
a0809484:	3c02a084 	lui	v0,0xa084
a0809488:	2445e0f0 	addiu	a1,v0,-7952
a080948c:	0c202332 	jal	a0808cc8 <read_block>
a0809490:	00000000 	nop
a0809494:	8fc30014 	lw	v1,20(s8)
a0809498:	8fc20018 	lw	v0,24(s8)
a080949c:	000211c0 	sll	v0,v0,0x7
a08094a0:	00621021 	addu	v0,v1,v0
a08094a4:	8fc30038 	lw	v1,56(s8)
a08094a8:	00402021 	move	a0,v0
a08094ac:	00602821 	move	a1,v1
a08094b0:	24060080 	li	a2,128
a08094b4:	0c203a9a 	jal	a080ea68 <memcpy>
a08094b8:	00000000 	nop
a08094bc:	8fc40030 	lw	a0,48(s8)
a08094c0:	8fc5001c 	lw	a1,28(s8)
a08094c4:	0c2025be 	jal	a08096f8 <get_block_index_in_dir>
a08094c8:	00000000 	nop
a08094cc:	00402021 	move	a0,v0
a08094d0:	3c02a084 	lui	v0,0xa084
a08094d4:	2445e0f0 	addiu	a1,v0,-7952
a08094d8:	0c20231c 	jal	a0808c70 <write_block>
a08094dc:	00000000 	nop
a08094e0:	0820253c 	j	a08094f0 <write_dentry+0x224>
a08094e4:	00000000 	nop
a08094e8:	8fc20020 	lw	v0,32(s8)
a08094ec:	afc20024 	sw	v0,36(s8)
a08094f0:	8fc20024 	lw	v0,36(s8)
a08094f4:	03c0e821 	move	sp,s8
a08094f8:	8fbf002c 	lw	ra,44(sp)
a08094fc:	8fbe0028 	lw	s8,40(sp)
a0809500:	27bd0030 	addiu	sp,sp,48
a0809504:	03e00008 	jr	ra
a0809508:	00000000 	nop

a080950c <remove_dentry>:
a080950c:	27bdff60 	addiu	sp,sp,-160
a0809510:	afbf009c 	sw	ra,156(sp)
a0809514:	afbe0098 	sw	s8,152(sp)
a0809518:	03a0f021 	move	s8,sp
a080951c:	afc400a0 	sw	a0,160(s8)
a0809520:	afc500a4 	sw	a1,164(s8)
a0809524:	27c20010 	addiu	v0,s8,16
a0809528:	00402021 	move	a0,v0
a080952c:	24050080 	li	a1,128
a0809530:	0c203ad3 	jal	a080eb4c <bzero>
a0809534:	00000000 	nop
a0809538:	8fc400a0 	lw	a0,160(s8)
a080953c:	8fc500a4 	lw	a1,164(s8)
a0809540:	27c20010 	addiu	v0,s8,16
a0809544:	00403021 	move	a2,v0
a0809548:	0c2024b3 	jal	a08092cc <write_dentry>
a080954c:	00000000 	nop
a0809550:	8fc200a0 	lw	v0,160(s8)
a0809554:	8c420008 	lw	v0,8(v0)
a0809558:	2443ffff 	addiu	v1,v0,-1
a080955c:	8fc200a0 	lw	v0,160(s8)
a0809560:	ac430008 	sw	v1,8(v0)
a0809564:	8fc400a0 	lw	a0,160(s8)
a0809568:	0c202496 	jal	a0809258 <sync_to_disk_inode>
a080956c:	00000000 	nop
a0809570:	03c0e821 	move	sp,s8
a0809574:	8fbf009c 	lw	ra,156(sp)
a0809578:	8fbe0098 	lw	s8,152(sp)
a080957c:	27bd00a0 	addiu	sp,sp,160
a0809580:	03e00008 	jr	ra
a0809584:	00000000 	nop

a0809588 <read_dentry>:
a0809588:	27bdffd8 	addiu	sp,sp,-40
a080958c:	afbf0024 	sw	ra,36(sp)
a0809590:	afbe0020 	sw	s8,32(sp)
a0809594:	03a0f021 	move	s8,sp
a0809598:	afc40028 	sw	a0,40(s8)
a080959c:	afc5002c 	sw	a1,44(s8)
a08095a0:	afc60030 	sw	a2,48(s8)
a08095a4:	8fc2002c 	lw	v0,44(s8)
a08095a8:	00021142 	srl	v0,v0,0x5
a08095ac:	afc20018 	sw	v0,24(s8)
a08095b0:	8fc2002c 	lw	v0,44(s8)
a08095b4:	3042001f 	andi	v0,v0,0x1f
a08095b8:	afc20014 	sw	v0,20(s8)
a08095bc:	3c02a084 	lui	v0,0xa084
a08095c0:	2444f0f0 	addiu	a0,v0,-3856
a08095c4:	24051000 	li	a1,4096
a08095c8:	0c203ad3 	jal	a080eb4c <bzero>
a08095cc:	00000000 	nop
a08095d0:	3c02a084 	lui	v0,0xa084
a08095d4:	2442f0f0 	addiu	v0,v0,-3856
a08095d8:	afc20010 	sw	v0,16(s8)
a08095dc:	8fc40028 	lw	a0,40(s8)
a08095e0:	8fc50018 	lw	a1,24(s8)
a08095e4:	0c2025be 	jal	a08096f8 <get_block_index_in_dir>
a08095e8:	00000000 	nop
a08095ec:	00402021 	move	a0,v0
a08095f0:	3c02a084 	lui	v0,0xa084
a08095f4:	2445f0f0 	addiu	a1,v0,-3856
a08095f8:	0c202332 	jal	a0808cc8 <read_block>
a08095fc:	00000000 	nop
a0809600:	8fc40030 	lw	a0,48(s8)
a0809604:	8fc30010 	lw	v1,16(s8)
a0809608:	8fc20014 	lw	v0,20(s8)
a080960c:	000211c0 	sll	v0,v0,0x7
a0809610:	00621021 	addu	v0,v1,v0
a0809614:	00402821 	move	a1,v0
a0809618:	24060080 	li	a2,128
a080961c:	0c203a9a 	jal	a080ea68 <memcpy>
a0809620:	00000000 	nop
a0809624:	03c0e821 	move	sp,s8
a0809628:	8fbf0024 	lw	ra,36(sp)
a080962c:	8fbe0020 	lw	s8,32(sp)
a0809630:	27bd0028 	addiu	sp,sp,40
a0809634:	03e00008 	jr	ra
a0809638:	00000000 	nop

a080963c <separate_path>:
a080963c:	27bdffe0 	addiu	sp,sp,-32
a0809640:	afbf001c 	sw	ra,28(sp)
a0809644:	afbe0018 	sw	s8,24(sp)
a0809648:	03a0f021 	move	s8,sp
a080964c:	afc40020 	sw	a0,32(s8)
a0809650:	afc50024 	sw	a1,36(s8)
a0809654:	afc60028 	sw	a2,40(s8)
a0809658:	8fc20020 	lw	v0,32(s8)
a080965c:	8fc40024 	lw	a0,36(s8)
a0809660:	00402821 	move	a1,v0
a0809664:	0c203b1a 	jal	a080ec68 <strcpy>
a0809668:	00000000 	nop
a080966c:	8fc40024 	lw	a0,36(s8)
a0809670:	2405002f 	li	a1,47
a0809674:	0c203d5f 	jal	a080f57c <strrchr>
a0809678:	00000000 	nop
a080967c:	afc20010 	sw	v0,16(s8)
a0809680:	8fc20010 	lw	v0,16(s8)
a0809684:	24420001 	addiu	v0,v0,1
a0809688:	8fc40028 	lw	a0,40(s8)
a080968c:	00402821 	move	a1,v0
a0809690:	0c203b1a 	jal	a080ec68 <strcpy>
a0809694:	00000000 	nop
a0809698:	8fc20010 	lw	v0,16(s8)
a080969c:	24420001 	addiu	v0,v0,1
a08096a0:	00402021 	move	a0,v0
a08096a4:	0c203a84 	jal	a080ea10 <strlen>
a08096a8:	00000000 	nop
a08096ac:	00401821 	move	v1,v0
a08096b0:	8fc20028 	lw	v0,40(s8)
a08096b4:	00431021 	addu	v0,v0,v1
a08096b8:	a0400000 	sb	zero,0(v0)
a08096bc:	8fc30010 	lw	v1,16(s8)
a08096c0:	8fc20024 	lw	v0,36(s8)
a08096c4:	14620004 	bne	v1,v0,a08096d8 <separate_path+0x9c>
a08096c8:	00000000 	nop
a08096cc:	8fc20010 	lw	v0,16(s8)
a08096d0:	24420001 	addiu	v0,v0,1
a08096d4:	afc20010 	sw	v0,16(s8)
a08096d8:	8fc20010 	lw	v0,16(s8)
a08096dc:	a0400000 	sb	zero,0(v0)
a08096e0:	03c0e821 	move	sp,s8
a08096e4:	8fbf001c 	lw	ra,28(sp)
a08096e8:	8fbe0018 	lw	s8,24(sp)
a08096ec:	27bd0020 	addiu	sp,sp,32
a08096f0:	03e00008 	jr	ra
a08096f4:	00000000 	nop

a08096f8 <get_block_index_in_dir>:
a08096f8:	27bdffe0 	addiu	sp,sp,-32
a08096fc:	afbf001c 	sw	ra,28(sp)
a0809700:	afbe0018 	sw	s8,24(sp)
a0809704:	03a0f021 	move	s8,sp
a0809708:	afc40020 	sw	a0,32(s8)
a080970c:	afc50024 	sw	a1,36(s8)
a0809710:	3c02a084 	lui	v0,0xa084
a0809714:	244402f0 	addiu	a0,v0,752
a0809718:	24051000 	li	a1,4096
a080971c:	0c203ad3 	jal	a080eb4c <bzero>
a0809720:	00000000 	nop
a0809724:	3c02a084 	lui	v0,0xa084
a0809728:	244412f0 	addiu	a0,v0,4848
a080972c:	24051000 	li	a1,4096
a0809730:	0c203ad3 	jal	a080eb4c <bzero>
a0809734:	00000000 	nop
a0809738:	3c02a084 	lui	v0,0xa084
a080973c:	244422f0 	addiu	a0,v0,8944
a0809740:	24051000 	li	a1,4096
a0809744:	0c203ad3 	jal	a080eb4c <bzero>
a0809748:	00000000 	nop
a080974c:	8fc20024 	lw	v0,36(s8)
a0809750:	2c42000c 	sltiu	v0,v0,12
a0809754:	1040000a 	beqz	v0,a0809780 <get_block_index_in_dir+0x88>
a0809758:	00000000 	nop
a080975c:	8fc20024 	lw	v0,36(s8)
a0809760:	8fc30020 	lw	v1,32(s8)
a0809764:	24420006 	addiu	v0,v0,6
a0809768:	00021080 	sll	v0,v0,0x2
a080976c:	00621021 	addu	v0,v1,v0
a0809770:	8c420000 	lw	v0,0(v0)
a0809774:	afc20010 	sw	v0,16(s8)
a0809778:	082026a6 	j	a0809a98 <get_block_index_in_dir+0x3a0>
a080977c:	00000000 	nop
a0809780:	8fc20024 	lw	v0,36(s8)
a0809784:	2c42040c 	sltiu	v0,v0,1036
a0809788:	1040001b 	beqz	v0,a08097f8 <get_block_index_in_dir+0x100>
a080978c:	00000000 	nop
a0809790:	8fc20020 	lw	v0,32(s8)
a0809794:	8c420048 	lw	v0,72(v0)
a0809798:	14400005 	bnez	v0,a08097b0 <get_block_index_in_dir+0xb8>
a080979c:	00000000 	nop
a08097a0:	2402ffff 	li	v0,-1
a08097a4:	afc20010 	sw	v0,16(s8)
a08097a8:	082026a6 	j	a0809a98 <get_block_index_in_dir+0x3a0>
a08097ac:	00000000 	nop
a08097b0:	8fc20020 	lw	v0,32(s8)
a08097b4:	8c430048 	lw	v1,72(v0)
a08097b8:	3c02a084 	lui	v0,0xa084
a08097bc:	244202f0 	addiu	v0,v0,752
a08097c0:	00602021 	move	a0,v1
a08097c4:	00402821 	move	a1,v0
a08097c8:	0c202332 	jal	a0808cc8 <read_block>
a08097cc:	00000000 	nop
a08097d0:	8fc20024 	lw	v0,36(s8)
a08097d4:	2442fff4 	addiu	v0,v0,-12
a08097d8:	3c03a084 	lui	v1,0xa084
a08097dc:	00022080 	sll	a0,v0,0x2
a08097e0:	246202f0 	addiu	v0,v1,752
a08097e4:	00821021 	addu	v0,a0,v0
a08097e8:	8c420000 	lw	v0,0(v0)
a08097ec:	afc20010 	sw	v0,16(s8)
a08097f0:	082026a6 	j	a0809a98 <get_block_index_in_dir+0x3a0>
a08097f4:	00000000 	nop
a08097f8:	8fc30024 	lw	v1,36(s8)
a08097fc:	3c020010 	lui	v0,0x10
a0809800:	3442040c 	ori	v0,v0,0x40c
a0809804:	0062102b 	sltu	v0,v1,v0
a0809808:	10400038 	beqz	v0,a08098ec <get_block_index_in_dir+0x1f4>
a080980c:	00000000 	nop
a0809810:	8fc20020 	lw	v0,32(s8)
a0809814:	8c420048 	lw	v0,72(v0)
a0809818:	14400005 	bnez	v0,a0809830 <get_block_index_in_dir+0x138>
a080981c:	00000000 	nop
a0809820:	2402ffff 	li	v0,-1
a0809824:	afc20010 	sw	v0,16(s8)
a0809828:	082026a6 	j	a0809a98 <get_block_index_in_dir+0x3a0>
a080982c:	00000000 	nop
a0809830:	8fc20020 	lw	v0,32(s8)
a0809834:	8c430048 	lw	v1,72(v0)
a0809838:	3c02a084 	lui	v0,0xa084
a080983c:	244202f0 	addiu	v0,v0,752
a0809840:	00602021 	move	a0,v1
a0809844:	00402821 	move	a1,v0
a0809848:	0c202332 	jal	a0808cc8 <read_block>
a080984c:	00000000 	nop
a0809850:	8fc20024 	lw	v0,36(s8)
a0809854:	2442fbf4 	addiu	v0,v0,-1036
a0809858:	00021282 	srl	v0,v0,0xa
a080985c:	3c03a084 	lui	v1,0xa084
a0809860:	00022080 	sll	a0,v0,0x2
a0809864:	246202f0 	addiu	v0,v1,752
a0809868:	00821021 	addu	v0,a0,v0
a080986c:	8c420000 	lw	v0,0(v0)
a0809870:	14400005 	bnez	v0,a0809888 <get_block_index_in_dir+0x190>
a0809874:	00000000 	nop
a0809878:	2402ffff 	li	v0,-1
a080987c:	afc20010 	sw	v0,16(s8)
a0809880:	082026a6 	j	a0809a98 <get_block_index_in_dir+0x3a0>
a0809884:	00000000 	nop
a0809888:	8fc20024 	lw	v0,36(s8)
a080988c:	2442fbf4 	addiu	v0,v0,-1036
a0809890:	00021282 	srl	v0,v0,0xa
a0809894:	3c03a084 	lui	v1,0xa084
a0809898:	00022080 	sll	a0,v0,0x2
a080989c:	246202f0 	addiu	v0,v1,752
a08098a0:	00821021 	addu	v0,a0,v0
a08098a4:	8c430000 	lw	v1,0(v0)
a08098a8:	3c02a084 	lui	v0,0xa084
a08098ac:	244212f0 	addiu	v0,v0,4848
a08098b0:	00602021 	move	a0,v1
a08098b4:	00402821 	move	a1,v0
a08098b8:	0c202332 	jal	a0808cc8 <read_block>
a08098bc:	00000000 	nop
a08098c0:	8fc20024 	lw	v0,36(s8)
a08098c4:	2442fbf4 	addiu	v0,v0,-1036
a08098c8:	304203ff 	andi	v0,v0,0x3ff
a08098cc:	3c03a084 	lui	v1,0xa084
a08098d0:	00022080 	sll	a0,v0,0x2
a08098d4:	246212f0 	addiu	v0,v1,4848
a08098d8:	00821021 	addu	v0,a0,v0
a08098dc:	8c420000 	lw	v0,0(v0)
a08098e0:	afc20010 	sw	v0,16(s8)
a08098e4:	082026a6 	j	a0809a98 <get_block_index_in_dir+0x3a0>
a08098e8:	00000000 	nop
a08098ec:	8fc30024 	lw	v1,36(s8)
a08098f0:	3c024010 	lui	v0,0x4010
a08098f4:	3442040c 	ori	v0,v0,0x40c
a08098f8:	0062102b 	sltu	v0,v1,v0
a08098fc:	10400064 	beqz	v0,a0809a90 <get_block_index_in_dir+0x398>
a0809900:	00000000 	nop
a0809904:	8fc20020 	lw	v0,32(s8)
a0809908:	8c420048 	lw	v0,72(v0)
a080990c:	14400005 	bnez	v0,a0809924 <get_block_index_in_dir+0x22c>
a0809910:	00000000 	nop
a0809914:	2402ffff 	li	v0,-1
a0809918:	afc20010 	sw	v0,16(s8)
a080991c:	082026a6 	j	a0809a98 <get_block_index_in_dir+0x3a0>
a0809920:	00000000 	nop
a0809924:	8fc20020 	lw	v0,32(s8)
a0809928:	8c430048 	lw	v1,72(v0)
a080992c:	3c02a084 	lui	v0,0xa084
a0809930:	244202f0 	addiu	v0,v0,752
a0809934:	00602021 	move	a0,v1
a0809938:	00402821 	move	a1,v0
a080993c:	0c202332 	jal	a0808cc8 <read_block>
a0809940:	00000000 	nop
a0809944:	8fc30024 	lw	v1,36(s8)
a0809948:	3c02ffef 	lui	v0,0xffef
a080994c:	3442fbf4 	ori	v0,v0,0xfbf4
a0809950:	00621021 	addu	v0,v1,v0
a0809954:	00021502 	srl	v0,v0,0x14
a0809958:	3c03a084 	lui	v1,0xa084
a080995c:	00022080 	sll	a0,v0,0x2
a0809960:	246202f0 	addiu	v0,v1,752
a0809964:	00821021 	addu	v0,a0,v0
a0809968:	8c420000 	lw	v0,0(v0)
a080996c:	14400005 	bnez	v0,a0809984 <get_block_index_in_dir+0x28c>
a0809970:	00000000 	nop
a0809974:	2402ffff 	li	v0,-1
a0809978:	afc20010 	sw	v0,16(s8)
a080997c:	082026a6 	j	a0809a98 <get_block_index_in_dir+0x3a0>
a0809980:	00000000 	nop
a0809984:	8fc30024 	lw	v1,36(s8)
a0809988:	3c02ffef 	lui	v0,0xffef
a080998c:	3442fbf4 	ori	v0,v0,0xfbf4
a0809990:	00621021 	addu	v0,v1,v0
a0809994:	00021502 	srl	v0,v0,0x14
a0809998:	3c03a084 	lui	v1,0xa084
a080999c:	00022080 	sll	a0,v0,0x2
a08099a0:	246202f0 	addiu	v0,v1,752
a08099a4:	00821021 	addu	v0,a0,v0
a08099a8:	8c430000 	lw	v1,0(v0)
a08099ac:	3c02a084 	lui	v0,0xa084
a08099b0:	244212f0 	addiu	v0,v0,4848
a08099b4:	00602021 	move	a0,v1
a08099b8:	00402821 	move	a1,v0
a08099bc:	0c202332 	jal	a0808cc8 <read_block>
a08099c0:	00000000 	nop
a08099c4:	8fc30024 	lw	v1,36(s8)
a08099c8:	3c02ffef 	lui	v0,0xffef
a08099cc:	3442fbf4 	ori	v0,v0,0xfbf4
a08099d0:	00621821 	addu	v1,v1,v0
a08099d4:	3c02000f 	lui	v0,0xf
a08099d8:	3442ffff 	ori	v0,v0,0xffff
a08099dc:	00621024 	and	v0,v1,v0
a08099e0:	00021282 	srl	v0,v0,0xa
a08099e4:	3c03a084 	lui	v1,0xa084
a08099e8:	00022080 	sll	a0,v0,0x2
a08099ec:	246212f0 	addiu	v0,v1,4848
a08099f0:	00821021 	addu	v0,a0,v0
a08099f4:	8c420000 	lw	v0,0(v0)
a08099f8:	14400005 	bnez	v0,a0809a10 <get_block_index_in_dir+0x318>
a08099fc:	00000000 	nop
a0809a00:	2402ffff 	li	v0,-1
a0809a04:	afc20010 	sw	v0,16(s8)
a0809a08:	082026a6 	j	a0809a98 <get_block_index_in_dir+0x3a0>
a0809a0c:	00000000 	nop
a0809a10:	8fc30024 	lw	v1,36(s8)
a0809a14:	3c02ffef 	lui	v0,0xffef
a0809a18:	3442fbf4 	ori	v0,v0,0xfbf4
a0809a1c:	00621821 	addu	v1,v1,v0
a0809a20:	3c02000f 	lui	v0,0xf
a0809a24:	3442ffff 	ori	v0,v0,0xffff
a0809a28:	00621024 	and	v0,v1,v0
a0809a2c:	00021282 	srl	v0,v0,0xa
a0809a30:	3c03a084 	lui	v1,0xa084
a0809a34:	00022080 	sll	a0,v0,0x2
a0809a38:	246212f0 	addiu	v0,v1,4848
a0809a3c:	00821021 	addu	v0,a0,v0
a0809a40:	8c430000 	lw	v1,0(v0)
a0809a44:	3c02a084 	lui	v0,0xa084
a0809a48:	244222f0 	addiu	v0,v0,8944
a0809a4c:	00602021 	move	a0,v1
a0809a50:	00402821 	move	a1,v0
a0809a54:	0c202332 	jal	a0808cc8 <read_block>
a0809a58:	00000000 	nop
a0809a5c:	8fc30024 	lw	v1,36(s8)
a0809a60:	3c02ffef 	lui	v0,0xffef
a0809a64:	3442fbf4 	ori	v0,v0,0xfbf4
a0809a68:	00621021 	addu	v0,v1,v0
a0809a6c:	304203ff 	andi	v0,v0,0x3ff
a0809a70:	3c03a084 	lui	v1,0xa084
a0809a74:	00022080 	sll	a0,v0,0x2
a0809a78:	246222f0 	addiu	v0,v1,8944
a0809a7c:	00821021 	addu	v0,a0,v0
a0809a80:	8c420000 	lw	v0,0(v0)
a0809a84:	afc20010 	sw	v0,16(s8)
a0809a88:	082026a6 	j	a0809a98 <get_block_index_in_dir+0x3a0>
a0809a8c:	00000000 	nop
a0809a90:	082026a8 	j	a0809aa0 <get_block_index_in_dir+0x3a8>
a0809a94:	00000000 	nop
a0809a98:	8fc20010 	lw	v0,16(s8)
a0809a9c:	afc20014 	sw	v0,20(s8)
a0809aa0:	8fc20014 	lw	v0,20(s8)
a0809aa4:	03c0e821 	move	sp,s8
a0809aa8:	8fbf001c 	lw	ra,28(sp)
a0809aac:	8fbe0018 	lw	s8,24(sp)
a0809ab0:	27bd0020 	addiu	sp,sp,32
a0809ab4:	03e00008 	jr	ra
a0809ab8:	00000000 	nop

a0809abc <write_block_index_in_dir>:
a0809abc:	27bdffd8 	addiu	sp,sp,-40
a0809ac0:	afbf0024 	sw	ra,36(sp)
a0809ac4:	afbe0020 	sw	s8,32(sp)
a0809ac8:	03a0f021 	move	s8,sp
a0809acc:	afc40028 	sw	a0,40(s8)
a0809ad0:	afc5002c 	sw	a1,44(s8)
a0809ad4:	afc60030 	sw	a2,48(s8)
a0809ad8:	3c02a084 	lui	v0,0xa084
a0809adc:	244402f0 	addiu	a0,v0,752
a0809ae0:	24051000 	li	a1,4096
a0809ae4:	0c203ad3 	jal	a080eb4c <bzero>
a0809ae8:	00000000 	nop
a0809aec:	3c02a084 	lui	v0,0xa084
a0809af0:	244412f0 	addiu	a0,v0,4848
a0809af4:	24051000 	li	a1,4096
a0809af8:	0c203ad3 	jal	a080eb4c <bzero>
a0809afc:	00000000 	nop
a0809b00:	3c02a084 	lui	v0,0xa084
a0809b04:	244422f0 	addiu	a0,v0,8944
a0809b08:	24051000 	li	a1,4096
a0809b0c:	0c203ad3 	jal	a080eb4c <bzero>
a0809b10:	00000000 	nop
a0809b14:	8fc2002c 	lw	v0,44(s8)
a0809b18:	2c42000c 	sltiu	v0,v0,12
a0809b1c:	1040000d 	beqz	v0,a0809b54 <write_block_index_in_dir+0x98>
a0809b20:	00000000 	nop
a0809b24:	8fc2002c 	lw	v0,44(s8)
a0809b28:	8fc30028 	lw	v1,40(s8)
a0809b2c:	24420006 	addiu	v0,v0,6
a0809b30:	00021080 	sll	v0,v0,0x2
a0809b34:	00621821 	addu	v1,v1,v0
a0809b38:	8fc20030 	lw	v0,48(s8)
a0809b3c:	ac620000 	sw	v0,0(v1)
a0809b40:	8fc40028 	lw	a0,40(s8)
a0809b44:	0c202496 	jal	a0809258 <sync_to_disk_inode>
a0809b48:	00000000 	nop
a0809b4c:	0820288d 	j	a080a234 <write_block_index_in_dir+0x778>
a0809b50:	00000000 	nop
a0809b54:	8fc2002c 	lw	v0,44(s8)
a0809b58:	2c42040c 	sltiu	v0,v0,1036
a0809b5c:	1040003c 	beqz	v0,a0809c50 <write_block_index_in_dir+0x194>
a0809b60:	00000000 	nop
a0809b64:	8fc20028 	lw	v0,40(s8)
a0809b68:	8c420048 	lw	v0,72(v0)
a0809b6c:	1440001e 	bnez	v0,a0809be8 <write_block_index_in_dir+0x12c>
a0809b70:	00000000 	nop
a0809b74:	0c2029d1 	jal	a080a744 <find_free_block>
a0809b78:	00000000 	nop
a0809b7c:	afc20018 	sw	v0,24(s8)
a0809b80:	8fc40018 	lw	a0,24(s8)
a0809b84:	0c202294 	jal	a0808a50 <set_block_bmp>
a0809b88:	00000000 	nop
a0809b8c:	0c202357 	jal	a0808d5c <sync_to_disk_block_bmp>
a0809b90:	00000000 	nop
a0809b94:	3c02a081 	lui	v0,0xa081
a0809b98:	8c4372d0 	lw	v1,29392(v0)
a0809b9c:	8c620018 	lw	v0,24(v1)
a0809ba0:	2442ffff 	addiu	v0,v0,-1
a0809ba4:	ac620018 	sw	v0,24(v1)
a0809ba8:	0c202377 	jal	a0808ddc <sync_to_disk_superblock>
a0809bac:	00000000 	nop
a0809bb0:	8fc40018 	lw	a0,24(s8)
a0809bb4:	0c20244b 	jal	a080912c <clear_block_index>
a0809bb8:	00000000 	nop
a0809bbc:	8fc30028 	lw	v1,40(s8)
a0809bc0:	8fc20018 	lw	v0,24(s8)
a0809bc4:	ac620048 	sw	v0,72(v1)
a0809bc8:	8fc20028 	lw	v0,40(s8)
a0809bcc:	8c420004 	lw	v0,4(v0)
a0809bd0:	24431000 	addiu	v1,v0,4096
a0809bd4:	8fc20028 	lw	v0,40(s8)
a0809bd8:	ac430004 	sw	v1,4(v0)
a0809bdc:	8fc40028 	lw	a0,40(s8)
a0809be0:	0c202496 	jal	a0809258 <sync_to_disk_inode>
a0809be4:	00000000 	nop
a0809be8:	8fc20028 	lw	v0,40(s8)
a0809bec:	8c430048 	lw	v1,72(v0)
a0809bf0:	3c02a084 	lui	v0,0xa084
a0809bf4:	244202f0 	addiu	v0,v0,752
a0809bf8:	00602021 	move	a0,v1
a0809bfc:	00402821 	move	a1,v0
a0809c00:	0c202332 	jal	a0808cc8 <read_block>
a0809c04:	00000000 	nop
a0809c08:	8fc2002c 	lw	v0,44(s8)
a0809c0c:	2442fff4 	addiu	v0,v0,-12
a0809c10:	3c03a084 	lui	v1,0xa084
a0809c14:	00022080 	sll	a0,v0,0x2
a0809c18:	246202f0 	addiu	v0,v1,752
a0809c1c:	00821821 	addu	v1,a0,v0
a0809c20:	8fc20030 	lw	v0,48(s8)
a0809c24:	ac620000 	sw	v0,0(v1)
a0809c28:	8fc20028 	lw	v0,40(s8)
a0809c2c:	8c430048 	lw	v1,72(v0)
a0809c30:	3c02a084 	lui	v0,0xa084
a0809c34:	244202f0 	addiu	v0,v0,752
a0809c38:	00602021 	move	a0,v1
a0809c3c:	00402821 	move	a1,v0
a0809c40:	0c20231c 	jal	a0808c70 <write_block>
a0809c44:	00000000 	nop
a0809c48:	0820288d 	j	a080a234 <write_block_index_in_dir+0x778>
a0809c4c:	00000000 	nop
a0809c50:	8fc3002c 	lw	v1,44(s8)
a0809c54:	3c020010 	lui	v0,0x10
a0809c58:	3442040c 	ori	v0,v0,0x40c
a0809c5c:	0062102b 	sltu	v0,v1,v0
a0809c60:	10400084 	beqz	v0,a0809e74 <write_block_index_in_dir+0x3b8>
a0809c64:	00000000 	nop
a0809c68:	8fc20028 	lw	v0,40(s8)
a0809c6c:	8c42004c 	lw	v0,76(v0)
a0809c70:	1440001e 	bnez	v0,a0809cec <write_block_index_in_dir+0x230>
a0809c74:	00000000 	nop
a0809c78:	0c2029d1 	jal	a080a744 <find_free_block>
a0809c7c:	00000000 	nop
a0809c80:	afc20018 	sw	v0,24(s8)
a0809c84:	8fc40018 	lw	a0,24(s8)
a0809c88:	0c202294 	jal	a0808a50 <set_block_bmp>
a0809c8c:	00000000 	nop
a0809c90:	0c202357 	jal	a0808d5c <sync_to_disk_block_bmp>
a0809c94:	00000000 	nop
a0809c98:	3c02a081 	lui	v0,0xa081
a0809c9c:	8c4372d0 	lw	v1,29392(v0)
a0809ca0:	8c620018 	lw	v0,24(v1)
a0809ca4:	2442ffff 	addiu	v0,v0,-1
a0809ca8:	ac620018 	sw	v0,24(v1)
a0809cac:	0c202377 	jal	a0808ddc <sync_to_disk_superblock>
a0809cb0:	00000000 	nop
a0809cb4:	8fc40018 	lw	a0,24(s8)
a0809cb8:	0c20244b 	jal	a080912c <clear_block_index>
a0809cbc:	00000000 	nop
a0809cc0:	8fc30028 	lw	v1,40(s8)
a0809cc4:	8fc20018 	lw	v0,24(s8)
a0809cc8:	ac62004c 	sw	v0,76(v1)
a0809ccc:	8fc20028 	lw	v0,40(s8)
a0809cd0:	8c420004 	lw	v0,4(v0)
a0809cd4:	24431000 	addiu	v1,v0,4096
a0809cd8:	8fc20028 	lw	v0,40(s8)
a0809cdc:	ac430004 	sw	v1,4(v0)
a0809ce0:	8fc40028 	lw	a0,40(s8)
a0809ce4:	0c202496 	jal	a0809258 <sync_to_disk_inode>
a0809ce8:	00000000 	nop
a0809cec:	8fc20028 	lw	v0,40(s8)
a0809cf0:	8c43004c 	lw	v1,76(v0)
a0809cf4:	3c02a084 	lui	v0,0xa084
a0809cf8:	244202f0 	addiu	v0,v0,752
a0809cfc:	00602021 	move	a0,v1
a0809d00:	00402821 	move	a1,v0
a0809d04:	0c202332 	jal	a0808cc8 <read_block>
a0809d08:	00000000 	nop
a0809d0c:	8fc2002c 	lw	v0,44(s8)
a0809d10:	2442fbf4 	addiu	v0,v0,-1036
a0809d14:	00021282 	srl	v0,v0,0xa
a0809d18:	3c03a084 	lui	v1,0xa084
a0809d1c:	00022080 	sll	a0,v0,0x2
a0809d20:	246202f0 	addiu	v0,v1,752
a0809d24:	00821021 	addu	v0,a0,v0
a0809d28:	8c420000 	lw	v0,0(v0)
a0809d2c:	1440002c 	bnez	v0,a0809de0 <write_block_index_in_dir+0x324>
a0809d30:	00000000 	nop
a0809d34:	0c2029d1 	jal	a080a744 <find_free_block>
a0809d38:	00000000 	nop
a0809d3c:	afc20014 	sw	v0,20(s8)
a0809d40:	8fc40014 	lw	a0,20(s8)
a0809d44:	0c202294 	jal	a0808a50 <set_block_bmp>
a0809d48:	00000000 	nop
a0809d4c:	0c202357 	jal	a0808d5c <sync_to_disk_block_bmp>
a0809d50:	00000000 	nop
a0809d54:	3c02a081 	lui	v0,0xa081
a0809d58:	8c4372d0 	lw	v1,29392(v0)
a0809d5c:	8c620018 	lw	v0,24(v1)
a0809d60:	2442ffff 	addiu	v0,v0,-1
a0809d64:	ac620018 	sw	v0,24(v1)
a0809d68:	0c202377 	jal	a0808ddc <sync_to_disk_superblock>
a0809d6c:	00000000 	nop
a0809d70:	8fc40014 	lw	a0,20(s8)
a0809d74:	0c20244b 	jal	a080912c <clear_block_index>
a0809d78:	00000000 	nop
a0809d7c:	8fc20028 	lw	v0,40(s8)
a0809d80:	8c420004 	lw	v0,4(v0)
a0809d84:	24431000 	addiu	v1,v0,4096
a0809d88:	8fc20028 	lw	v0,40(s8)
a0809d8c:	ac430004 	sw	v1,4(v0)
a0809d90:	8fc40028 	lw	a0,40(s8)
a0809d94:	0c202496 	jal	a0809258 <sync_to_disk_inode>
a0809d98:	00000000 	nop
a0809d9c:	8fc2002c 	lw	v0,44(s8)
a0809da0:	2442fbf4 	addiu	v0,v0,-1036
a0809da4:	00021282 	srl	v0,v0,0xa
a0809da8:	3c03a084 	lui	v1,0xa084
a0809dac:	00022080 	sll	a0,v0,0x2
a0809db0:	246202f0 	addiu	v0,v1,752
a0809db4:	00821821 	addu	v1,a0,v0
a0809db8:	8fc20014 	lw	v0,20(s8)
a0809dbc:	ac620000 	sw	v0,0(v1)
a0809dc0:	8fc20028 	lw	v0,40(s8)
a0809dc4:	8c43004c 	lw	v1,76(v0)
a0809dc8:	3c02a084 	lui	v0,0xa084
a0809dcc:	244202f0 	addiu	v0,v0,752
a0809dd0:	00602021 	move	a0,v1
a0809dd4:	00402821 	move	a1,v0
a0809dd8:	0c20231c 	jal	a0808c70 <write_block>
a0809ddc:	00000000 	nop
a0809de0:	8fc2002c 	lw	v0,44(s8)
a0809de4:	2442fbf4 	addiu	v0,v0,-1036
a0809de8:	00021282 	srl	v0,v0,0xa
a0809dec:	3c03a084 	lui	v1,0xa084
a0809df0:	00022080 	sll	a0,v0,0x2
a0809df4:	246202f0 	addiu	v0,v1,752
a0809df8:	00821021 	addu	v0,a0,v0
a0809dfc:	8c430000 	lw	v1,0(v0)
a0809e00:	3c02a084 	lui	v0,0xa084
a0809e04:	244212f0 	addiu	v0,v0,4848
a0809e08:	00602021 	move	a0,v1
a0809e0c:	00402821 	move	a1,v0
a0809e10:	0c202332 	jal	a0808cc8 <read_block>
a0809e14:	00000000 	nop
a0809e18:	8fc2002c 	lw	v0,44(s8)
a0809e1c:	2442fbf4 	addiu	v0,v0,-1036
a0809e20:	304203ff 	andi	v0,v0,0x3ff
a0809e24:	3c03a084 	lui	v1,0xa084
a0809e28:	00022080 	sll	a0,v0,0x2
a0809e2c:	246212f0 	addiu	v0,v1,4848
a0809e30:	00821821 	addu	v1,a0,v0
a0809e34:	8fc20030 	lw	v0,48(s8)
a0809e38:	ac620000 	sw	v0,0(v1)
a0809e3c:	8fc2002c 	lw	v0,44(s8)
a0809e40:	2442fbf4 	addiu	v0,v0,-1036
a0809e44:	00021282 	srl	v0,v0,0xa
a0809e48:	3c03a084 	lui	v1,0xa084
a0809e4c:	00022080 	sll	a0,v0,0x2
a0809e50:	246202f0 	addiu	v0,v1,752
a0809e54:	00821021 	addu	v0,a0,v0
a0809e58:	8c430000 	lw	v1,0(v0)
a0809e5c:	3c02a084 	lui	v0,0xa084
a0809e60:	244212f0 	addiu	v0,v0,4848
a0809e64:	00602021 	move	a0,v1
a0809e68:	00402821 	move	a1,v0
a0809e6c:	0c20231c 	jal	a0808c70 <write_block>
a0809e70:	00000000 	nop
a0809e74:	8fc3002c 	lw	v1,44(s8)
a0809e78:	3c024010 	lui	v0,0x4010
a0809e7c:	3442040c 	ori	v0,v0,0x40c
a0809e80:	0062102b 	sltu	v0,v1,v0
a0809e84:	104000eb 	beqz	v0,a080a234 <write_block_index_in_dir+0x778>
a0809e88:	00000000 	nop
a0809e8c:	8fc20028 	lw	v0,40(s8)
a0809e90:	8c420050 	lw	v0,80(v0)
a0809e94:	1440001e 	bnez	v0,a0809f10 <write_block_index_in_dir+0x454>
a0809e98:	00000000 	nop
a0809e9c:	0c2029d1 	jal	a080a744 <find_free_block>
a0809ea0:	00000000 	nop
a0809ea4:	afc20018 	sw	v0,24(s8)
a0809ea8:	8fc40018 	lw	a0,24(s8)
a0809eac:	0c202294 	jal	a0808a50 <set_block_bmp>
a0809eb0:	00000000 	nop
a0809eb4:	0c202357 	jal	a0808d5c <sync_to_disk_block_bmp>
a0809eb8:	00000000 	nop
a0809ebc:	3c02a081 	lui	v0,0xa081
a0809ec0:	8c4372d0 	lw	v1,29392(v0)
a0809ec4:	8c620018 	lw	v0,24(v1)
a0809ec8:	2442ffff 	addiu	v0,v0,-1
a0809ecc:	ac620018 	sw	v0,24(v1)
a0809ed0:	0c202377 	jal	a0808ddc <sync_to_disk_superblock>
a0809ed4:	00000000 	nop
a0809ed8:	8fc40018 	lw	a0,24(s8)
a0809edc:	0c20244b 	jal	a080912c <clear_block_index>
a0809ee0:	00000000 	nop
a0809ee4:	8fc30028 	lw	v1,40(s8)
a0809ee8:	8fc20018 	lw	v0,24(s8)
a0809eec:	ac620050 	sw	v0,80(v1)
a0809ef0:	8fc20028 	lw	v0,40(s8)
a0809ef4:	8c420004 	lw	v0,4(v0)
a0809ef8:	24431000 	addiu	v1,v0,4096
a0809efc:	8fc20028 	lw	v0,40(s8)
a0809f00:	ac430004 	sw	v1,4(v0)
a0809f04:	8fc40028 	lw	a0,40(s8)
a0809f08:	0c202496 	jal	a0809258 <sync_to_disk_inode>
a0809f0c:	00000000 	nop
a0809f10:	8fc20028 	lw	v0,40(s8)
a0809f14:	8c430050 	lw	v1,80(v0)
a0809f18:	3c02a084 	lui	v0,0xa084
a0809f1c:	244202f0 	addiu	v0,v0,752
a0809f20:	00602021 	move	a0,v1
a0809f24:	00402821 	move	a1,v0
a0809f28:	0c202332 	jal	a0808cc8 <read_block>
a0809f2c:	00000000 	nop
a0809f30:	8fc3002c 	lw	v1,44(s8)
a0809f34:	3c02ffef 	lui	v0,0xffef
a0809f38:	3442fbf4 	ori	v0,v0,0xfbf4
a0809f3c:	00621021 	addu	v0,v1,v0
a0809f40:	00021502 	srl	v0,v0,0x14
a0809f44:	3c03a084 	lui	v1,0xa084
a0809f48:	00022080 	sll	a0,v0,0x2
a0809f4c:	246202f0 	addiu	v0,v1,752
a0809f50:	00821021 	addu	v0,a0,v0
a0809f54:	8c420000 	lw	v0,0(v0)
a0809f58:	1440002e 	bnez	v0,a080a014 <write_block_index_in_dir+0x558>
a0809f5c:	00000000 	nop
a0809f60:	0c2029d1 	jal	a080a744 <find_free_block>
a0809f64:	00000000 	nop
a0809f68:	afc20014 	sw	v0,20(s8)
a0809f6c:	8fc40014 	lw	a0,20(s8)
a0809f70:	0c202294 	jal	a0808a50 <set_block_bmp>
a0809f74:	00000000 	nop
a0809f78:	0c202357 	jal	a0808d5c <sync_to_disk_block_bmp>
a0809f7c:	00000000 	nop
a0809f80:	3c02a081 	lui	v0,0xa081
a0809f84:	8c4372d0 	lw	v1,29392(v0)
a0809f88:	8c620018 	lw	v0,24(v1)
a0809f8c:	2442ffff 	addiu	v0,v0,-1
a0809f90:	ac620018 	sw	v0,24(v1)
a0809f94:	0c202377 	jal	a0808ddc <sync_to_disk_superblock>
a0809f98:	00000000 	nop
a0809f9c:	8fc40014 	lw	a0,20(s8)
a0809fa0:	0c20244b 	jal	a080912c <clear_block_index>
a0809fa4:	00000000 	nop
a0809fa8:	8fc20028 	lw	v0,40(s8)
a0809fac:	8c420004 	lw	v0,4(v0)
a0809fb0:	24431000 	addiu	v1,v0,4096
a0809fb4:	8fc20028 	lw	v0,40(s8)
a0809fb8:	ac430004 	sw	v1,4(v0)
a0809fbc:	8fc40028 	lw	a0,40(s8)
a0809fc0:	0c202496 	jal	a0809258 <sync_to_disk_inode>
a0809fc4:	00000000 	nop
a0809fc8:	8fc3002c 	lw	v1,44(s8)
a0809fcc:	3c02ffef 	lui	v0,0xffef
a0809fd0:	3442fbf4 	ori	v0,v0,0xfbf4
a0809fd4:	00621021 	addu	v0,v1,v0
a0809fd8:	00021502 	srl	v0,v0,0x14
a0809fdc:	3c03a084 	lui	v1,0xa084
a0809fe0:	00022080 	sll	a0,v0,0x2
a0809fe4:	246202f0 	addiu	v0,v1,752
a0809fe8:	00821821 	addu	v1,a0,v0
a0809fec:	8fc20014 	lw	v0,20(s8)
a0809ff0:	ac620000 	sw	v0,0(v1)
a0809ff4:	8fc20028 	lw	v0,40(s8)
a0809ff8:	8c43004c 	lw	v1,76(v0)
a0809ffc:	3c02a084 	lui	v0,0xa084
a080a000:	244202f0 	addiu	v0,v0,752
a080a004:	00602021 	move	a0,v1
a080a008:	00402821 	move	a1,v0
a080a00c:	0c20231c 	jal	a0808c70 <write_block>
a080a010:	00000000 	nop
a080a014:	8fc3002c 	lw	v1,44(s8)
a080a018:	3c02ffef 	lui	v0,0xffef
a080a01c:	3442fbf4 	ori	v0,v0,0xfbf4
a080a020:	00621021 	addu	v0,v1,v0
a080a024:	00021502 	srl	v0,v0,0x14
a080a028:	3c03a084 	lui	v1,0xa084
a080a02c:	00022080 	sll	a0,v0,0x2
a080a030:	246202f0 	addiu	v0,v1,752
a080a034:	00821021 	addu	v0,a0,v0
a080a038:	8c430000 	lw	v1,0(v0)
a080a03c:	3c02a084 	lui	v0,0xa084
a080a040:	244212f0 	addiu	v0,v0,4848
a080a044:	00602021 	move	a0,v1
a080a048:	00402821 	move	a1,v0
a080a04c:	0c202332 	jal	a0808cc8 <read_block>
a080a050:	00000000 	nop
a080a054:	8fc3002c 	lw	v1,44(s8)
a080a058:	3c02ffef 	lui	v0,0xffef
a080a05c:	3442fbf4 	ori	v0,v0,0xfbf4
a080a060:	00621821 	addu	v1,v1,v0
a080a064:	3c02000f 	lui	v0,0xf
a080a068:	3442ffff 	ori	v0,v0,0xffff
a080a06c:	00621024 	and	v0,v1,v0
a080a070:	00021282 	srl	v0,v0,0xa
a080a074:	3c03a084 	lui	v1,0xa084
a080a078:	00022080 	sll	a0,v0,0x2
a080a07c:	246212f0 	addiu	v0,v1,4848
a080a080:	00821021 	addu	v0,a0,v0
a080a084:	8c420000 	lw	v0,0(v0)
a080a088:	14400039 	bnez	v0,a080a170 <write_block_index_in_dir+0x6b4>
a080a08c:	00000000 	nop
a080a090:	0c2029d1 	jal	a080a744 <find_free_block>
a080a094:	00000000 	nop
a080a098:	afc20010 	sw	v0,16(s8)
a080a09c:	8fc40010 	lw	a0,16(s8)
a080a0a0:	0c202294 	jal	a0808a50 <set_block_bmp>
a080a0a4:	00000000 	nop
a080a0a8:	0c202357 	jal	a0808d5c <sync_to_disk_block_bmp>
a080a0ac:	00000000 	nop
a080a0b0:	3c02a081 	lui	v0,0xa081
a080a0b4:	8c4372d0 	lw	v1,29392(v0)
a080a0b8:	8c620018 	lw	v0,24(v1)
a080a0bc:	2442ffff 	addiu	v0,v0,-1
a080a0c0:	ac620018 	sw	v0,24(v1)
a080a0c4:	0c202377 	jal	a0808ddc <sync_to_disk_superblock>
a080a0c8:	00000000 	nop
a080a0cc:	8fc40010 	lw	a0,16(s8)
a080a0d0:	0c20244b 	jal	a080912c <clear_block_index>
a080a0d4:	00000000 	nop
a080a0d8:	8fc20028 	lw	v0,40(s8)
a080a0dc:	8c420004 	lw	v0,4(v0)
a080a0e0:	24431000 	addiu	v1,v0,4096
a080a0e4:	8fc20028 	lw	v0,40(s8)
a080a0e8:	ac430004 	sw	v1,4(v0)
a080a0ec:	8fc40028 	lw	a0,40(s8)
a080a0f0:	0c202496 	jal	a0809258 <sync_to_disk_inode>
a080a0f4:	00000000 	nop
a080a0f8:	8fc3002c 	lw	v1,44(s8)
a080a0fc:	3c02ffef 	lui	v0,0xffef
a080a100:	3442fbf4 	ori	v0,v0,0xfbf4
a080a104:	00621821 	addu	v1,v1,v0
a080a108:	3c02000f 	lui	v0,0xf
a080a10c:	3442ffff 	ori	v0,v0,0xffff
a080a110:	00621024 	and	v0,v1,v0
a080a114:	00021282 	srl	v0,v0,0xa
a080a118:	3c03a084 	lui	v1,0xa084
a080a11c:	00022080 	sll	a0,v0,0x2
a080a120:	246212f0 	addiu	v0,v1,4848
a080a124:	00821821 	addu	v1,a0,v0
a080a128:	8fc20010 	lw	v0,16(s8)
a080a12c:	ac620000 	sw	v0,0(v1)
a080a130:	8fc3002c 	lw	v1,44(s8)
a080a134:	3c02ffef 	lui	v0,0xffef
a080a138:	3442fbf4 	ori	v0,v0,0xfbf4
a080a13c:	00621021 	addu	v0,v1,v0
a080a140:	00021502 	srl	v0,v0,0x14
a080a144:	3c03a084 	lui	v1,0xa084
a080a148:	00022080 	sll	a0,v0,0x2
a080a14c:	246202f0 	addiu	v0,v1,752
a080a150:	00821021 	addu	v0,a0,v0
a080a154:	8c430000 	lw	v1,0(v0)
a080a158:	3c02a084 	lui	v0,0xa084
a080a15c:	244212f0 	addiu	v0,v0,4848
a080a160:	00602021 	move	a0,v1
a080a164:	00402821 	move	a1,v0
a080a168:	0c20231c 	jal	a0808c70 <write_block>
a080a16c:	00000000 	nop
a080a170:	8fc3002c 	lw	v1,44(s8)
a080a174:	3c02ffef 	lui	v0,0xffef
a080a178:	3442fbf4 	ori	v0,v0,0xfbf4
a080a17c:	00621821 	addu	v1,v1,v0
a080a180:	3c02000f 	lui	v0,0xf
a080a184:	3442ffff 	ori	v0,v0,0xffff
a080a188:	00621024 	and	v0,v1,v0
a080a18c:	00021282 	srl	v0,v0,0xa
a080a190:	3c03a084 	lui	v1,0xa084
a080a194:	00022080 	sll	a0,v0,0x2
a080a198:	246212f0 	addiu	v0,v1,4848
a080a19c:	00821021 	addu	v0,a0,v0
a080a1a0:	8c430000 	lw	v1,0(v0)
a080a1a4:	3c02a084 	lui	v0,0xa084
a080a1a8:	244222f0 	addiu	v0,v0,8944
a080a1ac:	00602021 	move	a0,v1
a080a1b0:	00402821 	move	a1,v0
a080a1b4:	0c202332 	jal	a0808cc8 <read_block>
a080a1b8:	00000000 	nop
a080a1bc:	8fc3002c 	lw	v1,44(s8)
a080a1c0:	3c02ffef 	lui	v0,0xffef
a080a1c4:	3442fbf4 	ori	v0,v0,0xfbf4
a080a1c8:	00621021 	addu	v0,v1,v0
a080a1cc:	304203ff 	andi	v0,v0,0x3ff
a080a1d0:	3c03a084 	lui	v1,0xa084
a080a1d4:	00022080 	sll	a0,v0,0x2
a080a1d8:	246222f0 	addiu	v0,v1,8944
a080a1dc:	00821821 	addu	v1,a0,v0
a080a1e0:	8fc20030 	lw	v0,48(s8)
a080a1e4:	ac620000 	sw	v0,0(v1)
a080a1e8:	8fc3002c 	lw	v1,44(s8)
a080a1ec:	3c02ffef 	lui	v0,0xffef
a080a1f0:	3442fbf4 	ori	v0,v0,0xfbf4
a080a1f4:	00621821 	addu	v1,v1,v0
a080a1f8:	3c02000f 	lui	v0,0xf
a080a1fc:	3442ffff 	ori	v0,v0,0xffff
a080a200:	00621024 	and	v0,v1,v0
a080a204:	00021282 	srl	v0,v0,0xa
a080a208:	3c03a084 	lui	v1,0xa084
a080a20c:	00022080 	sll	a0,v0,0x2
a080a210:	246212f0 	addiu	v0,v1,4848
a080a214:	00821021 	addu	v0,a0,v0
a080a218:	8c430000 	lw	v1,0(v0)
a080a21c:	3c02a084 	lui	v0,0xa084
a080a220:	244222f0 	addiu	v0,v0,8944
a080a224:	00602021 	move	a0,v1
a080a228:	00402821 	move	a1,v0
a080a22c:	0c20231c 	jal	a0808c70 <write_block>
a080a230:	00000000 	nop
a080a234:	03c0e821 	move	sp,s8
a080a238:	8fbf0024 	lw	ra,36(sp)
a080a23c:	8fbe0020 	lw	s8,32(sp)
a080a240:	27bd0028 	addiu	sp,sp,40
a080a244:	03e00008 	jr	ra
a080a248:	00000000 	nop

a080a24c <find_file>:
a080a24c:	27bdffd0 	addiu	sp,sp,-48
a080a250:	afbf002c 	sw	ra,44(sp)
a080a254:	afbe0028 	sw	s8,40(sp)
a080a258:	03a0f021 	move	s8,sp
a080a25c:	afc40030 	sw	a0,48(s8)
a080a260:	afc50034 	sw	a1,52(s8)
a080a264:	3c02a084 	lui	v0,0xa084
a080a268:	2444f0f0 	addiu	a0,v0,-3856
a080a26c:	24051000 	li	a1,4096
a080a270:	0c203ad3 	jal	a080eb4c <bzero>
a080a274:	00000000 	nop
a080a278:	3c02a084 	lui	v0,0xa084
a080a27c:	2442f0f0 	addiu	v0,v0,-3856
a080a280:	afc2001c 	sw	v0,28(s8)
a080a284:	afc00018 	sw	zero,24(s8)
a080a288:	afc00014 	sw	zero,20(s8)
a080a28c:	082028cf 	j	a080a33c <find_file+0xf0>
a080a290:	00000000 	nop
a080a294:	8fc20018 	lw	v0,24(s8)
a080a298:	8fc40030 	lw	a0,48(s8)
a080a29c:	00402821 	move	a1,v0
a080a2a0:	0c2025be 	jal	a08096f8 <get_block_index_in_dir>
a080a2a4:	00000000 	nop
a080a2a8:	afc20010 	sw	v0,16(s8)
a080a2ac:	8fc40010 	lw	a0,16(s8)
a080a2b0:	3c02a084 	lui	v0,0xa084
a080a2b4:	2445f0f0 	addiu	a1,v0,-3856
a080a2b8:	0c202332 	jal	a0808cc8 <read_block>
a080a2bc:	00000000 	nop
a080a2c0:	082028c8 	j	a080a320 <find_file+0xd4>
a080a2c4:	00000000 	nop
a080a2c8:	8fc20014 	lw	v0,20(s8)
a080a2cc:	000219c0 	sll	v1,v0,0x7
a080a2d0:	8fc2001c 	lw	v0,28(s8)
a080a2d4:	00431021 	addu	v0,v0,v1
a080a2d8:	24420004 	addiu	v0,v0,4
a080a2dc:	8fc40034 	lw	a0,52(s8)
a080a2e0:	00402821 	move	a1,v0
a080a2e4:	0c203ae4 	jal	a080eb90 <strcmp>
a080a2e8:	00000000 	nop
a080a2ec:	14400009 	bnez	v0,a080a314 <find_file+0xc8>
a080a2f0:	00000000 	nop
a080a2f4:	8fc20014 	lw	v0,20(s8)
a080a2f8:	000219c0 	sll	v1,v0,0x7
a080a2fc:	8fc2001c 	lw	v0,28(s8)
a080a300:	00431021 	addu	v0,v0,v1
a080a304:	8c420000 	lw	v0,0(v0)
a080a308:	afc20020 	sw	v0,32(s8)
a080a30c:	082028d7 	j	a080a35c <find_file+0x110>
a080a310:	00000000 	nop
a080a314:	8fc20014 	lw	v0,20(s8)
a080a318:	24420001 	addiu	v0,v0,1
a080a31c:	afc20014 	sw	v0,20(s8)
a080a320:	8fc20014 	lw	v0,20(s8)
a080a324:	28420020 	slti	v0,v0,32
a080a328:	1440ffe7 	bnez	v0,a080a2c8 <find_file+0x7c>
a080a32c:	00000000 	nop
a080a330:	8fc20018 	lw	v0,24(s8)
a080a334:	24420001 	addiu	v0,v0,1
a080a338:	afc20018 	sw	v0,24(s8)
a080a33c:	8fc30018 	lw	v1,24(s8)
a080a340:	3c024010 	lui	v0,0x4010
a080a344:	3442040c 	ori	v0,v0,0x40c
a080a348:	0062102a 	slt	v0,v1,v0
a080a34c:	1440ffd1 	bnez	v0,a080a294 <find_file+0x48>
a080a350:	00000000 	nop
a080a354:	2402ffff 	li	v0,-1
a080a358:	afc20020 	sw	v0,32(s8)
a080a35c:	8fc20020 	lw	v0,32(s8)
a080a360:	03c0e821 	move	sp,s8
a080a364:	8fbf002c 	lw	ra,44(sp)
a080a368:	8fbe0028 	lw	s8,40(sp)
a080a36c:	27bd0030 	addiu	sp,sp,48
a080a370:	03e00008 	jr	ra
a080a374:	00000000 	nop

a080a378 <find_dentry>:
a080a378:	27bdffd0 	addiu	sp,sp,-48
a080a37c:	afbf002c 	sw	ra,44(sp)
a080a380:	afbe0028 	sw	s8,40(sp)
a080a384:	03a0f021 	move	s8,sp
a080a388:	afc40030 	sw	a0,48(s8)
a080a38c:	afc50034 	sw	a1,52(s8)
a080a390:	3c02a084 	lui	v0,0xa084
a080a394:	2444f0f0 	addiu	a0,v0,-3856
a080a398:	24051000 	li	a1,4096
a080a39c:	0c203ad3 	jal	a080eb4c <bzero>
a080a3a0:	00000000 	nop
a080a3a4:	3c02a084 	lui	v0,0xa084
a080a3a8:	2442f0f0 	addiu	v0,v0,-3856
a080a3ac:	afc2001c 	sw	v0,28(s8)
a080a3b0:	afc00018 	sw	zero,24(s8)
a080a3b4:	afc00014 	sw	zero,20(s8)
a080a3b8:	08202919 	j	a080a464 <find_dentry+0xec>
a080a3bc:	00000000 	nop
a080a3c0:	8fc20018 	lw	v0,24(s8)
a080a3c4:	8fc40030 	lw	a0,48(s8)
a080a3c8:	00402821 	move	a1,v0
a080a3cc:	0c2025be 	jal	a08096f8 <get_block_index_in_dir>
a080a3d0:	00000000 	nop
a080a3d4:	afc20010 	sw	v0,16(s8)
a080a3d8:	8fc40010 	lw	a0,16(s8)
a080a3dc:	3c02a084 	lui	v0,0xa084
a080a3e0:	2445f0f0 	addiu	a1,v0,-3856
a080a3e4:	0c202332 	jal	a0808cc8 <read_block>
a080a3e8:	00000000 	nop
a080a3ec:	08202912 	j	a080a448 <find_dentry+0xd0>
a080a3f0:	00000000 	nop
a080a3f4:	8fc40034 	lw	a0,52(s8)
a080a3f8:	8fc20014 	lw	v0,20(s8)
a080a3fc:	000219c0 	sll	v1,v0,0x7
a080a400:	8fc2001c 	lw	v0,28(s8)
a080a404:	00431021 	addu	v0,v0,v1
a080a408:	24420004 	addiu	v0,v0,4
a080a40c:	00402821 	move	a1,v0
a080a410:	0c203ae4 	jal	a080eb90 <strcmp>
a080a414:	00000000 	nop
a080a418:	14400008 	bnez	v0,a080a43c <find_dentry+0xc4>
a080a41c:	00000000 	nop
a080a420:	8fc20018 	lw	v0,24(s8)
a080a424:	00021940 	sll	v1,v0,0x5
a080a428:	8fc20014 	lw	v0,20(s8)
a080a42c:	00621021 	addu	v0,v1,v0
a080a430:	afc20020 	sw	v0,32(s8)
a080a434:	0820291f 	j	a080a47c <find_dentry+0x104>
a080a438:	00000000 	nop
a080a43c:	8fc20014 	lw	v0,20(s8)
a080a440:	24420001 	addiu	v0,v0,1
a080a444:	afc20014 	sw	v0,20(s8)
a080a448:	8fc20014 	lw	v0,20(s8)
a080a44c:	28420020 	slti	v0,v0,32
a080a450:	1440ffe8 	bnez	v0,a080a3f4 <find_dentry+0x7c>
a080a454:	00000000 	nop
a080a458:	8fc20018 	lw	v0,24(s8)
a080a45c:	24420001 	addiu	v0,v0,1
a080a460:	afc20018 	sw	v0,24(s8)
a080a464:	8fc20018 	lw	v0,24(s8)
a080a468:	2842000c 	slti	v0,v0,12
a080a46c:	1440ffd4 	bnez	v0,a080a3c0 <find_dentry+0x48>
a080a470:	00000000 	nop
a080a474:	2402ffff 	li	v0,-1
a080a478:	afc20020 	sw	v0,32(s8)
a080a47c:	8fc20020 	lw	v0,32(s8)
a080a480:	03c0e821 	move	sp,s8
a080a484:	8fbf002c 	lw	ra,44(sp)
a080a488:	8fbe0028 	lw	s8,40(sp)
a080a48c:	27bd0030 	addiu	sp,sp,48
a080a490:	03e00008 	jr	ra
a080a494:	00000000 	nop

a080a498 <parse_path>:
a080a498:	27bdff48 	addiu	sp,sp,-184
a080a49c:	afbf00b4 	sw	ra,180(sp)
a080a4a0:	afbe00b0 	sw	s8,176(sp)
a080a4a4:	afb000ac 	sw	s0,172(sp)
a080a4a8:	03a0f021 	move	s8,sp
a080a4ac:	afc400b8 	sw	a0,184(s8)
a080a4b0:	afc500bc 	sw	a1,188(s8)
a080a4b4:	3c02a084 	lui	v0,0xa084
a080a4b8:	244400f0 	addiu	a0,v0,240
a080a4bc:	24050200 	li	a1,512
a080a4c0:	0c203ad3 	jal	a080eb4c <bzero>
a080a4c4:	00000000 	nop
a080a4c8:	3c02a081 	lui	v0,0xa081
a080a4cc:	24425d10 	addiu	v0,v0,23824
a080a4d0:	afc20024 	sw	v0,36(s8)
a080a4d4:	3c02a081 	lui	v0,0xa081
a080a4d8:	24425d14 	addiu	v0,v0,23828
a080a4dc:	afc20020 	sw	v0,32(s8)
a080a4e0:	3c02a084 	lui	v0,0xa084
a080a4e4:	244200f0 	addiu	v0,v0,240
a080a4e8:	00402021 	move	a0,v0
a080a4ec:	8fc50024 	lw	a1,36(s8)
a080a4f0:	0c203b1a 	jal	a080ec68 <strcpy>
a080a4f4:	00000000 	nop
a080a4f8:	3c02a084 	lui	v0,0xa084
a080a4fc:	244200f2 	addiu	v0,v0,242
a080a500:	8fc300b8 	lw	v1,184(s8)
a080a504:	00402021 	move	a0,v0
a080a508:	00602821 	move	a1,v1
a080a50c:	0c203b1a 	jal	a080ec68 <strcpy>
a080a510:	00000000 	nop
a080a514:	3c02a084 	lui	v0,0xa084
a080a518:	245000f0 	addiu	s0,v0,240
a080a51c:	3c02a084 	lui	v0,0xa084
a080a520:	244200f0 	addiu	v0,v0,240
a080a524:	00402021 	move	a0,v0
a080a528:	0c203a84 	jal	a080ea10 <strlen>
a080a52c:	00000000 	nop
a080a530:	02021021 	addu	v0,s0,v0
a080a534:	00402021 	move	a0,v0
a080a538:	8fc50020 	lw	a1,32(s8)
a080a53c:	0c203b1a 	jal	a080ec68 <strcpy>
a080a540:	00000000 	nop
a080a544:	afc0001c 	sw	zero,28(s8)
a080a548:	3c02a084 	lui	v0,0xa084
a080a54c:	244200f0 	addiu	v0,v0,240
a080a550:	afc20018 	sw	v0,24(s8)
a080a554:	27c20028 	addiu	v0,s8,40
a080a558:	8fc300bc 	lw	v1,188(s8)
a080a55c:	00402021 	move	a0,v0
a080a560:	00602821 	move	a1,v1
a080a564:	24060080 	li	a2,128
a080a568:	0c203a9a 	jal	a080ea68 <memcpy>
a080a56c:	00000000 	nop
a080a570:	3c02a084 	lui	v0,0xa084
a080a574:	244200f0 	addiu	v0,v0,240
a080a578:	00402021 	move	a0,v0
a080a57c:	0c203a84 	jal	a080ea10 <strlen>
a080a580:	00000000 	nop
a080a584:	afc20010 	sw	v0,16(s8)
a080a588:	08202988 	j	a080a620 <parse_path+0x188>
a080a58c:	00000000 	nop
a080a590:	8fc3001c 	lw	v1,28(s8)
a080a594:	3c02a084 	lui	v0,0xa084
a080a598:	244200f0 	addiu	v0,v0,240
a080a59c:	00621021 	addu	v0,v1,v0
a080a5a0:	90430000 	lbu	v1,0(v0)
a080a5a4:	2402002f 	li	v0,47
a080a5a8:	14620017 	bne	v1,v0,a080a608 <parse_path+0x170>
a080a5ac:	00000000 	nop
a080a5b0:	8fc3001c 	lw	v1,28(s8)
a080a5b4:	3c02a084 	lui	v0,0xa084
a080a5b8:	244200f0 	addiu	v0,v0,240
a080a5bc:	00621021 	addu	v0,v1,v0
a080a5c0:	a0400000 	sb	zero,0(v0)
a080a5c4:	27c20028 	addiu	v0,s8,40
a080a5c8:	00402021 	move	a0,v0
a080a5cc:	8fc50018 	lw	a1,24(s8)
a080a5d0:	0c202893 	jal	a080a24c <find_file>
a080a5d4:	00000000 	nop
a080a5d8:	afc20014 	sw	v0,20(s8)
a080a5dc:	27c20028 	addiu	v0,s8,40
a080a5e0:	8fc40014 	lw	a0,20(s8)
a080a5e4:	00402821 	move	a1,v0
a080a5e8:	0c202479 	jal	a08091e4 <sync_from_disk_inode>
a080a5ec:	00000000 	nop
a080a5f0:	8fc2001c 	lw	v0,28(s8)
a080a5f4:	24430001 	addiu	v1,v0,1
a080a5f8:	3c02a084 	lui	v0,0xa084
a080a5fc:	244200f0 	addiu	v0,v0,240
a080a600:	00621021 	addu	v0,v1,v0
a080a604:	afc20018 	sw	v0,24(s8)
a080a608:	8fc2001c 	lw	v0,28(s8)
a080a60c:	24420001 	addiu	v0,v0,1
a080a610:	afc2001c 	sw	v0,28(s8)
a080a614:	8fc2001c 	lw	v0,28(s8)
a080a618:	24420001 	addiu	v0,v0,1
a080a61c:	afc2001c 	sw	v0,28(s8)
a080a620:	8fc2001c 	lw	v0,28(s8)
a080a624:	8fc30010 	lw	v1,16(s8)
a080a628:	0043102b 	sltu	v0,v0,v1
a080a62c:	1440ffd8 	bnez	v0,a080a590 <parse_path+0xf8>
a080a630:	00000000 	nop
a080a634:	8fc20014 	lw	v0,20(s8)
a080a638:	03c0e821 	move	sp,s8
a080a63c:	8fbf00b4 	lw	ra,180(sp)
a080a640:	8fbe00b0 	lw	s8,176(sp)
a080a644:	8fb000ac 	lw	s0,172(sp)
a080a648:	27bd00b8 	addiu	sp,sp,184
a080a64c:	03e00008 	jr	ra
a080a650:	00000000 	nop

a080a654 <find_free_inode>:
a080a654:	27bdffd8 	addiu	sp,sp,-40
a080a658:	afbf0024 	sw	ra,36(sp)
a080a65c:	afbe0020 	sw	s8,32(sp)
a080a660:	03a0f021 	move	s8,sp
a080a664:	afc00014 	sw	zero,20(s8)
a080a668:	afc00010 	sw	zero,16(s8)
a080a66c:	082029bc 	j	a080a6f0 <find_free_inode+0x9c>
a080a670:	00000000 	nop
a080a674:	8fc30014 	lw	v1,20(s8)
a080a678:	3c02a084 	lui	v0,0xa084
a080a67c:	2442b0f0 	addiu	v0,v0,-20240
a080a680:	00621021 	addu	v0,v1,v0
a080a684:	90430000 	lbu	v1,0(v0)
a080a688:	240200ff 	li	v0,255
a080a68c:	10620012 	beq	v1,v0,a080a6d8 <find_free_inode+0x84>
a080a690:	00000000 	nop
a080a694:	082029aa 	j	a080a6a8 <find_free_inode+0x54>
a080a698:	00000000 	nop
a080a69c:	8fc20010 	lw	v0,16(s8)
a080a6a0:	24420001 	addiu	v0,v0,1
a080a6a4:	afc20010 	sw	v0,16(s8)
a080a6a8:	8fc20010 	lw	v0,16(s8)
a080a6ac:	00402021 	move	a0,v0
a080a6b0:	0c2022e4 	jal	a0808b90 <check_inode_bmp>
a080a6b4:	00000000 	nop
a080a6b8:	00401821 	move	v1,v0
a080a6bc:	24020001 	li	v0,1
a080a6c0:	1062fff6 	beq	v1,v0,a080a69c <find_free_inode+0x48>
a080a6c4:	00000000 	nop
a080a6c8:	8fc20010 	lw	v0,16(s8)
a080a6cc:	afc20018 	sw	v0,24(s8)
a080a6d0:	082029ca 	j	a080a728 <find_free_inode+0xd4>
a080a6d4:	00000000 	nop
a080a6d8:	8fc20010 	lw	v0,16(s8)
a080a6dc:	24420008 	addiu	v0,v0,8
a080a6e0:	afc20010 	sw	v0,16(s8)
a080a6e4:	8fc20014 	lw	v0,20(s8)
a080a6e8:	24420001 	addiu	v0,v0,1
a080a6ec:	afc20014 	sw	v0,20(s8)
a080a6f0:	8fc20014 	lw	v0,20(s8)
a080a6f4:	28420400 	slti	v0,v0,1024
a080a6f8:	1440ffde 	bnez	v0,a080a674 <find_free_inode+0x20>
a080a6fc:	00000000 	nop
a080a700:	24040001 	li	a0,1
a080a704:	2405002d 	li	a1,45
a080a708:	0c2004dc 	jal	a0801370 <vt100_move_cursor>
a080a70c:	00000000 	nop
a080a710:	3c02a081 	lui	v0,0xa081
a080a714:	24445d18 	addiu	a0,v0,23832
a080a718:	0c203fd5 	jal	a080ff54 <printk>
a080a71c:	00000000 	nop
a080a720:	2402fffe 	li	v0,-2
a080a724:	afc20018 	sw	v0,24(s8)
a080a728:	8fc20018 	lw	v0,24(s8)
a080a72c:	03c0e821 	move	sp,s8
a080a730:	8fbf0024 	lw	ra,36(sp)
a080a734:	8fbe0020 	lw	s8,32(sp)
a080a738:	27bd0028 	addiu	sp,sp,40
a080a73c:	03e00008 	jr	ra
a080a740:	00000000 	nop

a080a744 <find_free_block>:
a080a744:	27bdffd8 	addiu	sp,sp,-40
a080a748:	afbf0024 	sw	ra,36(sp)
a080a74c:	afbe0020 	sw	s8,32(sp)
a080a750:	03a0f021 	move	s8,sp
a080a754:	afc00014 	sw	zero,20(s8)
a080a758:	afc00010 	sw	zero,16(s8)
a080a75c:	082029f8 	j	a080a7e0 <find_free_block+0x9c>
a080a760:	00000000 	nop
a080a764:	8fc30014 	lw	v1,20(s8)
a080a768:	3c02a083 	lui	v0,0xa083
a080a76c:	244230f0 	addiu	v0,v0,12528
a080a770:	00621021 	addu	v0,v1,v0
a080a774:	90430000 	lbu	v1,0(v0)
a080a778:	240200ff 	li	v0,255
a080a77c:	10620012 	beq	v1,v0,a080a7c8 <find_free_block+0x84>
a080a780:	00000000 	nop
a080a784:	082029e6 	j	a080a798 <find_free_block+0x54>
a080a788:	00000000 	nop
a080a78c:	8fc20010 	lw	v0,16(s8)
a080a790:	24420001 	addiu	v0,v0,1
a080a794:	afc20010 	sw	v0,16(s8)
a080a798:	8fc20010 	lw	v0,16(s8)
a080a79c:	00402021 	move	a0,v0
a080a7a0:	0c2022b4 	jal	a0808ad0 <check_block_bmp>
a080a7a4:	00000000 	nop
a080a7a8:	00401821 	move	v1,v0
a080a7ac:	24020001 	li	v0,1
a080a7b0:	1062fff6 	beq	v1,v0,a080a78c <find_free_block+0x48>
a080a7b4:	00000000 	nop
a080a7b8:	8fc20010 	lw	v0,16(s8)
a080a7bc:	afc20018 	sw	v0,24(s8)
a080a7c0:	08202a07 	j	a080a81c <find_free_block+0xd8>
a080a7c4:	00000000 	nop
a080a7c8:	8fc20010 	lw	v0,16(s8)
a080a7cc:	24420008 	addiu	v0,v0,8
a080a7d0:	afc20010 	sw	v0,16(s8)
a080a7d4:	8fc20014 	lw	v0,20(s8)
a080a7d8:	24420001 	addiu	v0,v0,1
a080a7dc:	afc20014 	sw	v0,20(s8)
a080a7e0:	8fc20014 	lw	v0,20(s8)
a080a7e4:	34038000 	li	v1,0x8000
a080a7e8:	0043102a 	slt	v0,v0,v1
a080a7ec:	1440ffdd 	bnez	v0,a080a764 <find_free_block+0x20>
a080a7f0:	00000000 	nop
a080a7f4:	24040001 	li	a0,1
a080a7f8:	2405002d 	li	a1,45
a080a7fc:	0c2004dc 	jal	a0801370 <vt100_move_cursor>
a080a800:	00000000 	nop
a080a804:	3c02a081 	lui	v0,0xa081
a080a808:	24445d38 	addiu	a0,v0,23864
a080a80c:	0c203fd5 	jal	a080ff54 <printk>
a080a810:	00000000 	nop
a080a814:	2402fffd 	li	v0,-3
a080a818:	afc20018 	sw	v0,24(s8)
a080a81c:	8fc20018 	lw	v0,24(s8)
a080a820:	03c0e821 	move	sp,s8
a080a824:	8fbf0024 	lw	ra,36(sp)
a080a828:	8fbe0020 	lw	s8,32(sp)
a080a82c:	27bd0028 	addiu	sp,sp,40
a080a830:	03e00008 	jr	ra
a080a834:	00000000 	nop

a080a838 <release_inode_block>:
a080a838:	27bdffd8 	addiu	sp,sp,-40
a080a83c:	afbf0024 	sw	ra,36(sp)
a080a840:	afbe0020 	sw	s8,32(sp)
a080a844:	03a0f021 	move	s8,sp
a080a848:	afc40028 	sw	a0,40(s8)
a080a84c:	3c02a084 	lui	v0,0xa084
a080a850:	244402f0 	addiu	a0,v0,752
a080a854:	24051000 	li	a1,4096
a080a858:	0c203ad3 	jal	a080eb4c <bzero>
a080a85c:	00000000 	nop
a080a860:	3c02a084 	lui	v0,0xa084
a080a864:	244412f0 	addiu	a0,v0,4848
a080a868:	24051000 	li	a1,4096
a080a86c:	0c203ad3 	jal	a080eb4c <bzero>
a080a870:	00000000 	nop
a080a874:	3c02a084 	lui	v0,0xa084
a080a878:	244422f0 	addiu	a0,v0,8944
a080a87c:	24051000 	li	a1,4096
a080a880:	0c203ad3 	jal	a080eb4c <bzero>
a080a884:	00000000 	nop
a080a888:	afc00018 	sw	zero,24(s8)
a080a88c:	08202a39 	j	a080a8e4 <release_inode_block+0xac>
a080a890:	00000000 	nop
a080a894:	8fc20018 	lw	v0,24(s8)
a080a898:	8fc30028 	lw	v1,40(s8)
a080a89c:	24420006 	addiu	v0,v0,6
a080a8a0:	00021080 	sll	v0,v0,0x2
a080a8a4:	00621021 	addu	v0,v1,v0
a080a8a8:	8c420000 	lw	v0,0(v0)
a080a8ac:	10400158 	beqz	v0,a080ae10 <release_inode_block+0x5d8>
a080a8b0:	00000000 	nop
a080a8b4:	8fc20018 	lw	v0,24(s8)
a080a8b8:	8fc30028 	lw	v1,40(s8)
a080a8bc:	24420006 	addiu	v0,v0,6
a080a8c0:	00021080 	sll	v0,v0,0x2
a080a8c4:	00621021 	addu	v0,v1,v0
a080a8c8:	8c420000 	lw	v0,0(v0)
a080a8cc:	00402021 	move	a0,v0
a080a8d0:	0c2022a4 	jal	a0808a90 <unset_block_bmp>
a080a8d4:	00000000 	nop
a080a8d8:	8fc20018 	lw	v0,24(s8)
a080a8dc:	24420001 	addiu	v0,v0,1
a080a8e0:	afc20018 	sw	v0,24(s8)
a080a8e4:	8fc20018 	lw	v0,24(s8)
a080a8e8:	2c42000c 	sltiu	v0,v0,12
a080a8ec:	1440ffe9 	bnez	v0,a080a894 <release_inode_block+0x5c>
a080a8f0:	00000000 	nop
a080a8f4:	8fc20028 	lw	v0,40(s8)
a080a8f8:	8c420048 	lw	v0,72(v0)
a080a8fc:	10400144 	beqz	v0,a080ae10 <release_inode_block+0x5d8>
a080a900:	00000000 	nop
a080a904:	8fc20028 	lw	v0,40(s8)
a080a908:	8c430048 	lw	v1,72(v0)
a080a90c:	3c02a084 	lui	v0,0xa084
a080a910:	244202f0 	addiu	v0,v0,752
a080a914:	00602021 	move	a0,v1
a080a918:	00402821 	move	a1,v0
a080a91c:	0c202332 	jal	a0808cc8 <read_block>
a080a920:	00000000 	nop
a080a924:	afc00018 	sw	zero,24(s8)
a080a928:	08202a67 	j	a080a99c <release_inode_block+0x164>
a080a92c:	00000000 	nop
a080a930:	8fc20018 	lw	v0,24(s8)
a080a934:	3c03a084 	lui	v1,0xa084
a080a938:	00022080 	sll	a0,v0,0x2
a080a93c:	246202f0 	addiu	v0,v1,752
a080a940:	00821021 	addu	v0,a0,v0
a080a944:	8c420000 	lw	v0,0(v0)
a080a948:	14400008 	bnez	v0,a080a96c <release_inode_block+0x134>
a080a94c:	00000000 	nop
a080a950:	8fc20028 	lw	v0,40(s8)
a080a954:	8c420048 	lw	v0,72(v0)
a080a958:	00402021 	move	a0,v0
a080a95c:	0c2022a4 	jal	a0808a90 <unset_block_bmp>
a080a960:	00000000 	nop
a080a964:	08202b84 	j	a080ae10 <release_inode_block+0x5d8>
a080a968:	00000000 	nop
a080a96c:	8fc20018 	lw	v0,24(s8)
a080a970:	3c03a084 	lui	v1,0xa084
a080a974:	00022080 	sll	a0,v0,0x2
a080a978:	246202f0 	addiu	v0,v1,752
a080a97c:	00821021 	addu	v0,a0,v0
a080a980:	8c420000 	lw	v0,0(v0)
a080a984:	00402021 	move	a0,v0
a080a988:	0c2022a4 	jal	a0808a90 <unset_block_bmp>
a080a98c:	00000000 	nop
a080a990:	8fc20018 	lw	v0,24(s8)
a080a994:	24420001 	addiu	v0,v0,1
a080a998:	afc20018 	sw	v0,24(s8)
a080a99c:	8fc20018 	lw	v0,24(s8)
a080a9a0:	2c420400 	sltiu	v0,v0,1024
a080a9a4:	1440ffe2 	bnez	v0,a080a930 <release_inode_block+0xf8>
a080a9a8:	00000000 	nop
a080a9ac:	8fc20028 	lw	v0,40(s8)
a080a9b0:	8c420048 	lw	v0,72(v0)
a080a9b4:	00402021 	move	a0,v0
a080a9b8:	0c2022a4 	jal	a0808a90 <unset_block_bmp>
a080a9bc:	00000000 	nop
a080a9c0:	8fc20028 	lw	v0,40(s8)
a080a9c4:	8c42004c 	lw	v0,76(v0)
a080a9c8:	10400111 	beqz	v0,a080ae10 <release_inode_block+0x5d8>
a080a9cc:	00000000 	nop
a080a9d0:	8fc20028 	lw	v0,40(s8)
a080a9d4:	8c43004c 	lw	v1,76(v0)
a080a9d8:	3c02a084 	lui	v0,0xa084
a080a9dc:	244202f0 	addiu	v0,v0,752
a080a9e0:	00602021 	move	a0,v1
a080a9e4:	00402821 	move	a1,v0
a080a9e8:	0c202332 	jal	a0808cc8 <read_block>
a080a9ec:	00000000 	nop
a080a9f0:	afc00018 	sw	zero,24(s8)
a080a9f4:	08202ad1 	j	a080ab44 <release_inode_block+0x30c>
a080a9f8:	00000000 	nop
a080a9fc:	8fc20018 	lw	v0,24(s8)
a080aa00:	3c03a084 	lui	v1,0xa084
a080aa04:	00022080 	sll	a0,v0,0x2
a080aa08:	246202f0 	addiu	v0,v1,752
a080aa0c:	00821021 	addu	v0,a0,v0
a080aa10:	8c420000 	lw	v0,0(v0)
a080aa14:	14400008 	bnez	v0,a080aa38 <release_inode_block+0x200>
a080aa18:	00000000 	nop
a080aa1c:	8fc20028 	lw	v0,40(s8)
a080aa20:	8c42004c 	lw	v0,76(v0)
a080aa24:	00402021 	move	a0,v0
a080aa28:	0c2022a4 	jal	a0808a90 <unset_block_bmp>
a080aa2c:	00000000 	nop
a080aa30:	08202b84 	j	a080ae10 <release_inode_block+0x5d8>
a080aa34:	00000000 	nop
a080aa38:	8fc20018 	lw	v0,24(s8)
a080aa3c:	3c03a084 	lui	v1,0xa084
a080aa40:	00022080 	sll	a0,v0,0x2
a080aa44:	246202f0 	addiu	v0,v1,752
a080aa48:	00821021 	addu	v0,a0,v0
a080aa4c:	8c430000 	lw	v1,0(v0)
a080aa50:	3c02a084 	lui	v0,0xa084
a080aa54:	244212f0 	addiu	v0,v0,4848
a080aa58:	00602021 	move	a0,v1
a080aa5c:	00402821 	move	a1,v0
a080aa60:	0c202332 	jal	a0808cc8 <read_block>
a080aa64:	00000000 	nop
a080aa68:	afc00014 	sw	zero,20(s8)
a080aa6c:	08202ac1 	j	a080ab04 <release_inode_block+0x2cc>
a080aa70:	00000000 	nop
a080aa74:	8fc20014 	lw	v0,20(s8)
a080aa78:	3c03a084 	lui	v1,0xa084
a080aa7c:	00022080 	sll	a0,v0,0x2
a080aa80:	246212f0 	addiu	v0,v1,4848
a080aa84:	00821021 	addu	v0,a0,v0
a080aa88:	8c420000 	lw	v0,0(v0)
a080aa8c:	14400011 	bnez	v0,a080aad4 <release_inode_block+0x29c>
a080aa90:	00000000 	nop
a080aa94:	8fc20018 	lw	v0,24(s8)
a080aa98:	3c03a084 	lui	v1,0xa084
a080aa9c:	00022080 	sll	a0,v0,0x2
a080aaa0:	246202f0 	addiu	v0,v1,752
a080aaa4:	00821021 	addu	v0,a0,v0
a080aaa8:	8c420000 	lw	v0,0(v0)
a080aaac:	00402021 	move	a0,v0
a080aab0:	0c2022a4 	jal	a0808a90 <unset_block_bmp>
a080aab4:	00000000 	nop
a080aab8:	8fc20028 	lw	v0,40(s8)
a080aabc:	8c42004c 	lw	v0,76(v0)
a080aac0:	00402021 	move	a0,v0
a080aac4:	0c2022a4 	jal	a0808a90 <unset_block_bmp>
a080aac8:	00000000 	nop
a080aacc:	08202b84 	j	a080ae10 <release_inode_block+0x5d8>
a080aad0:	00000000 	nop
a080aad4:	8fc20014 	lw	v0,20(s8)
a080aad8:	3c03a084 	lui	v1,0xa084
a080aadc:	00022080 	sll	a0,v0,0x2
a080aae0:	246212f0 	addiu	v0,v1,4848
a080aae4:	00821021 	addu	v0,a0,v0
a080aae8:	8c420000 	lw	v0,0(v0)
a080aaec:	00402021 	move	a0,v0
a080aaf0:	0c2022a4 	jal	a0808a90 <unset_block_bmp>
a080aaf4:	00000000 	nop
a080aaf8:	8fc20014 	lw	v0,20(s8)
a080aafc:	24420001 	addiu	v0,v0,1
a080ab00:	afc20014 	sw	v0,20(s8)
a080ab04:	8fc20014 	lw	v0,20(s8)
a080ab08:	2c420400 	sltiu	v0,v0,1024
a080ab0c:	1440ffd9 	bnez	v0,a080aa74 <release_inode_block+0x23c>
a080ab10:	00000000 	nop
a080ab14:	8fc20018 	lw	v0,24(s8)
a080ab18:	3c03a084 	lui	v1,0xa084
a080ab1c:	00022080 	sll	a0,v0,0x2
a080ab20:	246202f0 	addiu	v0,v1,752
a080ab24:	00821021 	addu	v0,a0,v0
a080ab28:	8c420000 	lw	v0,0(v0)
a080ab2c:	00402021 	move	a0,v0
a080ab30:	0c2022a4 	jal	a0808a90 <unset_block_bmp>
a080ab34:	00000000 	nop
a080ab38:	8fc20018 	lw	v0,24(s8)
a080ab3c:	24420001 	addiu	v0,v0,1
a080ab40:	afc20018 	sw	v0,24(s8)
a080ab44:	8fc20018 	lw	v0,24(s8)
a080ab48:	2c420400 	sltiu	v0,v0,1024
a080ab4c:	1440ffab 	bnez	v0,a080a9fc <release_inode_block+0x1c4>
a080ab50:	00000000 	nop
a080ab54:	8fc20028 	lw	v0,40(s8)
a080ab58:	8c42004c 	lw	v0,76(v0)
a080ab5c:	00402021 	move	a0,v0
a080ab60:	0c2022a4 	jal	a0808a90 <unset_block_bmp>
a080ab64:	00000000 	nop
a080ab68:	8fc20028 	lw	v0,40(s8)
a080ab6c:	8c420050 	lw	v0,80(v0)
a080ab70:	104000a7 	beqz	v0,a080ae10 <release_inode_block+0x5d8>
a080ab74:	00000000 	nop
a080ab78:	8fc20028 	lw	v0,40(s8)
a080ab7c:	8c430050 	lw	v1,80(v0)
a080ab80:	3c02a084 	lui	v0,0xa084
a080ab84:	244202f0 	addiu	v0,v0,752
a080ab88:	00602021 	move	a0,v1
a080ab8c:	00402821 	move	a1,v0
a080ab90:	0c202332 	jal	a0808cc8 <read_block>
a080ab94:	00000000 	nop
a080ab98:	afc00018 	sw	zero,24(s8)
a080ab9c:	08202b7b 	j	a080adec <release_inode_block+0x5b4>
a080aba0:	00000000 	nop
a080aba4:	8fc20018 	lw	v0,24(s8)
a080aba8:	3c03a084 	lui	v1,0xa084
a080abac:	00022080 	sll	a0,v0,0x2
a080abb0:	246202f0 	addiu	v0,v1,752
a080abb4:	00821021 	addu	v0,a0,v0
a080abb8:	8c420000 	lw	v0,0(v0)
a080abbc:	14400008 	bnez	v0,a080abe0 <release_inode_block+0x3a8>
a080abc0:	00000000 	nop
a080abc4:	8fc20028 	lw	v0,40(s8)
a080abc8:	8c420050 	lw	v0,80(v0)
a080abcc:	00402021 	move	a0,v0
a080abd0:	0c2022a4 	jal	a0808a90 <unset_block_bmp>
a080abd4:	00000000 	nop
a080abd8:	08202b84 	j	a080ae10 <release_inode_block+0x5d8>
a080abdc:	00000000 	nop
a080abe0:	8fc20018 	lw	v0,24(s8)
a080abe4:	3c03a084 	lui	v1,0xa084
a080abe8:	00022080 	sll	a0,v0,0x2
a080abec:	246202f0 	addiu	v0,v1,752
a080abf0:	00821021 	addu	v0,a0,v0
a080abf4:	8c430000 	lw	v1,0(v0)
a080abf8:	3c02a084 	lui	v0,0xa084
a080abfc:	244212f0 	addiu	v0,v0,4848
a080ac00:	00602021 	move	a0,v1
a080ac04:	00402821 	move	a1,v0
a080ac08:	0c202332 	jal	a0808cc8 <read_block>
a080ac0c:	00000000 	nop
a080ac10:	afc00014 	sw	zero,20(s8)
a080ac14:	08202b6b 	j	a080adac <release_inode_block+0x574>
a080ac18:	00000000 	nop
a080ac1c:	8fc20014 	lw	v0,20(s8)
a080ac20:	3c03a084 	lui	v1,0xa084
a080ac24:	00022080 	sll	a0,v0,0x2
a080ac28:	246212f0 	addiu	v0,v1,4848
a080ac2c:	00821021 	addu	v0,a0,v0
a080ac30:	8c420000 	lw	v0,0(v0)
a080ac34:	14400011 	bnez	v0,a080ac7c <release_inode_block+0x444>
a080ac38:	00000000 	nop
a080ac3c:	8fc20018 	lw	v0,24(s8)
a080ac40:	3c03a084 	lui	v1,0xa084
a080ac44:	00022080 	sll	a0,v0,0x2
a080ac48:	246202f0 	addiu	v0,v1,752
a080ac4c:	00821021 	addu	v0,a0,v0
a080ac50:	8c420000 	lw	v0,0(v0)
a080ac54:	00402021 	move	a0,v0
a080ac58:	0c2022a4 	jal	a0808a90 <unset_block_bmp>
a080ac5c:	00000000 	nop
a080ac60:	8fc20028 	lw	v0,40(s8)
a080ac64:	8c420050 	lw	v0,80(v0)
a080ac68:	00402021 	move	a0,v0
a080ac6c:	0c2022a4 	jal	a0808a90 <unset_block_bmp>
a080ac70:	00000000 	nop
a080ac74:	08202b84 	j	a080ae10 <release_inode_block+0x5d8>
a080ac78:	00000000 	nop
a080ac7c:	8fc20014 	lw	v0,20(s8)
a080ac80:	3c03a084 	lui	v1,0xa084
a080ac84:	00022080 	sll	a0,v0,0x2
a080ac88:	246212f0 	addiu	v0,v1,4848
a080ac8c:	00821021 	addu	v0,a0,v0
a080ac90:	8c430000 	lw	v1,0(v0)
a080ac94:	3c02a084 	lui	v0,0xa084
a080ac98:	244222f0 	addiu	v0,v0,8944
a080ac9c:	00602021 	move	a0,v1
a080aca0:	00402821 	move	a1,v0
a080aca4:	0c202332 	jal	a0808cc8 <read_block>
a080aca8:	00000000 	nop
a080acac:	afc00010 	sw	zero,16(s8)
a080acb0:	08202b5b 	j	a080ad6c <release_inode_block+0x534>
a080acb4:	00000000 	nop
a080acb8:	8fc20010 	lw	v0,16(s8)
a080acbc:	3c03a084 	lui	v1,0xa084
a080acc0:	00022080 	sll	a0,v0,0x2
a080acc4:	246222f0 	addiu	v0,v1,8944
a080acc8:	00821021 	addu	v0,a0,v0
a080accc:	8c420000 	lw	v0,0(v0)
a080acd0:	1440001a 	bnez	v0,a080ad3c <release_inode_block+0x504>
a080acd4:	00000000 	nop
a080acd8:	8fc20014 	lw	v0,20(s8)
a080acdc:	3c03a084 	lui	v1,0xa084
a080ace0:	00022080 	sll	a0,v0,0x2
a080ace4:	246212f0 	addiu	v0,v1,4848
a080ace8:	00821021 	addu	v0,a0,v0
a080acec:	8c420000 	lw	v0,0(v0)
a080acf0:	00402021 	move	a0,v0
a080acf4:	0c2022a4 	jal	a0808a90 <unset_block_bmp>
a080acf8:	00000000 	nop
a080acfc:	8fc20018 	lw	v0,24(s8)
a080ad00:	3c03a084 	lui	v1,0xa084
a080ad04:	00022080 	sll	a0,v0,0x2
a080ad08:	246202f0 	addiu	v0,v1,752
a080ad0c:	00821021 	addu	v0,a0,v0
a080ad10:	8c420000 	lw	v0,0(v0)
a080ad14:	00402021 	move	a0,v0
a080ad18:	0c2022a4 	jal	a0808a90 <unset_block_bmp>
a080ad1c:	00000000 	nop
a080ad20:	8fc20028 	lw	v0,40(s8)
a080ad24:	8c420050 	lw	v0,80(v0)
a080ad28:	00402021 	move	a0,v0
a080ad2c:	0c2022a4 	jal	a0808a90 <unset_block_bmp>
a080ad30:	00000000 	nop
a080ad34:	08202b84 	j	a080ae10 <release_inode_block+0x5d8>
a080ad38:	00000000 	nop
a080ad3c:	8fc20010 	lw	v0,16(s8)
a080ad40:	3c03a084 	lui	v1,0xa084
a080ad44:	00022080 	sll	a0,v0,0x2
a080ad48:	246222f0 	addiu	v0,v1,8944
a080ad4c:	00821021 	addu	v0,a0,v0
a080ad50:	8c420000 	lw	v0,0(v0)
a080ad54:	00402021 	move	a0,v0
a080ad58:	0c2022a4 	jal	a0808a90 <unset_block_bmp>
a080ad5c:	00000000 	nop
a080ad60:	8fc20010 	lw	v0,16(s8)
a080ad64:	24420001 	addiu	v0,v0,1
a080ad68:	afc20010 	sw	v0,16(s8)
a080ad6c:	8fc20010 	lw	v0,16(s8)
a080ad70:	2c420400 	sltiu	v0,v0,1024
a080ad74:	1440ffd0 	bnez	v0,a080acb8 <release_inode_block+0x480>
a080ad78:	00000000 	nop
a080ad7c:	8fc20014 	lw	v0,20(s8)
a080ad80:	3c03a084 	lui	v1,0xa084
a080ad84:	00022080 	sll	a0,v0,0x2
a080ad88:	246212f0 	addiu	v0,v1,4848
a080ad8c:	00821021 	addu	v0,a0,v0
a080ad90:	8c420000 	lw	v0,0(v0)
a080ad94:	00402021 	move	a0,v0
a080ad98:	0c2022a4 	jal	a0808a90 <unset_block_bmp>
a080ad9c:	00000000 	nop
a080ada0:	8fc20014 	lw	v0,20(s8)
a080ada4:	24420001 	addiu	v0,v0,1
a080ada8:	afc20014 	sw	v0,20(s8)
a080adac:	8fc20014 	lw	v0,20(s8)
a080adb0:	2c420400 	sltiu	v0,v0,1024
a080adb4:	1440ff99 	bnez	v0,a080ac1c <release_inode_block+0x3e4>
a080adb8:	00000000 	nop
a080adbc:	8fc20018 	lw	v0,24(s8)
a080adc0:	3c03a084 	lui	v1,0xa084
a080adc4:	00022080 	sll	a0,v0,0x2
a080adc8:	246202f0 	addiu	v0,v1,752
a080adcc:	00821021 	addu	v0,a0,v0
a080add0:	8c420000 	lw	v0,0(v0)
a080add4:	00402021 	move	a0,v0
a080add8:	0c2022a4 	jal	a0808a90 <unset_block_bmp>
a080addc:	00000000 	nop
a080ade0:	8fc20018 	lw	v0,24(s8)
a080ade4:	24420001 	addiu	v0,v0,1
a080ade8:	afc20018 	sw	v0,24(s8)
a080adec:	8fc20018 	lw	v0,24(s8)
a080adf0:	2c420400 	sltiu	v0,v0,1024
a080adf4:	1440ff6b 	bnez	v0,a080aba4 <release_inode_block+0x36c>
a080adf8:	00000000 	nop
a080adfc:	8fc20028 	lw	v0,40(s8)
a080ae00:	8c420050 	lw	v0,80(v0)
a080ae04:	00402021 	move	a0,v0
a080ae08:	0c2022a4 	jal	a0808a90 <unset_block_bmp>
a080ae0c:	00000000 	nop
a080ae10:	03c0e821 	move	sp,s8
a080ae14:	8fbf0024 	lw	ra,36(sp)
a080ae18:	8fbe0020 	lw	s8,32(sp)
a080ae1c:	27bd0028 	addiu	sp,sp,40
a080ae20:	03e00008 	jr	ra
a080ae24:	00000000 	nop

a080ae28 <is_empty_dnetry>:
a080ae28:	27bdfff0 	addiu	sp,sp,-16
a080ae2c:	afbe000c 	sw	s8,12(sp)
a080ae30:	03a0f021 	move	s8,sp
a080ae34:	afc40010 	sw	a0,16(s8)
a080ae38:	8fc20010 	lw	v0,16(s8)
a080ae3c:	8c420000 	lw	v0,0(v0)
a080ae40:	14400009 	bnez	v0,a080ae68 <is_empty_dnetry+0x40>
a080ae44:	00000000 	nop
a080ae48:	8fc20010 	lw	v0,16(s8)
a080ae4c:	80420004 	lb	v0,4(v0)
a080ae50:	14400005 	bnez	v0,a080ae68 <is_empty_dnetry+0x40>
a080ae54:	00000000 	nop
a080ae58:	24020001 	li	v0,1
a080ae5c:	afc20000 	sw	v0,0(s8)
a080ae60:	08202b9b 	j	a080ae6c <is_empty_dnetry+0x44>
a080ae64:	00000000 	nop
a080ae68:	afc00000 	sw	zero,0(s8)
a080ae6c:	8fc20000 	lw	v0,0(s8)
a080ae70:	03c0e821 	move	sp,s8
a080ae74:	8fbe000c 	lw	s8,12(sp)
a080ae78:	27bd0010 	addiu	sp,sp,16
a080ae7c:	03e00008 	jr	ra
a080ae80:	00000000 	nop

a080ae84 <init_fs>:
a080ae84:	27bdffe8 	addiu	sp,sp,-24
a080ae88:	afbf0014 	sw	ra,20(sp)
a080ae8c:	afbe0010 	sw	s8,16(sp)
a080ae90:	03a0f021 	move	s8,sp
a080ae94:	0c2023e7 	jal	a0808f9c <sync_from_disk_superblock>
a080ae98:	00000000 	nop
a080ae9c:	3c02a081 	lui	v0,0xa081
a080aea0:	8c4272d0 	lw	v0,29392(v0)
a080aea4:	8c430008 	lw	v1,8(v0)
a080aea8:	3c022e57 	lui	v0,0x2e57
a080aeac:	34425159 	ori	v0,v0,0x5159
a080aeb0:	146200a5 	bne	v1,v0,a080b148 <init_fs+0x2c4>
a080aeb4:	00000000 	nop
a080aeb8:	0c2023c7 	jal	a0808f1c <sync_from_disk_block_bmp>
a080aebc:	00000000 	nop
a080aec0:	0c2023b8 	jal	a0808ee0 <sync_from_disk_inode_bmp>
a080aec4:	00000000 	nop
a080aec8:	3c02a081 	lui	v0,0xa081
a080aecc:	8c4272d4 	lw	v0,29396(v0)
a080aed0:	00002021 	move	a0,zero
a080aed4:	00402821 	move	a1,v0
a080aed8:	0c202479 	jal	a08091e4 <sync_from_disk_inode>
a080aedc:	00000000 	nop
a080aee0:	3c02a086 	lui	v0,0xa086
a080aee4:	244310cc 	addiu	v1,v0,4300
a080aee8:	3c02a086 	lui	v0,0xa086
a080aeec:	2442674c 	addiu	v0,v0,26444
a080aef0:	00602021 	move	a0,v1
a080aef4:	00402821 	move	a1,v0
a080aef8:	24060080 	li	a2,128
a080aefc:	0c203a9a 	jal	a080ea68 <memcpy>
a080af00:	00000000 	nop
a080af04:	24040001 	li	a0,1
a080af08:	24050001 	li	a1,1
a080af0c:	0c2004dc 	jal	a0801370 <vt100_move_cursor>
a080af10:	00000000 	nop
a080af14:	3c02a081 	lui	v0,0xa081
a080af18:	24445d58 	addiu	a0,v0,23896
a080af1c:	0c203fd5 	jal	a080ff54 <printk>
a080af20:	00000000 	nop
a080af24:	3c02a081 	lui	v0,0xa081
a080af28:	24445d84 	addiu	a0,v0,23940
a080af2c:	0c203fd5 	jal	a080ff54 <printk>
a080af30:	00000000 	nop
a080af34:	3c02a081 	lui	v0,0xa081
a080af38:	8c4272d0 	lw	v0,29392(v0)
a080af3c:	8c430008 	lw	v1,8(v0)
a080af40:	3c02a081 	lui	v0,0xa081
a080af44:	24445db0 	addiu	a0,v0,23984
a080af48:	00602821 	move	a1,v1
a080af4c:	0c203fd5 	jal	a080ff54 <printk>
a080af50:	00000000 	nop
a080af54:	3c02a081 	lui	v0,0xa081
a080af58:	8c4272d0 	lw	v0,29392(v0)
a080af5c:	8c430000 	lw	v1,0(v0)
a080af60:	3c02a081 	lui	v0,0xa081
a080af64:	24445ddc 	addiu	a0,v0,24028
a080af68:	00602821 	move	a1,v1
a080af6c:	0c203fd5 	jal	a080ff54 <printk>
a080af70:	00000000 	nop
a080af74:	3c02a081 	lui	v0,0xa081
a080af78:	8c4272d0 	lw	v0,29392(v0)
a080af7c:	8c430004 	lw	v1,4(v0)
a080af80:	3c02a081 	lui	v0,0xa081
a080af84:	24445e08 	addiu	a0,v0,24072
a080af88:	00602821 	move	a1,v1
a080af8c:	0c203fd5 	jal	a080ff54 <printk>
a080af90:	00000000 	nop
a080af94:	3c02a081 	lui	v0,0xa081
a080af98:	8c4272d0 	lw	v0,29392(v0)
a080af9c:	8c430010 	lw	v1,16(v0)
a080afa0:	3c02a081 	lui	v0,0xa081
a080afa4:	24445e34 	addiu	a0,v0,24116
a080afa8:	00602821 	move	a1,v1
a080afac:	0c203fd5 	jal	a080ff54 <printk>
a080afb0:	00000000 	nop
a080afb4:	3c02a081 	lui	v0,0xa081
a080afb8:	8c4272d0 	lw	v0,29392(v0)
a080afbc:	8c430018 	lw	v1,24(v0)
a080afc0:	3c02a081 	lui	v0,0xa081
a080afc4:	24445e60 	addiu	a0,v0,24160
a080afc8:	00602821 	move	a1,v1
a080afcc:	0c203fd5 	jal	a080ff54 <printk>
a080afd0:	00000000 	nop
a080afd4:	3c02a081 	lui	v0,0xa081
a080afd8:	8c4272d0 	lw	v0,29392(v0)
a080afdc:	8c43000c 	lw	v1,12(v0)
a080afe0:	3c02a081 	lui	v0,0xa081
a080afe4:	24445e8c 	addiu	a0,v0,24204
a080afe8:	00602821 	move	a1,v1
a080afec:	0c203fd5 	jal	a080ff54 <printk>
a080aff0:	00000000 	nop
a080aff4:	3c02a081 	lui	v0,0xa081
a080aff8:	8c4272d0 	lw	v0,29392(v0)
a080affc:	8c430014 	lw	v1,20(v0)
a080b000:	3c02a081 	lui	v0,0xa081
a080b004:	24445eb8 	addiu	a0,v0,24248
a080b008:	00602821 	move	a1,v1
a080b00c:	0c203fd5 	jal	a080ff54 <printk>
a080b010:	00000000 	nop
a080b014:	3c02a081 	lui	v0,0xa081
a080b018:	8c4272d0 	lw	v0,29392(v0)
a080b01c:	8c43001c 	lw	v1,28(v0)
a080b020:	3c02a081 	lui	v0,0xa081
a080b024:	24445ee4 	addiu	a0,v0,24292
a080b028:	00602821 	move	a1,v1
a080b02c:	0c203fd5 	jal	a080ff54 <printk>
a080b030:	00000000 	nop
a080b034:	3c02a081 	lui	v0,0xa081
a080b038:	8c4272d0 	lw	v0,29392(v0)
a080b03c:	8c42001c 	lw	v0,28(v0)
a080b040:	00021b00 	sll	v1,v0,0xc
a080b044:	3c02a081 	lui	v0,0xa081
a080b048:	24445f10 	addiu	a0,v0,24336
a080b04c:	00602821 	move	a1,v1
a080b050:	0c203fd5 	jal	a080ff54 <printk>
a080b054:	00000000 	nop
a080b058:	3c02a081 	lui	v0,0xa081
a080b05c:	8c4272d0 	lw	v0,29392(v0)
a080b060:	8c430020 	lw	v1,32(v0)
a080b064:	3c02a081 	lui	v0,0xa081
a080b068:	24445f3c 	addiu	a0,v0,24380
a080b06c:	00602821 	move	a1,v1
a080b070:	0c203fd5 	jal	a080ff54 <printk>
a080b074:	00000000 	nop
a080b078:	3c02a081 	lui	v0,0xa081
a080b07c:	8c4272d0 	lw	v0,29392(v0)
a080b080:	8c420020 	lw	v0,32(v0)
a080b084:	00021b00 	sll	v1,v0,0xc
a080b088:	3c02a081 	lui	v0,0xa081
a080b08c:	24445f10 	addiu	a0,v0,24336
a080b090:	00602821 	move	a1,v1
a080b094:	0c203fd5 	jal	a080ff54 <printk>
a080b098:	00000000 	nop
a080b09c:	3c02a081 	lui	v0,0xa081
a080b0a0:	8c4272d0 	lw	v0,29392(v0)
a080b0a4:	8c430024 	lw	v1,36(v0)
a080b0a8:	3c02a081 	lui	v0,0xa081
a080b0ac:	24445f68 	addiu	a0,v0,24424
a080b0b0:	00602821 	move	a1,v1
a080b0b4:	0c203fd5 	jal	a080ff54 <printk>
a080b0b8:	00000000 	nop
a080b0bc:	3c02a081 	lui	v0,0xa081
a080b0c0:	8c4272d0 	lw	v0,29392(v0)
a080b0c4:	8c420024 	lw	v0,36(v0)
a080b0c8:	00021b00 	sll	v1,v0,0xc
a080b0cc:	3c02a081 	lui	v0,0xa081
a080b0d0:	24445f94 	addiu	a0,v0,24468
a080b0d4:	00602821 	move	a1,v1
a080b0d8:	0c203fd5 	jal	a080ff54 <printk>
a080b0dc:	00000000 	nop
a080b0e0:	3c02a081 	lui	v0,0xa081
a080b0e4:	8c4272d0 	lw	v0,29392(v0)
a080b0e8:	8c430028 	lw	v1,40(v0)
a080b0ec:	3c02a081 	lui	v0,0xa081
a080b0f0:	24445fc0 	addiu	a0,v0,24512
a080b0f4:	00602821 	move	a1,v1
a080b0f8:	0c203fd5 	jal	a080ff54 <printk>
a080b0fc:	00000000 	nop
a080b100:	3c02a081 	lui	v0,0xa081
a080b104:	8c4272d0 	lw	v0,29392(v0)
a080b108:	8c430030 	lw	v1,48(v0)
a080b10c:	3c02a081 	lui	v0,0xa081
a080b110:	24445fec 	addiu	a0,v0,24556
a080b114:	00602821 	move	a1,v1
a080b118:	0c203fd5 	jal	a080ff54 <printk>
a080b11c:	00000000 	nop
a080b120:	3c02a081 	lui	v0,0xa081
a080b124:	8c4272d0 	lw	v0,29392(v0)
a080b128:	8c430034 	lw	v1,52(v0)
a080b12c:	3c02a081 	lui	v0,0xa081
a080b130:	24446018 	addiu	a0,v0,24600
a080b134:	00602821 	move	a1,v1
a080b138:	0c203fd5 	jal	a080ff54 <printk>
a080b13c:	00000000 	nop
a080b140:	08202c54 	j	a080b150 <init_fs+0x2cc>
a080b144:	00000000 	nop
a080b148:	0c202c5a 	jal	a080b168 <do_mkfs>
a080b14c:	00000000 	nop
a080b150:	03c0e821 	move	sp,s8
a080b154:	8fbf0014 	lw	ra,20(sp)
a080b158:	8fbe0010 	lw	s8,16(sp)
a080b15c:	27bd0018 	addiu	sp,sp,24
a080b160:	03e00008 	jr	ra
a080b164:	00000000 	nop

a080b168 <do_mkfs>:
a080b168:	27bdffd0 	addiu	sp,sp,-48
a080b16c:	afbf002c 	sw	ra,44(sp)
a080b170:	afbe0028 	sw	s8,40(sp)
a080b174:	afb00024 	sw	s0,36(sp)
a080b178:	03a0f021 	move	s8,sp
a080b17c:	3c02a084 	lui	v0,0xa084
a080b180:	2444d0f0 	addiu	a0,v0,-12048
a080b184:	24051000 	li	a1,4096
a080b188:	0c203ad3 	jal	a080eb4c <bzero>
a080b18c:	00000000 	nop
a080b190:	3c02a083 	lui	v0,0xa083
a080b194:	244420f0 	addiu	a0,v0,8432
a080b198:	24051000 	li	a1,4096
a080b19c:	0c203ad3 	jal	a080eb4c <bzero>
a080b1a0:	00000000 	nop
a080b1a4:	3c02a083 	lui	v0,0xa083
a080b1a8:	244430f0 	addiu	a0,v0,12528
a080b1ac:	34058000 	li	a1,0x8000
a080b1b0:	0c203ad3 	jal	a080eb4c <bzero>
a080b1b4:	00000000 	nop
a080b1b8:	3c02a084 	lui	v0,0xa084
a080b1bc:	2444b0f0 	addiu	a0,v0,-20240
a080b1c0:	24051000 	li	a1,4096
a080b1c4:	0c203ad3 	jal	a080eb4c <bzero>
a080b1c8:	00000000 	nop
a080b1cc:	3c02a084 	lui	v0,0xa084
a080b1d0:	2444e0f0 	addiu	a0,v0,-7952
a080b1d4:	24051000 	li	a1,4096
a080b1d8:	0c203ad3 	jal	a080eb4c <bzero>
a080b1dc:	00000000 	nop
a080b1e0:	3c02a084 	lui	v0,0xa084
a080b1e4:	2444c0f0 	addiu	a0,v0,-16144
a080b1e8:	24051000 	li	a1,4096
a080b1ec:	0c203ad3 	jal	a080eb4c <bzero>
a080b1f0:	00000000 	nop
a080b1f4:	3c02a086 	lui	v0,0xa086
a080b1f8:	2444134c 	addiu	a0,v0,4940
a080b1fc:	24050400 	li	a1,1024
a080b200:	0c203ad3 	jal	a080eb4c <bzero>
a080b204:	00000000 	nop
a080b208:	3c02a087 	lui	v0,0xa087
a080b20c:	2444b9cc 	addiu	a0,v0,-17972
a080b210:	24050200 	li	a1,512
a080b214:	0c203ad3 	jal	a080eb4c <bzero>
a080b218:	00000000 	nop
a080b21c:	3c02a086 	lui	v0,0xa086
a080b220:	2444108c 	addiu	a0,v0,4236
a080b224:	24050040 	li	a1,64
a080b228:	0c203ad3 	jal	a080eb4c <bzero>
a080b22c:	00000000 	nop
a080b230:	0c202357 	jal	a0808d5c <sync_to_disk_block_bmp>
a080b234:	00000000 	nop
a080b238:	0c202348 	jal	a0808d20 <sync_to_disk_inode_bmp>
a080b23c:	00000000 	nop
a080b240:	3c02a081 	lui	v0,0xa081
a080b244:	8c4372d0 	lw	v1,29392(v0)
a080b248:	3c022e57 	lui	v0,0x2e57
a080b24c:	34425159 	ori	v0,v0,0x5159
a080b250:	ac620008 	sw	v0,8(v1)
a080b254:	3c02a081 	lui	v0,0xa081
a080b258:	8c4372d0 	lw	v1,29392(v0)
a080b25c:	3c024000 	lui	v0,0x4000
a080b260:	ac620000 	sw	v0,0(v1)
a080b264:	3c02a081 	lui	v0,0xa081
a080b268:	8c4372d0 	lw	v1,29392(v0)
a080b26c:	24021000 	li	v0,4096
a080b270:	ac620004 	sw	v0,4(v1)
a080b274:	3c02a081 	lui	v0,0xa081
a080b278:	8c4372d0 	lw	v1,29392(v0)
a080b27c:	3c020004 	lui	v0,0x4
a080b280:	ac620010 	sw	v0,16(v1)
a080b284:	3c02a081 	lui	v0,0xa081
a080b288:	8c4372d0 	lw	v1,29392(v0)
a080b28c:	24022000 	li	v0,8192
a080b290:	ac62000c 	sw	v0,12(v1)
a080b294:	3c02a081 	lui	v0,0xa081
a080b298:	8c4372d0 	lw	v1,29392(v0)
a080b29c:	24020001 	li	v0,1
a080b2a0:	ac62001c 	sw	v0,28(v1)
a080b2a4:	3c02a081 	lui	v0,0xa081
a080b2a8:	8c4372d0 	lw	v1,29392(v0)
a080b2ac:	24020009 	li	v0,9
a080b2b0:	ac620020 	sw	v0,32(v1)
a080b2b4:	3c02a081 	lui	v0,0xa081
a080b2b8:	8c4372d0 	lw	v1,29392(v0)
a080b2bc:	2402000a 	li	v0,10
a080b2c0:	ac620024 	sw	v0,36(v1)
a080b2c4:	3c02a081 	lui	v0,0xa081
a080b2c8:	8c4372d0 	lw	v1,29392(v0)
a080b2cc:	2402010a 	li	v0,266
a080b2d0:	ac620028 	sw	v0,40(v1)
a080b2d4:	3c02a081 	lui	v0,0xa081
a080b2d8:	8c4372d0 	lw	v1,29392(v0)
a080b2dc:	3c020003 	lui	v0,0x3
a080b2e0:	3442fef6 	ori	v0,v0,0xfef6
a080b2e4:	ac620018 	sw	v0,24(v1)
a080b2e8:	3c02a081 	lui	v0,0xa081
a080b2ec:	8c4372d0 	lw	v1,29392(v0)
a080b2f0:	24022000 	li	v0,8192
a080b2f4:	ac620014 	sw	v0,20(v1)
a080b2f8:	3c02a081 	lui	v0,0xa081
a080b2fc:	8c4372d0 	lw	v1,29392(v0)
a080b300:	24020080 	li	v0,128
a080b304:	ac620030 	sw	v0,48(v1)
a080b308:	3c02a081 	lui	v0,0xa081
a080b30c:	8c4372d0 	lw	v1,29392(v0)
a080b310:	24020080 	li	v0,128
a080b314:	ac620034 	sw	v0,52(v1)
a080b318:	0c202377 	jal	a0808ddc <sync_to_disk_superblock>
a080b31c:	00000000 	nop
a080b320:	afc00018 	sw	zero,24(s8)
a080b324:	08202cd2 	j	a080b348 <do_mkfs+0x1e0>
a080b328:	00000000 	nop
a080b32c:	8fc20018 	lw	v0,24(s8)
a080b330:	00402021 	move	a0,v0
a080b334:	0c202294 	jal	a0808a50 <set_block_bmp>
a080b338:	00000000 	nop
a080b33c:	8fc20018 	lw	v0,24(s8)
a080b340:	24420001 	addiu	v0,v0,1
a080b344:	afc20018 	sw	v0,24(s8)
a080b348:	8fc20018 	lw	v0,24(s8)
a080b34c:	2842010a 	slti	v0,v0,266
a080b350:	1440fff6 	bnez	v0,a080b32c <do_mkfs+0x1c4>
a080b354:	00000000 	nop
a080b358:	0c202357 	jal	a0808d5c <sync_to_disk_block_bmp>
a080b35c:	00000000 	nop
a080b360:	afc00014 	sw	zero,20(s8)
a080b364:	8fc40014 	lw	a0,20(s8)
a080b368:	0c2022c4 	jal	a0808b10 <set_inode_bmp>
a080b36c:	00000000 	nop
a080b370:	0c202348 	jal	a0808d20 <sync_to_disk_inode_bmp>
a080b374:	00000000 	nop
a080b378:	3c02a081 	lui	v0,0xa081
a080b37c:	8c4372d0 	lw	v1,29392(v0)
a080b380:	8c620014 	lw	v0,20(v1)
a080b384:	2442ffff 	addiu	v0,v0,-1
a080b388:	ac620014 	sw	v0,20(v1)
a080b38c:	0c202377 	jal	a0808ddc <sync_to_disk_superblock>
a080b390:	00000000 	nop
a080b394:	2404010a 	li	a0,266
a080b398:	0c202294 	jal	a0808a50 <set_block_bmp>
a080b39c:	00000000 	nop
a080b3a0:	0c202357 	jal	a0808d5c <sync_to_disk_block_bmp>
a080b3a4:	00000000 	nop
a080b3a8:	3c02a081 	lui	v0,0xa081
a080b3ac:	8c4372d0 	lw	v1,29392(v0)
a080b3b0:	8c620018 	lw	v0,24(v1)
a080b3b4:	2442ffff 	addiu	v0,v0,-1
a080b3b8:	ac620018 	sw	v0,24(v1)
a080b3bc:	0c202377 	jal	a0808ddc <sync_to_disk_superblock>
a080b3c0:	00000000 	nop
a080b3c4:	3c02a081 	lui	v0,0xa081
a080b3c8:	8c4372d4 	lw	v1,29396(v0)
a080b3cc:	240241ed 	li	v0,16877
a080b3d0:	a4620000 	sh	v0,0(v1)
a080b3d4:	3c02a081 	lui	v0,0xa081
a080b3d8:	8c4372d4 	lw	v1,29396(v0)
a080b3dc:	24020001 	li	v0,1
a080b3e0:	a4620002 	sh	v0,2(v1)
a080b3e4:	3c02a081 	lui	v0,0xa081
a080b3e8:	8c4372d4 	lw	v1,29396(v0)
a080b3ec:	24021000 	li	v0,4096
a080b3f0:	ac620004 	sw	v0,4(v1)
a080b3f4:	3c02a081 	lui	v0,0xa081
a080b3f8:	8c4272d4 	lw	v0,29396(v0)
a080b3fc:	ac400008 	sw	zero,8(v0)
a080b400:	3c02a081 	lui	v0,0xa081
a080b404:	8c5072d4 	lw	s0,29396(v0)
a080b408:	0c202264 	jal	a0808990 <get_ticks>
a080b40c:	00000000 	nop
a080b410:	ae02000c 	sw	v0,12(s0)
a080b414:	3c02a081 	lui	v0,0xa081
a080b418:	8c5072d4 	lw	s0,29396(v0)
a080b41c:	0c202264 	jal	a0808990 <get_ticks>
a080b420:	00000000 	nop
a080b424:	ae020010 	sw	v0,16(s0)
a080b428:	3c02a081 	lui	v0,0xa081
a080b42c:	8c5072d4 	lw	s0,29396(v0)
a080b430:	0c202264 	jal	a0808990 <get_ticks>
a080b434:	00000000 	nop
a080b438:	ae020014 	sw	v0,20(s0)
a080b43c:	3c02a081 	lui	v0,0xa081
a080b440:	8c4272d4 	lw	v0,29396(v0)
a080b444:	24420018 	addiu	v0,v0,24
a080b448:	00402021 	move	a0,v0
a080b44c:	24050030 	li	a1,48
a080b450:	0c203ad3 	jal	a080eb4c <bzero>
a080b454:	00000000 	nop
a080b458:	3c02a081 	lui	v0,0xa081
a080b45c:	8c4372d4 	lw	v1,29396(v0)
a080b460:	2402010a 	li	v0,266
a080b464:	ac620018 	sw	v0,24(v1)
a080b468:	3c02a081 	lui	v0,0xa081
a080b46c:	8c4272d4 	lw	v0,29396(v0)
a080b470:	ac400048 	sw	zero,72(v0)
a080b474:	3c02a081 	lui	v0,0xa081
a080b478:	8c4272d4 	lw	v0,29396(v0)
a080b47c:	ac40004c 	sw	zero,76(v0)
a080b480:	3c02a081 	lui	v0,0xa081
a080b484:	8c4272d4 	lw	v0,29396(v0)
a080b488:	ac400050 	sw	zero,80(v0)
a080b48c:	3c02a081 	lui	v0,0xa081
a080b490:	8c4272d4 	lw	v0,29396(v0)
a080b494:	ac400054 	sw	zero,84(v0)
a080b498:	3c02a081 	lui	v0,0xa081
a080b49c:	8c4272d4 	lw	v0,29396(v0)
a080b4a0:	24420058 	addiu	v0,v0,88
a080b4a4:	00402021 	move	a0,v0
a080b4a8:	24050028 	li	a1,40
a080b4ac:	0c203ad3 	jal	a080eb4c <bzero>
a080b4b0:	00000000 	nop
a080b4b4:	3c02a081 	lui	v0,0xa081
a080b4b8:	8c4272d4 	lw	v0,29396(v0)
a080b4bc:	00402021 	move	a0,v0
a080b4c0:	0c202496 	jal	a0809258 <sync_to_disk_inode>
a080b4c4:	00000000 	nop
a080b4c8:	3c02a084 	lui	v0,0xa084
a080b4cc:	2442e0f0 	addiu	v0,v0,-7952
a080b4d0:	afc20010 	sw	v0,16(s8)
a080b4d4:	8fc20010 	lw	v0,16(s8)
a080b4d8:	ac400000 	sw	zero,0(v0)
a080b4dc:	8fc20010 	lw	v0,16(s8)
a080b4e0:	24420004 	addiu	v0,v0,4
a080b4e4:	00402021 	move	a0,v0
a080b4e8:	3c02a081 	lui	v0,0xa081
a080b4ec:	24456044 	addiu	a1,v0,24644
a080b4f0:	0c203b1a 	jal	a080ec68 <strcpy>
a080b4f4:	00000000 	nop
a080b4f8:	8fc20010 	lw	v0,16(s8)
a080b4fc:	24420080 	addiu	v0,v0,128
a080b500:	ac400000 	sw	zero,0(v0)
a080b504:	8fc20010 	lw	v0,16(s8)
a080b508:	24420080 	addiu	v0,v0,128
a080b50c:	24420004 	addiu	v0,v0,4
a080b510:	00402021 	move	a0,v0
a080b514:	3c02a081 	lui	v0,0xa081
a080b518:	24456048 	addiu	a1,v0,24648
a080b51c:	0c203b1a 	jal	a080ec68 <strcpy>
a080b520:	00000000 	nop
a080b524:	2404010a 	li	a0,266
a080b528:	0c2023a8 	jal	a0808ea0 <sync_to_disk_dentry>
a080b52c:	00000000 	nop
a080b530:	3c02a086 	lui	v0,0xa086
a080b534:	244310cc 	addiu	v1,v0,4300
a080b538:	3c02a086 	lui	v0,0xa086
a080b53c:	2442674c 	addiu	v0,v0,26444
a080b540:	00602021 	move	a0,v1
a080b544:	00402821 	move	a1,v0
a080b548:	24060080 	li	a2,128
a080b54c:	0c203a9a 	jal	a080ea68 <memcpy>
a080b550:	00000000 	nop
a080b554:	24040001 	li	a0,1
a080b558:	24050001 	li	a1,1
a080b55c:	0c2004dc 	jal	a0801370 <vt100_move_cursor>
a080b560:	00000000 	nop
a080b564:	3c02a081 	lui	v0,0xa081
a080b568:	2444604c 	addiu	a0,v0,24652
a080b56c:	0c203fd5 	jal	a080ff54 <printk>
a080b570:	00000000 	nop
a080b574:	3c02a081 	lui	v0,0xa081
a080b578:	2444607c 	addiu	a0,v0,24700
a080b57c:	0c203fd5 	jal	a080ff54 <printk>
a080b580:	00000000 	nop
a080b584:	3c02a081 	lui	v0,0xa081
a080b588:	8c4272d0 	lw	v0,29392(v0)
a080b58c:	8c430008 	lw	v1,8(v0)
a080b590:	3c02a081 	lui	v0,0xa081
a080b594:	244460ac 	addiu	a0,v0,24748
a080b598:	00602821 	move	a1,v1
a080b59c:	0c203fd5 	jal	a080ff54 <printk>
a080b5a0:	00000000 	nop
a080b5a4:	3c02a081 	lui	v0,0xa081
a080b5a8:	8c4272d0 	lw	v0,29392(v0)
a080b5ac:	8c430000 	lw	v1,0(v0)
a080b5b0:	3c02a081 	lui	v0,0xa081
a080b5b4:	244460dc 	addiu	a0,v0,24796
a080b5b8:	00602821 	move	a1,v1
a080b5bc:	0c203fd5 	jal	a080ff54 <printk>
a080b5c0:	00000000 	nop
a080b5c4:	3c02a081 	lui	v0,0xa081
a080b5c8:	8c4272d0 	lw	v0,29392(v0)
a080b5cc:	8c430004 	lw	v1,4(v0)
a080b5d0:	3c02a081 	lui	v0,0xa081
a080b5d4:	2444610c 	addiu	a0,v0,24844
a080b5d8:	00602821 	move	a1,v1
a080b5dc:	0c203fd5 	jal	a080ff54 <printk>
a080b5e0:	00000000 	nop
a080b5e4:	3c02a081 	lui	v0,0xa081
a080b5e8:	8c4272d0 	lw	v0,29392(v0)
a080b5ec:	8c430010 	lw	v1,16(v0)
a080b5f0:	3c02a081 	lui	v0,0xa081
a080b5f4:	2444613c 	addiu	a0,v0,24892
a080b5f8:	00602821 	move	a1,v1
a080b5fc:	0c203fd5 	jal	a080ff54 <printk>
a080b600:	00000000 	nop
a080b604:	3c02a081 	lui	v0,0xa081
a080b608:	8c4272d0 	lw	v0,29392(v0)
a080b60c:	8c43000c 	lw	v1,12(v0)
a080b610:	3c02a081 	lui	v0,0xa081
a080b614:	2444616c 	addiu	a0,v0,24940
a080b618:	00602821 	move	a1,v1
a080b61c:	0c203fd5 	jal	a080ff54 <printk>
a080b620:	00000000 	nop
a080b624:	3c02a081 	lui	v0,0xa081
a080b628:	8c4272d0 	lw	v0,29392(v0)
a080b62c:	8c43001c 	lw	v1,28(v0)
a080b630:	3c02a081 	lui	v0,0xa081
a080b634:	2444619c 	addiu	a0,v0,24988
a080b638:	00602821 	move	a1,v1
a080b63c:	0c203fd5 	jal	a080ff54 <printk>
a080b640:	00000000 	nop
a080b644:	3c02a081 	lui	v0,0xa081
a080b648:	8c4272d0 	lw	v0,29392(v0)
a080b64c:	8c42001c 	lw	v0,28(v0)
a080b650:	00021b00 	sll	v1,v0,0xc
a080b654:	3c02a081 	lui	v0,0xa081
a080b658:	244461cc 	addiu	a0,v0,25036
a080b65c:	00602821 	move	a1,v1
a080b660:	0c203fd5 	jal	a080ff54 <printk>
a080b664:	00000000 	nop
a080b668:	3c02a081 	lui	v0,0xa081
a080b66c:	8c4272d0 	lw	v0,29392(v0)
a080b670:	8c430020 	lw	v1,32(v0)
a080b674:	3c02a081 	lui	v0,0xa081
a080b678:	244461fc 	addiu	a0,v0,25084
a080b67c:	00602821 	move	a1,v1
a080b680:	0c203fd5 	jal	a080ff54 <printk>
a080b684:	00000000 	nop
a080b688:	3c02a081 	lui	v0,0xa081
a080b68c:	8c4272d0 	lw	v0,29392(v0)
a080b690:	8c420020 	lw	v0,32(v0)
a080b694:	00021b00 	sll	v1,v0,0xc
a080b698:	3c02a081 	lui	v0,0xa081
a080b69c:	244461cc 	addiu	a0,v0,25036
a080b6a0:	00602821 	move	a1,v1
a080b6a4:	0c203fd5 	jal	a080ff54 <printk>
a080b6a8:	00000000 	nop
a080b6ac:	3c02a081 	lui	v0,0xa081
a080b6b0:	8c4272d0 	lw	v0,29392(v0)
a080b6b4:	8c430024 	lw	v1,36(v0)
a080b6b8:	3c02a081 	lui	v0,0xa081
a080b6bc:	2444622c 	addiu	a0,v0,25132
a080b6c0:	00602821 	move	a1,v1
a080b6c4:	0c203fd5 	jal	a080ff54 <printk>
a080b6c8:	00000000 	nop
a080b6cc:	3c02a081 	lui	v0,0xa081
a080b6d0:	8c4272d0 	lw	v0,29392(v0)
a080b6d4:	8c420024 	lw	v0,36(v0)
a080b6d8:	00021b00 	sll	v1,v0,0xc
a080b6dc:	3c02a081 	lui	v0,0xa081
a080b6e0:	2444625c 	addiu	a0,v0,25180
a080b6e4:	00602821 	move	a1,v1
a080b6e8:	0c203fd5 	jal	a080ff54 <printk>
a080b6ec:	00000000 	nop
a080b6f0:	3c02a081 	lui	v0,0xa081
a080b6f4:	8c4272d0 	lw	v0,29392(v0)
a080b6f8:	8c430028 	lw	v1,40(v0)
a080b6fc:	3c02a081 	lui	v0,0xa081
a080b700:	2444628c 	addiu	a0,v0,25228
a080b704:	00602821 	move	a1,v1
a080b708:	0c203fd5 	jal	a080ff54 <printk>
a080b70c:	00000000 	nop
a080b710:	3c02a081 	lui	v0,0xa081
a080b714:	8c4272d0 	lw	v0,29392(v0)
a080b718:	8c430030 	lw	v1,48(v0)
a080b71c:	3c02a081 	lui	v0,0xa081
a080b720:	244462bc 	addiu	a0,v0,25276
a080b724:	00602821 	move	a1,v1
a080b728:	0c203fd5 	jal	a080ff54 <printk>
a080b72c:	00000000 	nop
a080b730:	3c02a081 	lui	v0,0xa081
a080b734:	8c4272d0 	lw	v0,29392(v0)
a080b738:	8c430034 	lw	v1,52(v0)
a080b73c:	3c02a081 	lui	v0,0xa081
a080b740:	244462ec 	addiu	a0,v0,25324
a080b744:	00602821 	move	a1,v1
a080b748:	0c203fd5 	jal	a080ff54 <printk>
a080b74c:	00000000 	nop
a080b750:	3c02a081 	lui	v0,0xa081
a080b754:	2444631c 	addiu	a0,v0,25372
a080b758:	0c203fd5 	jal	a080ff54 <printk>
a080b75c:	00000000 	nop
a080b760:	3c02a081 	lui	v0,0xa081
a080b764:	2444634c 	addiu	a0,v0,25420
a080b768:	0c203fd5 	jal	a080ff54 <printk>
a080b76c:	00000000 	nop
a080b770:	3c02a081 	lui	v0,0xa081
a080b774:	2444637c 	addiu	a0,v0,25468
a080b778:	0c203fd5 	jal	a080ff54 <printk>
a080b77c:	00000000 	nop
a080b780:	3c02a081 	lui	v0,0xa081
a080b784:	244463ac 	addiu	a0,v0,25516
a080b788:	0c203fd5 	jal	a080ff54 <printk>
a080b78c:	00000000 	nop
a080b790:	03c0e821 	move	sp,s8
a080b794:	8fbf002c 	lw	ra,44(sp)
a080b798:	8fbe0028 	lw	s8,40(sp)
a080b79c:	8fb00024 	lw	s0,36(sp)
a080b7a0:	27bd0030 	addiu	sp,sp,48
a080b7a4:	03e00008 	jr	ra
a080b7a8:	00000000 	nop

a080b7ac <do_statfs>:
a080b7ac:	27bdffe8 	addiu	sp,sp,-24
a080b7b0:	afbf0014 	sw	ra,20(sp)
a080b7b4:	afbe0010 	sw	s8,16(sp)
a080b7b8:	03a0f021 	move	s8,sp
a080b7bc:	0c2023e7 	jal	a0808f9c <sync_from_disk_superblock>
a080b7c0:	00000000 	nop
a080b7c4:	24040001 	li	a0,1
a080b7c8:	24050028 	li	a1,40
a080b7cc:	0c2004dc 	jal	a0801370 <vt100_move_cursor>
a080b7d0:	00000000 	nop
a080b7d4:	3c02a081 	lui	v0,0xa081
a080b7d8:	244463dc 	addiu	a0,v0,25564
a080b7dc:	0c203fd5 	jal	a080ff54 <printk>
a080b7e0:	00000000 	nop
a080b7e4:	3c02a081 	lui	v0,0xa081
a080b7e8:	8c4272d0 	lw	v0,29392(v0)
a080b7ec:	8c430008 	lw	v1,8(v0)
a080b7f0:	3c02a081 	lui	v0,0xa081
a080b7f4:	24446408 	addiu	a0,v0,25608
a080b7f8:	00602821 	move	a1,v1
a080b7fc:	0c203fd5 	jal	a080ff54 <printk>
a080b800:	00000000 	nop
a080b804:	3c02a081 	lui	v0,0xa081
a080b808:	8c4272d0 	lw	v0,29392(v0)
a080b80c:	8c430000 	lw	v1,0(v0)
a080b810:	3c02a081 	lui	v0,0xa081
a080b814:	24446434 	addiu	a0,v0,25652
a080b818:	00602821 	move	a1,v1
a080b81c:	0c203fd5 	jal	a080ff54 <printk>
a080b820:	00000000 	nop
a080b824:	3c02a081 	lui	v0,0xa081
a080b828:	8c4272d0 	lw	v0,29392(v0)
a080b82c:	8c430004 	lw	v1,4(v0)
a080b830:	3c02a081 	lui	v0,0xa081
a080b834:	24446460 	addiu	a0,v0,25696
a080b838:	00602821 	move	a1,v1
a080b83c:	0c203fd5 	jal	a080ff54 <printk>
a080b840:	00000000 	nop
a080b844:	3c02a081 	lui	v0,0xa081
a080b848:	8c4272d0 	lw	v0,29392(v0)
a080b84c:	8c430010 	lw	v1,16(v0)
a080b850:	3c02a081 	lui	v0,0xa081
a080b854:	2444648c 	addiu	a0,v0,25740
a080b858:	00602821 	move	a1,v1
a080b85c:	0c203fd5 	jal	a080ff54 <printk>
a080b860:	00000000 	nop
a080b864:	3c02a081 	lui	v0,0xa081
a080b868:	8c4272d0 	lw	v0,29392(v0)
a080b86c:	8c430018 	lw	v1,24(v0)
a080b870:	3c02a081 	lui	v0,0xa081
a080b874:	244464b8 	addiu	a0,v0,25784
a080b878:	00602821 	move	a1,v1
a080b87c:	0c203fd5 	jal	a080ff54 <printk>
a080b880:	00000000 	nop
a080b884:	3c02a081 	lui	v0,0xa081
a080b888:	8c4272d0 	lw	v0,29392(v0)
a080b88c:	8c43000c 	lw	v1,12(v0)
a080b890:	3c02a081 	lui	v0,0xa081
a080b894:	244464e4 	addiu	a0,v0,25828
a080b898:	00602821 	move	a1,v1
a080b89c:	0c203fd5 	jal	a080ff54 <printk>
a080b8a0:	00000000 	nop
a080b8a4:	3c02a081 	lui	v0,0xa081
a080b8a8:	8c4272d0 	lw	v0,29392(v0)
a080b8ac:	8c430014 	lw	v1,20(v0)
a080b8b0:	3c02a081 	lui	v0,0xa081
a080b8b4:	24446510 	addiu	a0,v0,25872
a080b8b8:	00602821 	move	a1,v1
a080b8bc:	0c203fd5 	jal	a080ff54 <printk>
a080b8c0:	00000000 	nop
a080b8c4:	3c02a081 	lui	v0,0xa081
a080b8c8:	8c4272d0 	lw	v0,29392(v0)
a080b8cc:	8c43001c 	lw	v1,28(v0)
a080b8d0:	3c02a081 	lui	v0,0xa081
a080b8d4:	2444653c 	addiu	a0,v0,25916
a080b8d8:	00602821 	move	a1,v1
a080b8dc:	0c203fd5 	jal	a080ff54 <printk>
a080b8e0:	00000000 	nop
a080b8e4:	3c02a081 	lui	v0,0xa081
a080b8e8:	8c4272d0 	lw	v0,29392(v0)
a080b8ec:	8c42001c 	lw	v0,28(v0)
a080b8f0:	00021b00 	sll	v1,v0,0xc
a080b8f4:	3c02a081 	lui	v0,0xa081
a080b8f8:	24446568 	addiu	a0,v0,25960
a080b8fc:	00602821 	move	a1,v1
a080b900:	0c203fd5 	jal	a080ff54 <printk>
a080b904:	00000000 	nop
a080b908:	3c02a081 	lui	v0,0xa081
a080b90c:	8c4272d0 	lw	v0,29392(v0)
a080b910:	8c430020 	lw	v1,32(v0)
a080b914:	3c02a081 	lui	v0,0xa081
a080b918:	24446594 	addiu	a0,v0,26004
a080b91c:	00602821 	move	a1,v1
a080b920:	0c203fd5 	jal	a080ff54 <printk>
a080b924:	00000000 	nop
a080b928:	3c02a081 	lui	v0,0xa081
a080b92c:	8c4272d0 	lw	v0,29392(v0)
a080b930:	8c420020 	lw	v0,32(v0)
a080b934:	00021b00 	sll	v1,v0,0xc
a080b938:	3c02a081 	lui	v0,0xa081
a080b93c:	24446568 	addiu	a0,v0,25960
a080b940:	00602821 	move	a1,v1
a080b944:	0c203fd5 	jal	a080ff54 <printk>
a080b948:	00000000 	nop
a080b94c:	3c02a081 	lui	v0,0xa081
a080b950:	8c4272d0 	lw	v0,29392(v0)
a080b954:	8c430024 	lw	v1,36(v0)
a080b958:	3c02a081 	lui	v0,0xa081
a080b95c:	244465c0 	addiu	a0,v0,26048
a080b960:	00602821 	move	a1,v1
a080b964:	0c203fd5 	jal	a080ff54 <printk>
a080b968:	00000000 	nop
a080b96c:	3c02a081 	lui	v0,0xa081
a080b970:	8c4272d0 	lw	v0,29392(v0)
a080b974:	8c420024 	lw	v0,36(v0)
a080b978:	00021b00 	sll	v1,v0,0xc
a080b97c:	3c02a081 	lui	v0,0xa081
a080b980:	244465ec 	addiu	a0,v0,26092
a080b984:	00602821 	move	a1,v1
a080b988:	0c203fd5 	jal	a080ff54 <printk>
a080b98c:	00000000 	nop
a080b990:	3c02a081 	lui	v0,0xa081
a080b994:	8c4272d0 	lw	v0,29392(v0)
a080b998:	8c430028 	lw	v1,40(v0)
a080b99c:	3c02a081 	lui	v0,0xa081
a080b9a0:	24446618 	addiu	a0,v0,26136
a080b9a4:	00602821 	move	a1,v1
a080b9a8:	0c203fd5 	jal	a080ff54 <printk>
a080b9ac:	00000000 	nop
a080b9b0:	3c02a081 	lui	v0,0xa081
a080b9b4:	8c4272d0 	lw	v0,29392(v0)
a080b9b8:	8c430030 	lw	v1,48(v0)
a080b9bc:	3c02a081 	lui	v0,0xa081
a080b9c0:	24446644 	addiu	a0,v0,26180
a080b9c4:	00602821 	move	a1,v1
a080b9c8:	0c203fd5 	jal	a080ff54 <printk>
a080b9cc:	00000000 	nop
a080b9d0:	3c02a081 	lui	v0,0xa081
a080b9d4:	8c4272d0 	lw	v0,29392(v0)
a080b9d8:	8c430034 	lw	v1,52(v0)
a080b9dc:	3c02a081 	lui	v0,0xa081
a080b9e0:	24446670 	addiu	a0,v0,26224
a080b9e4:	00602821 	move	a1,v1
a080b9e8:	0c203fd5 	jal	a080ff54 <printk>
a080b9ec:	00000000 	nop
a080b9f0:	03c0e821 	move	sp,s8
a080b9f4:	8fbf0014 	lw	ra,20(sp)
a080b9f8:	8fbe0010 	lw	s8,16(sp)
a080b9fc:	27bd0018 	addiu	sp,sp,24
a080ba00:	03e00008 	jr	ra
a080ba04:	00000000 	nop

a080ba08 <do_mkdir>:
a080ba08:	27bdfe48 	addiu	sp,sp,-440
a080ba0c:	afbf01b4 	sw	ra,436(sp)
a080ba10:	afbe01b0 	sw	s8,432(sp)
a080ba14:	afb101ac 	sw	s1,428(sp)
a080ba18:	afb001a8 	sw	s0,424(sp)
a080ba1c:	03a0f021 	move	s8,sp
a080ba20:	afc401b8 	sw	a0,440(s8)
a080ba24:	00a01021 	move	v0,a1
a080ba28:	a7c201bc 	sh	v0,444(s8)
a080ba2c:	3c02a087 	lui	v0,0xa087
a080ba30:	2444b9cc 	addiu	a0,v0,-17972
a080ba34:	24050200 	li	a1,512
a080ba38:	0c203ad3 	jal	a080eb4c <bzero>
a080ba3c:	00000000 	nop
a080ba40:	3c02a086 	lui	v0,0xa086
a080ba44:	2444114c 	addiu	a0,v0,4428
a080ba48:	24050200 	li	a1,512
a080ba4c:	0c203ad3 	jal	a080eb4c <bzero>
a080ba50:	00000000 	nop
a080ba54:	3c02a086 	lui	v0,0xa086
a080ba58:	2444108c 	addiu	a0,v0,4236
a080ba5c:	24050040 	li	a1,64
a080ba60:	0c203ad3 	jal	a080eb4c <bzero>
a080ba64:	00000000 	nop
a080ba68:	3c02a086 	lui	v0,0xa086
a080ba6c:	2450114c 	addiu	s0,v0,4428
a080ba70:	8fd101b8 	lw	s1,440(s8)
a080ba74:	8fc201b8 	lw	v0,440(s8)
a080ba78:	00402021 	move	a0,v0
a080ba7c:	0c203a84 	jal	a080ea10 <strlen>
a080ba80:	00000000 	nop
a080ba84:	02002021 	move	a0,s0
a080ba88:	02202821 	move	a1,s1
a080ba8c:	00403021 	move	a2,v0
a080ba90:	0c203a9a 	jal	a080ea68 <memcpy>
a080ba94:	00000000 	nop
a080ba98:	8fc201b8 	lw	v0,440(s8)
a080ba9c:	00402021 	move	a0,v0
a080baa0:	0c203a84 	jal	a080ea10 <strlen>
a080baa4:	00000000 	nop
a080baa8:	00401821 	move	v1,v0
a080baac:	3c02a086 	lui	v0,0xa086
a080bab0:	2442114c 	addiu	v0,v0,4428
a080bab4:	00621021 	addu	v0,v1,v0
a080bab8:	a0400000 	sb	zero,0(v0)
a080babc:	3c02a086 	lui	v0,0xa086
a080bac0:	2444114c 	addiu	a0,v0,4428
a080bac4:	3c02a087 	lui	v0,0xa087
a080bac8:	2445b9cc 	addiu	a1,v0,-17972
a080bacc:	3c02a086 	lui	v0,0xa086
a080bad0:	2446108c 	addiu	a2,v0,4236
a080bad4:	0c20258f 	jal	a080963c <separate_path>
a080bad8:	00000000 	nop
a080badc:	afc0001c 	sw	zero,28(s8)
a080bae0:	3c02a081 	lui	v0,0xa081
a080bae4:	8c4272d8 	lw	v0,29400(v0)
a080bae8:	00402021 	move	a0,v0
a080baec:	3c02a087 	lui	v0,0xa087
a080baf0:	2445b9cc 	addiu	a1,v0,-17972
a080baf4:	0c202893 	jal	a080a24c <find_file>
a080baf8:	00000000 	nop
a080bafc:	afc2001c 	sw	v0,28(s8)
a080bb00:	0c2023c7 	jal	a0808f1c <sync_from_disk_block_bmp>
a080bb04:	00000000 	nop
a080bb08:	0c2023b8 	jal	a0808ee0 <sync_from_disk_inode_bmp>
a080bb0c:	00000000 	nop
a080bb10:	27c20020 	addiu	v0,s8,32
a080bb14:	8fc4001c 	lw	a0,28(s8)
a080bb18:	00402821 	move	a1,v0
a080bb1c:	0c202479 	jal	a08091e4 <sync_from_disk_inode>
a080bb20:	00000000 	nop
a080bb24:	27c20020 	addiu	v0,s8,32
a080bb28:	00402021 	move	a0,v0
a080bb2c:	3c02a086 	lui	v0,0xa086
a080bb30:	2445108c 	addiu	a1,v0,4236
a080bb34:	0c2028de 	jal	a080a378 <find_dentry>
a080bb38:	00000000 	nop
a080bb3c:	00401821 	move	v1,v0
a080bb40:	2402ffff 	li	v0,-1
a080bb44:	1062000d 	beq	v1,v0,a080bb7c <do_mkdir+0x174>
a080bb48:	00000000 	nop
a080bb4c:	24040001 	li	a0,1
a080bb50:	2405002d 	li	a1,45
a080bb54:	0c2004dc 	jal	a0801370 <vt100_move_cursor>
a080bb58:	00000000 	nop
a080bb5c:	3c02a081 	lui	v0,0xa081
a080bb60:	2444669c 	addiu	a0,v0,26268
a080bb64:	0c203fd5 	jal	a080ff54 <printk>
a080bb68:	00000000 	nop
a080bb6c:	2402ffff 	li	v0,-1
a080bb70:	afc201a0 	sw	v0,416(s8)
a080bb74:	08202f59 	j	a080bd64 <do_mkdir+0x35c>
a080bb78:	00000000 	nop
a080bb7c:	0c202995 	jal	a080a654 <find_free_inode>
a080bb80:	00000000 	nop
a080bb84:	afc20018 	sw	v0,24(s8)
a080bb88:	8fc40018 	lw	a0,24(s8)
a080bb8c:	0c2022c4 	jal	a0808b10 <set_inode_bmp>
a080bb90:	00000000 	nop
a080bb94:	0c202348 	jal	a0808d20 <sync_to_disk_inode_bmp>
a080bb98:	00000000 	nop
a080bb9c:	3c02a081 	lui	v0,0xa081
a080bba0:	8c4372d0 	lw	v1,29392(v0)
a080bba4:	8c620014 	lw	v0,20(v1)
a080bba8:	2442ffff 	addiu	v0,v0,-1
a080bbac:	ac620014 	sw	v0,20(v1)
a080bbb0:	0c202377 	jal	a0808ddc <sync_to_disk_superblock>
a080bbb4:	00000000 	nop
a080bbb8:	0c2029d1 	jal	a080a744 <find_free_block>
a080bbbc:	00000000 	nop
a080bbc0:	afc20014 	sw	v0,20(s8)
a080bbc4:	8fc40014 	lw	a0,20(s8)
a080bbc8:	0c202294 	jal	a0808a50 <set_block_bmp>
a080bbcc:	00000000 	nop
a080bbd0:	0c202357 	jal	a0808d5c <sync_to_disk_block_bmp>
a080bbd4:	00000000 	nop
a080bbd8:	3c02a081 	lui	v0,0xa081
a080bbdc:	8c4372d0 	lw	v1,29392(v0)
a080bbe0:	8c620018 	lw	v0,24(v1)
a080bbe4:	2442ffff 	addiu	v0,v0,-1
a080bbe8:	ac620018 	sw	v0,24(v1)
a080bbec:	0c202377 	jal	a0808ddc <sync_to_disk_superblock>
a080bbf0:	00000000 	nop
a080bbf4:	97c201bc 	lhu	v0,444(s8)
a080bbf8:	34424000 	ori	v0,v0,0x4000
a080bbfc:	3042ffff 	andi	v0,v0,0xffff
a080bc00:	a7c200a0 	sh	v0,160(s8)
a080bc04:	24020001 	li	v0,1
a080bc08:	a7c200a2 	sh	v0,162(s8)
a080bc0c:	24021000 	li	v0,4096
a080bc10:	afc200a4 	sw	v0,164(s8)
a080bc14:	afc000a8 	sw	zero,168(s8)
a080bc18:	0c202264 	jal	a0808990 <get_ticks>
a080bc1c:	00000000 	nop
a080bc20:	afc200ac 	sw	v0,172(s8)
a080bc24:	0c202264 	jal	a0808990 <get_ticks>
a080bc28:	00000000 	nop
a080bc2c:	afc200b0 	sw	v0,176(s8)
a080bc30:	0c202264 	jal	a0808990 <get_ticks>
a080bc34:	00000000 	nop
a080bc38:	afc200b4 	sw	v0,180(s8)
a080bc3c:	27c200a0 	addiu	v0,s8,160
a080bc40:	24420018 	addiu	v0,v0,24
a080bc44:	00402021 	move	a0,v0
a080bc48:	24050030 	li	a1,48
a080bc4c:	0c203ad3 	jal	a080eb4c <bzero>
a080bc50:	00000000 	nop
a080bc54:	8fc20014 	lw	v0,20(s8)
a080bc58:	afc200b8 	sw	v0,184(s8)
a080bc5c:	afc000e8 	sw	zero,232(s8)
a080bc60:	afc000ec 	sw	zero,236(s8)
a080bc64:	afc000f0 	sw	zero,240(s8)
a080bc68:	8fc20018 	lw	v0,24(s8)
a080bc6c:	afc200f4 	sw	v0,244(s8)
a080bc70:	27c200a0 	addiu	v0,s8,160
a080bc74:	24420058 	addiu	v0,v0,88
a080bc78:	00402021 	move	a0,v0
a080bc7c:	24050028 	li	a1,40
a080bc80:	0c203ad3 	jal	a080eb4c <bzero>
a080bc84:	00000000 	nop
a080bc88:	27c200a0 	addiu	v0,s8,160
a080bc8c:	00402021 	move	a0,v0
a080bc90:	0c202496 	jal	a0809258 <sync_to_disk_inode>
a080bc94:	00000000 	nop
a080bc98:	3c02a084 	lui	v0,0xa084
a080bc9c:	2444e0f0 	addiu	a0,v0,-7952
a080bca0:	24051000 	li	a1,4096
a080bca4:	0c203ad3 	jal	a080eb4c <bzero>
a080bca8:	00000000 	nop
a080bcac:	3c02a084 	lui	v0,0xa084
a080bcb0:	2442e0f0 	addiu	v0,v0,-7952
a080bcb4:	afc20010 	sw	v0,16(s8)
a080bcb8:	8fc30010 	lw	v1,16(s8)
a080bcbc:	8fc20018 	lw	v0,24(s8)
a080bcc0:	ac620000 	sw	v0,0(v1)
a080bcc4:	8fc20010 	lw	v0,16(s8)
a080bcc8:	24420004 	addiu	v0,v0,4
a080bccc:	00402021 	move	a0,v0
a080bcd0:	3c02a081 	lui	v0,0xa081
a080bcd4:	24456044 	addiu	a1,v0,24644
a080bcd8:	0c203b1a 	jal	a080ec68 <strcpy>
a080bcdc:	00000000 	nop
a080bce0:	8fc20010 	lw	v0,16(s8)
a080bce4:	24430080 	addiu	v1,v0,128
a080bce8:	8fc2001c 	lw	v0,28(s8)
a080bcec:	ac620000 	sw	v0,0(v1)
a080bcf0:	8fc20010 	lw	v0,16(s8)
a080bcf4:	24420080 	addiu	v0,v0,128
a080bcf8:	24420004 	addiu	v0,v0,4
a080bcfc:	00402021 	move	a0,v0
a080bd00:	3c02a081 	lui	v0,0xa081
a080bd04:	24456048 	addiu	a1,v0,24648
a080bd08:	0c203b1a 	jal	a080ec68 <strcpy>
a080bd0c:	00000000 	nop
a080bd10:	8fc40014 	lw	a0,20(s8)
a080bd14:	0c2023a8 	jal	a0808ea0 <sync_to_disk_dentry>
a080bd18:	00000000 	nop
a080bd1c:	8fc20018 	lw	v0,24(s8)
a080bd20:	afc20120 	sw	v0,288(s8)
a080bd24:	27c20120 	addiu	v0,s8,288
a080bd28:	24420004 	addiu	v0,v0,4
a080bd2c:	00402021 	move	a0,v0
a080bd30:	3c02a086 	lui	v0,0xa086
a080bd34:	2445108c 	addiu	a1,v0,4236
a080bd38:	0c203b1a 	jal	a080ec68 <strcpy>
a080bd3c:	00000000 	nop
a080bd40:	8fc20028 	lw	v0,40(s8)
a080bd44:	24450002 	addiu	a1,v0,2
a080bd48:	27c20020 	addiu	v0,s8,32
a080bd4c:	27c30120 	addiu	v1,s8,288
a080bd50:	00402021 	move	a0,v0
a080bd54:	00603021 	move	a2,v1
a080bd58:	0c2024b3 	jal	a08092cc <write_dentry>
a080bd5c:	00000000 	nop
a080bd60:	afc001a0 	sw	zero,416(s8)
a080bd64:	8fc201a0 	lw	v0,416(s8)
a080bd68:	03c0e821 	move	sp,s8
a080bd6c:	8fbf01b4 	lw	ra,436(sp)
a080bd70:	8fbe01b0 	lw	s8,432(sp)
a080bd74:	8fb101ac 	lw	s1,428(sp)
a080bd78:	8fb001a8 	lw	s0,424(sp)
a080bd7c:	27bd01b8 	addiu	sp,sp,440
a080bd80:	03e00008 	jr	ra
a080bd84:	00000000 	nop

a080bd88 <do_rmdir>:
a080bd88:	27bdfed0 	addiu	sp,sp,-304
a080bd8c:	afbf012c 	sw	ra,300(sp)
a080bd90:	afbe0128 	sw	s8,296(sp)
a080bd94:	afb10124 	sw	s1,292(sp)
a080bd98:	afb00120 	sw	s0,288(sp)
a080bd9c:	03a0f021 	move	s8,sp
a080bda0:	afc40130 	sw	a0,304(s8)
a080bda4:	0c2023c7 	jal	a0808f1c <sync_from_disk_block_bmp>
a080bda8:	00000000 	nop
a080bdac:	0c2023b8 	jal	a0808ee0 <sync_from_disk_inode_bmp>
a080bdb0:	00000000 	nop
a080bdb4:	3c02a087 	lui	v0,0xa087
a080bdb8:	2444b9cc 	addiu	a0,v0,-17972
a080bdbc:	24050200 	li	a1,512
a080bdc0:	0c203ad3 	jal	a080eb4c <bzero>
a080bdc4:	00000000 	nop
a080bdc8:	3c02a086 	lui	v0,0xa086
a080bdcc:	2444114c 	addiu	a0,v0,4428
a080bdd0:	24050200 	li	a1,512
a080bdd4:	0c203ad3 	jal	a080eb4c <bzero>
a080bdd8:	00000000 	nop
a080bddc:	3c02a086 	lui	v0,0xa086
a080bde0:	2444108c 	addiu	a0,v0,4236
a080bde4:	24050040 	li	a1,64
a080bde8:	0c203ad3 	jal	a080eb4c <bzero>
a080bdec:	00000000 	nop
a080bdf0:	3c02a086 	lui	v0,0xa086
a080bdf4:	2450114c 	addiu	s0,v0,4428
a080bdf8:	8fd10130 	lw	s1,304(s8)
a080bdfc:	8fc20130 	lw	v0,304(s8)
a080be00:	00402021 	move	a0,v0
a080be04:	0c203a84 	jal	a080ea10 <strlen>
a080be08:	00000000 	nop
a080be0c:	02002021 	move	a0,s0
a080be10:	02202821 	move	a1,s1
a080be14:	00403021 	move	a2,v0
a080be18:	0c203a9a 	jal	a080ea68 <memcpy>
a080be1c:	00000000 	nop
a080be20:	8fc20130 	lw	v0,304(s8)
a080be24:	00402021 	move	a0,v0
a080be28:	0c203a84 	jal	a080ea10 <strlen>
a080be2c:	00000000 	nop
a080be30:	00401821 	move	v1,v0
a080be34:	3c02a086 	lui	v0,0xa086
a080be38:	2442114c 	addiu	v0,v0,4428
a080be3c:	00621021 	addu	v0,v1,v0
a080be40:	a0400000 	sb	zero,0(v0)
a080be44:	3c02a086 	lui	v0,0xa086
a080be48:	2444114c 	addiu	a0,v0,4428
a080be4c:	3c02a087 	lui	v0,0xa087
a080be50:	2445b9cc 	addiu	a1,v0,-17972
a080be54:	3c02a086 	lui	v0,0xa086
a080be58:	2446108c 	addiu	a2,v0,4236
a080be5c:	0c20258f 	jal	a080963c <separate_path>
a080be60:	00000000 	nop
a080be64:	afc00018 	sw	zero,24(s8)
a080be68:	3c02a081 	lui	v0,0xa081
a080be6c:	8c4272d8 	lw	v0,29400(v0)
a080be70:	00402021 	move	a0,v0
a080be74:	3c02a087 	lui	v0,0xa087
a080be78:	2445b9cc 	addiu	a1,v0,-17972
a080be7c:	0c202893 	jal	a080a24c <find_file>
a080be80:	00000000 	nop
a080be84:	afc20018 	sw	v0,24(s8)
a080be88:	27c2001c 	addiu	v0,s8,28
a080be8c:	8fc40018 	lw	a0,24(s8)
a080be90:	00402821 	move	a1,v0
a080be94:	0c202479 	jal	a08091e4 <sync_from_disk_inode>
a080be98:	00000000 	nop
a080be9c:	afc00014 	sw	zero,20(s8)
a080bea0:	27c2001c 	addiu	v0,s8,28
a080bea4:	00402021 	move	a0,v0
a080bea8:	3c02a086 	lui	v0,0xa086
a080beac:	2445108c 	addiu	a1,v0,4236
a080beb0:	0c202893 	jal	a080a24c <find_file>
a080beb4:	00000000 	nop
a080beb8:	afc20014 	sw	v0,20(s8)
a080bebc:	27c2009c 	addiu	v0,s8,156
a080bec0:	8fc40014 	lw	a0,20(s8)
a080bec4:	00402821 	move	a1,v0
a080bec8:	0c202479 	jal	a08091e4 <sync_from_disk_inode>
a080becc:	00000000 	nop
a080bed0:	8fc40014 	lw	a0,20(s8)
a080bed4:	0c2022d4 	jal	a0808b50 <unset_inode_bmp>
a080bed8:	00000000 	nop
a080bedc:	0c202348 	jal	a0808d20 <sync_to_disk_inode_bmp>
a080bee0:	00000000 	nop
a080bee4:	27c2009c 	addiu	v0,s8,156
a080bee8:	00402021 	move	a0,v0
a080beec:	0c202a0e 	jal	a080a838 <release_inode_block>
a080bef0:	00000000 	nop
a080bef4:	0c202357 	jal	a0808d5c <sync_to_disk_block_bmp>
a080bef8:	00000000 	nop
a080befc:	27c2001c 	addiu	v0,s8,28
a080bf00:	00402021 	move	a0,v0
a080bf04:	3c02a086 	lui	v0,0xa086
a080bf08:	2445108c 	addiu	a1,v0,4236
a080bf0c:	0c2028de 	jal	a080a378 <find_dentry>
a080bf10:	00000000 	nop
a080bf14:	afc20010 	sw	v0,16(s8)
a080bf18:	27c2001c 	addiu	v0,s8,28
a080bf1c:	00402021 	move	a0,v0
a080bf20:	8fc50010 	lw	a1,16(s8)
a080bf24:	0c202543 	jal	a080950c <remove_dentry>
a080bf28:	00000000 	nop
a080bf2c:	27c2001c 	addiu	v0,s8,28
a080bf30:	00402021 	move	a0,v0
a080bf34:	0c202496 	jal	a0809258 <sync_to_disk_inode>
a080bf38:	00000000 	nop
a080bf3c:	03c0e821 	move	sp,s8
a080bf40:	8fbf012c 	lw	ra,300(sp)
a080bf44:	8fbe0128 	lw	s8,296(sp)
a080bf48:	8fb10124 	lw	s1,292(sp)
a080bf4c:	8fb00120 	lw	s0,288(sp)
a080bf50:	27bd0130 	addiu	sp,sp,304
a080bf54:	03e00008 	jr	ra
a080bf58:	00000000 	nop

a080bf5c <do_ls>:
a080bf5c:	27bdffd0 	addiu	sp,sp,-48
a080bf60:	afbf002c 	sw	ra,44(sp)
a080bf64:	afbe0028 	sw	s8,40(sp)
a080bf68:	03a0f021 	move	s8,sp
a080bf6c:	afc00018 	sw	zero,24(s8)
a080bf70:	3c02a084 	lui	v0,0xa084
a080bf74:	2444f0f0 	addiu	a0,v0,-3856
a080bf78:	24051000 	li	a1,4096
a080bf7c:	0c203ad3 	jal	a080eb4c <bzero>
a080bf80:	00000000 	nop
a080bf84:	3c02a085 	lui	v0,0xa085
a080bf88:	244492f0 	addiu	a0,v0,-27920
a080bf8c:	24050500 	li	a1,1280
a080bf90:	0c203ad3 	jal	a080eb4c <bzero>
a080bf94:	00000000 	nop
a080bf98:	3c02a084 	lui	v0,0xa084
a080bf9c:	2442f0f0 	addiu	v0,v0,-3856
a080bfa0:	afc20014 	sw	v0,20(s8)
a080bfa4:	afc00020 	sw	zero,32(s8)
a080bfa8:	0820303d 	j	a080c0f4 <do_ls+0x198>
a080bfac:	00000000 	nop
a080bfb0:	3c02a081 	lui	v0,0xa081
a080bfb4:	8c4272d8 	lw	v0,29400(v0)
a080bfb8:	00402021 	move	a0,v0
a080bfbc:	8fc50020 	lw	a1,32(s8)
a080bfc0:	0c2025be 	jal	a08096f8 <get_block_index_in_dir>
a080bfc4:	00000000 	nop
a080bfc8:	afc20010 	sw	v0,16(s8)
a080bfcc:	8fc40010 	lw	a0,16(s8)
a080bfd0:	3c02a084 	lui	v0,0xa084
a080bfd4:	2445f0f0 	addiu	a1,v0,-3856
a080bfd8:	0c202332 	jal	a0808cc8 <read_block>
a080bfdc:	00000000 	nop
a080bfe0:	afc0001c 	sw	zero,28(s8)
a080bfe4:	08203036 	j	a080c0d8 <do_ls+0x17c>
a080bfe8:	00000000 	nop
a080bfec:	8fc2001c 	lw	v0,28(s8)
a080bff0:	000219c0 	sll	v1,v0,0x7
a080bff4:	8fc20014 	lw	v0,20(s8)
a080bff8:	00431021 	addu	v0,v0,v1
a080bffc:	00402021 	move	a0,v0
a080c000:	0c202b8a 	jal	a080ae28 <is_empty_dnetry>
a080c004:	00000000 	nop
a080c008:	14400013 	bnez	v0,a080c058 <do_ls+0xfc>
a080c00c:	00000000 	nop
a080c010:	3c02a085 	lui	v0,0xa085
a080c014:	244392f0 	addiu	v1,v0,-27920
a080c018:	8fc20018 	lw	v0,24(s8)
a080c01c:	000211c0 	sll	v0,v0,0x7
a080c020:	00622021 	addu	a0,v1,v0
a080c024:	8fc30014 	lw	v1,20(s8)
a080c028:	8fc2001c 	lw	v0,28(s8)
a080c02c:	000211c0 	sll	v0,v0,0x7
a080c030:	00621021 	addu	v0,v1,v0
a080c034:	00402821 	move	a1,v0
a080c038:	24060080 	li	a2,128
a080c03c:	0c203a9a 	jal	a080ea68 <memcpy>
a080c040:	00000000 	nop
a080c044:	8fc20018 	lw	v0,24(s8)
a080c048:	24420001 	addiu	v0,v0,1
a080c04c:	afc20018 	sw	v0,24(s8)
a080c050:	08203033 	j	a080c0cc <do_ls+0x170>
a080c054:	00000000 	nop
a080c058:	8fc2001c 	lw	v0,28(s8)
a080c05c:	000219c0 	sll	v1,v0,0x7
a080c060:	8fc20014 	lw	v0,20(s8)
a080c064:	00431021 	addu	v0,v0,v1
a080c068:	00402021 	move	a0,v0
a080c06c:	0c202b8a 	jal	a080ae28 <is_empty_dnetry>
a080c070:	00000000 	nop
a080c074:	10400015 	beqz	v0,a080c0cc <do_ls+0x170>
a080c078:	00000000 	nop
a080c07c:	8fc2001c 	lw	v0,28(s8)
a080c080:	24420001 	addiu	v0,v0,1
a080c084:	000219c0 	sll	v1,v0,0x7
a080c088:	8fc20014 	lw	v0,20(s8)
a080c08c:	00431021 	addu	v0,v0,v1
a080c090:	00402021 	move	a0,v0
a080c094:	0c202b8a 	jal	a080ae28 <is_empty_dnetry>
a080c098:	00000000 	nop
a080c09c:	1040000b 	beqz	v0,a080c0cc <do_ls+0x170>
a080c0a0:	00000000 	nop
a080c0a4:	8fc2001c 	lw	v0,28(s8)
a080c0a8:	24420002 	addiu	v0,v0,2
a080c0ac:	000219c0 	sll	v1,v0,0x7
a080c0b0:	8fc20014 	lw	v0,20(s8)
a080c0b4:	00431021 	addu	v0,v0,v1
a080c0b8:	00402021 	move	a0,v0
a080c0bc:	0c202b8a 	jal	a080ae28 <is_empty_dnetry>
a080c0c0:	00000000 	nop
a080c0c4:	14400011 	bnez	v0,a080c10c <do_ls+0x1b0>
a080c0c8:	00000000 	nop
a080c0cc:	8fc2001c 	lw	v0,28(s8)
a080c0d0:	24420001 	addiu	v0,v0,1
a080c0d4:	afc2001c 	sw	v0,28(s8)
a080c0d8:	8fc2001c 	lw	v0,28(s8)
a080c0dc:	2c420020 	sltiu	v0,v0,32
a080c0e0:	1440ffc2 	bnez	v0,a080bfec <do_ls+0x90>
a080c0e4:	00000000 	nop
a080c0e8:	8fc20020 	lw	v0,32(s8)
a080c0ec:	24420001 	addiu	v0,v0,1
a080c0f0:	afc20020 	sw	v0,32(s8)
a080c0f4:	8fc30020 	lw	v1,32(s8)
a080c0f8:	3c024010 	lui	v0,0x4010
a080c0fc:	3442040c 	ori	v0,v0,0x40c
a080c100:	0062102b 	sltu	v0,v1,v0
a080c104:	1440ffaa 	bnez	v0,a080bfb0 <do_ls+0x54>
a080c108:	00000000 	nop
a080c10c:	03c0e821 	move	sp,s8
a080c110:	8fbf002c 	lw	ra,44(sp)
a080c114:	8fbe0028 	lw	s8,40(sp)
a080c118:	27bd0030 	addiu	sp,sp,48
a080c11c:	03e00008 	jr	ra
a080c120:	00000000 	nop

a080c124 <do_cd>:
a080c124:	27bdfe40 	addiu	sp,sp,-448
a080c128:	afbf01bc 	sw	ra,444(sp)
a080c12c:	afbe01b8 	sw	s8,440(sp)
a080c130:	afb101b4 	sw	s1,436(sp)
a080c134:	afb001b0 	sw	s0,432(sp)
a080c138:	03a0f021 	move	s8,sp
a080c13c:	afc401c0 	sw	a0,448(s8)
a080c140:	3c02a086 	lui	v0,0xa086
a080c144:	2444114c 	addiu	a0,v0,4428
a080c148:	24050200 	li	a1,512
a080c14c:	0c203ad3 	jal	a080eb4c <bzero>
a080c150:	00000000 	nop
a080c154:	3c02a087 	lui	v0,0xa087
a080c158:	2444b9cc 	addiu	a0,v0,-17972
a080c15c:	24050200 	li	a1,512
a080c160:	0c203ad3 	jal	a080eb4c <bzero>
a080c164:	00000000 	nop
a080c168:	3c02a087 	lui	v0,0xa087
a080c16c:	2444bbcc 	addiu	a0,v0,-17460
a080c170:	24050200 	li	a1,512
a080c174:	0c203ad3 	jal	a080eb4c <bzero>
a080c178:	00000000 	nop
a080c17c:	3c02a087 	lui	v0,0xa087
a080c180:	2444b7cc 	addiu	a0,v0,-18484
a080c184:	24050200 	li	a1,512
a080c188:	0c203ad3 	jal	a080eb4c <bzero>
a080c18c:	00000000 	nop
a080c190:	3c02a086 	lui	v0,0xa086
a080c194:	2444108c 	addiu	a0,v0,4236
a080c198:	24050040 	li	a1,64
a080c19c:	0c203ad3 	jal	a080eb4c <bzero>
a080c1a0:	00000000 	nop
a080c1a4:	3c02a086 	lui	v0,0xa086
a080c1a8:	2450114c 	addiu	s0,v0,4428
a080c1ac:	8fd101c0 	lw	s1,448(s8)
a080c1b0:	8fc401c0 	lw	a0,448(s8)
a080c1b4:	0c203a84 	jal	a080ea10 <strlen>
a080c1b8:	00000000 	nop
a080c1bc:	02002021 	move	a0,s0
a080c1c0:	02202821 	move	a1,s1
a080c1c4:	00403021 	move	a2,v0
a080c1c8:	0c203a9a 	jal	a080ea68 <memcpy>
a080c1cc:	00000000 	nop
a080c1d0:	8fc401c0 	lw	a0,448(s8)
a080c1d4:	0c203a84 	jal	a080ea10 <strlen>
a080c1d8:	00000000 	nop
a080c1dc:	00401821 	move	v1,v0
a080c1e0:	3c02a087 	lui	v0,0xa087
a080c1e4:	2442b9cc 	addiu	v0,v0,-17972
a080c1e8:	00621021 	addu	v0,v1,v0
a080c1ec:	a0400000 	sb	zero,0(v0)
a080c1f0:	2402002f 	li	v0,47
a080c1f4:	a3c20028 	sb	v0,40(s8)
a080c1f8:	83c20028 	lb	v0,40(s8)
a080c1fc:	00402021 	move	a0,v0
a080c200:	3c02a086 	lui	v0,0xa086
a080c204:	2445114c 	addiu	a1,v0,4428
a080c208:	0c202428 	jal	a08090a0 <count_char_in_string>
a080c20c:	00000000 	nop
a080c210:	1440001b 	bnez	v0,a080c280 <do_cd+0x15c>
a080c214:	00000000 	nop
a080c218:	3c02a081 	lui	v0,0xa081
a080c21c:	8c4272d8 	lw	v0,29400(v0)
a080c220:	00402021 	move	a0,v0
a080c224:	8fc501c0 	lw	a1,448(s8)
a080c228:	0c202893 	jal	a080a24c <find_file>
a080c22c:	00000000 	nop
a080c230:	afc20024 	sw	v0,36(s8)
a080c234:	8fc30024 	lw	v1,36(s8)
a080c238:	2402ffff 	li	v0,-1
a080c23c:	106200bb 	beq	v1,v0,a080c52c <do_cd+0x408>
a080c240:	00000000 	nop
a080c244:	27c200ac 	addiu	v0,s8,172
a080c248:	8fc40024 	lw	a0,36(s8)
a080c24c:	00402821 	move	a1,v0
a080c250:	0c202479 	jal	a08091e4 <sync_from_disk_inode>
a080c254:	00000000 	nop
a080c258:	3c02a081 	lui	v0,0xa081
a080c25c:	8c4272d8 	lw	v0,29400(v0)
a080c260:	27c300ac 	addiu	v1,s8,172
a080c264:	00402021 	move	a0,v0
a080c268:	00602821 	move	a1,v1
a080c26c:	24060080 	li	a2,128
a080c270:	0c203a9a 	jal	a080ea68 <memcpy>
a080c274:	00000000 	nop
a080c278:	0820314b 	j	a080c52c <do_cd+0x408>
a080c27c:	00000000 	nop
a080c280:	83c20028 	lb	v0,40(s8)
a080c284:	00402021 	move	a0,v0
a080c288:	3c02a086 	lui	v0,0xa086
a080c28c:	2445114c 	addiu	a1,v0,4428
a080c290:	0c202428 	jal	a08090a0 <count_char_in_string>
a080c294:	00000000 	nop
a080c298:	00401821 	move	v1,v0
a080c29c:	24020001 	li	v0,1
a080c2a0:	1462003d 	bne	v1,v0,a080c398 <do_cd+0x274>
a080c2a4:	00000000 	nop
a080c2a8:	3c02a086 	lui	v0,0xa086
a080c2ac:	2444114c 	addiu	a0,v0,4428
a080c2b0:	3c02a087 	lui	v0,0xa087
a080c2b4:	2445b9cc 	addiu	a1,v0,-17972
a080c2b8:	3c02a086 	lui	v0,0xa086
a080c2bc:	2446108c 	addiu	a2,v0,4236
a080c2c0:	0c20258f 	jal	a080963c <separate_path>
a080c2c4:	00000000 	nop
a080c2c8:	3c02a081 	lui	v0,0xa081
a080c2cc:	8c4272d8 	lw	v0,29400(v0)
a080c2d0:	00402021 	move	a0,v0
a080c2d4:	3c02a087 	lui	v0,0xa087
a080c2d8:	2445b9cc 	addiu	a1,v0,-17972
a080c2dc:	0c202893 	jal	a080a24c <find_file>
a080c2e0:	00000000 	nop
a080c2e4:	afc20020 	sw	v0,32(s8)
a080c2e8:	8fc30020 	lw	v1,32(s8)
a080c2ec:	2402ffff 	li	v0,-1
a080c2f0:	1062008e 	beq	v1,v0,a080c52c <do_cd+0x408>
a080c2f4:	00000000 	nop
a080c2f8:	27c200ac 	addiu	v0,s8,172
a080c2fc:	8fc40020 	lw	a0,32(s8)
a080c300:	00402821 	move	a1,v0
a080c304:	0c202479 	jal	a08091e4 <sync_from_disk_inode>
a080c308:	00000000 	nop
a080c30c:	3c02a081 	lui	v0,0xa081
a080c310:	8c4272d8 	lw	v0,29400(v0)
a080c314:	27c300ac 	addiu	v1,s8,172
a080c318:	00402021 	move	a0,v0
a080c31c:	00602821 	move	a1,v1
a080c320:	24060080 	li	a2,128
a080c324:	0c203a9a 	jal	a080ea68 <memcpy>
a080c328:	00000000 	nop
a080c32c:	3c02a081 	lui	v0,0xa081
a080c330:	8c4272d8 	lw	v0,29400(v0)
a080c334:	00402021 	move	a0,v0
a080c338:	3c02a086 	lui	v0,0xa086
a080c33c:	2445108c 	addiu	a1,v0,4236
a080c340:	0c202893 	jal	a080a24c <find_file>
a080c344:	00000000 	nop
a080c348:	afc2001c 	sw	v0,28(s8)
a080c34c:	8fc3001c 	lw	v1,28(s8)
a080c350:	2402ffff 	li	v0,-1
a080c354:	10620075 	beq	v1,v0,a080c52c <do_cd+0x408>
a080c358:	00000000 	nop
a080c35c:	27c2002c 	addiu	v0,s8,44
a080c360:	8fc4001c 	lw	a0,28(s8)
a080c364:	00402821 	move	a1,v0
a080c368:	0c202479 	jal	a08091e4 <sync_from_disk_inode>
a080c36c:	00000000 	nop
a080c370:	3c02a081 	lui	v0,0xa081
a080c374:	8c4272d8 	lw	v0,29400(v0)
a080c378:	27c3002c 	addiu	v1,s8,44
a080c37c:	00402021 	move	a0,v0
a080c380:	00602821 	move	a1,v1
a080c384:	24060080 	li	a2,128
a080c388:	0c203a9a 	jal	a080ea68 <memcpy>
a080c38c:	00000000 	nop
a080c390:	0820314b 	j	a080c52c <do_cd+0x408>
a080c394:	00000000 	nop
a080c398:	83c20028 	lb	v0,40(s8)
a080c39c:	00402021 	move	a0,v0
a080c3a0:	3c02a086 	lui	v0,0xa086
a080c3a4:	2445114c 	addiu	a1,v0,4428
a080c3a8:	0c202428 	jal	a08090a0 <count_char_in_string>
a080c3ac:	00000000 	nop
a080c3b0:	00401821 	move	v1,v0
a080c3b4:	24020002 	li	v0,2
a080c3b8:	1462005c 	bne	v1,v0,a080c52c <do_cd+0x408>
a080c3bc:	00000000 	nop
a080c3c0:	3c02a086 	lui	v0,0xa086
a080c3c4:	2444114c 	addiu	a0,v0,4428
a080c3c8:	3c02a087 	lui	v0,0xa087
a080c3cc:	2445b9cc 	addiu	a1,v0,-17972
a080c3d0:	3c02a086 	lui	v0,0xa086
a080c3d4:	2446108c 	addiu	a2,v0,4236
a080c3d8:	0c20258f 	jal	a080963c <separate_path>
a080c3dc:	00000000 	nop
a080c3e0:	3c02a087 	lui	v0,0xa087
a080c3e4:	2444b9cc 	addiu	a0,v0,-17972
a080c3e8:	3c02a087 	lui	v0,0xa087
a080c3ec:	2445bbcc 	addiu	a1,v0,-17460
a080c3f0:	3c02a087 	lui	v0,0xa087
a080c3f4:	2446b7cc 	addiu	a2,v0,-18484
a080c3f8:	0c20258f 	jal	a080963c <separate_path>
a080c3fc:	00000000 	nop
a080c400:	3c02a081 	lui	v0,0xa081
a080c404:	8c4272d8 	lw	v0,29400(v0)
a080c408:	00402021 	move	a0,v0
a080c40c:	3c02a087 	lui	v0,0xa087
a080c410:	2445bbcc 	addiu	a1,v0,-17460
a080c414:	0c202893 	jal	a080a24c <find_file>
a080c418:	00000000 	nop
a080c41c:	afc20018 	sw	v0,24(s8)
a080c420:	8fc30018 	lw	v1,24(s8)
a080c424:	2402ffff 	li	v0,-1
a080c428:	10620040 	beq	v1,v0,a080c52c <do_cd+0x408>
a080c42c:	00000000 	nop
a080c430:	27c2002c 	addiu	v0,s8,44
a080c434:	8fc40018 	lw	a0,24(s8)
a080c438:	00402821 	move	a1,v0
a080c43c:	0c202479 	jal	a08091e4 <sync_from_disk_inode>
a080c440:	00000000 	nop
a080c444:	3c02a081 	lui	v0,0xa081
a080c448:	8c4272d8 	lw	v0,29400(v0)
a080c44c:	27c3002c 	addiu	v1,s8,44
a080c450:	00402021 	move	a0,v0
a080c454:	00602821 	move	a1,v1
a080c458:	24060080 	li	a2,128
a080c45c:	0c203a9a 	jal	a080ea68 <memcpy>
a080c460:	00000000 	nop
a080c464:	3c02a081 	lui	v0,0xa081
a080c468:	8c4272d8 	lw	v0,29400(v0)
a080c46c:	00402021 	move	a0,v0
a080c470:	3c02a087 	lui	v0,0xa087
a080c474:	2445b7cc 	addiu	a1,v0,-18484
a080c478:	0c202893 	jal	a080a24c <find_file>
a080c47c:	00000000 	nop
a080c480:	afc20014 	sw	v0,20(s8)
a080c484:	8fc30014 	lw	v1,20(s8)
a080c488:	2402ffff 	li	v0,-1
a080c48c:	10620027 	beq	v1,v0,a080c52c <do_cd+0x408>
a080c490:	00000000 	nop
a080c494:	27c200ac 	addiu	v0,s8,172
a080c498:	8fc40014 	lw	a0,20(s8)
a080c49c:	00402821 	move	a1,v0
a080c4a0:	0c202479 	jal	a08091e4 <sync_from_disk_inode>
a080c4a4:	00000000 	nop
a080c4a8:	3c02a081 	lui	v0,0xa081
a080c4ac:	8c4272d8 	lw	v0,29400(v0)
a080c4b0:	27c300ac 	addiu	v1,s8,172
a080c4b4:	00402021 	move	a0,v0
a080c4b8:	00602821 	move	a1,v1
a080c4bc:	24060080 	li	a2,128
a080c4c0:	0c203a9a 	jal	a080ea68 <memcpy>
a080c4c4:	00000000 	nop
a080c4c8:	3c02a081 	lui	v0,0xa081
a080c4cc:	8c4272d8 	lw	v0,29400(v0)
a080c4d0:	00402021 	move	a0,v0
a080c4d4:	3c02a086 	lui	v0,0xa086
a080c4d8:	2445108c 	addiu	a1,v0,4236
a080c4dc:	0c202893 	jal	a080a24c <find_file>
a080c4e0:	00000000 	nop
a080c4e4:	afc20010 	sw	v0,16(s8)
a080c4e8:	8fc30010 	lw	v1,16(s8)
a080c4ec:	2402ffff 	li	v0,-1
a080c4f0:	1062000e 	beq	v1,v0,a080c52c <do_cd+0x408>
a080c4f4:	00000000 	nop
a080c4f8:	27c2012c 	addiu	v0,s8,300
a080c4fc:	8fc40010 	lw	a0,16(s8)
a080c500:	00402821 	move	a1,v0
a080c504:	0c202479 	jal	a08091e4 <sync_from_disk_inode>
a080c508:	00000000 	nop
a080c50c:	3c02a081 	lui	v0,0xa081
a080c510:	8c4272d8 	lw	v0,29400(v0)
a080c514:	27c3012c 	addiu	v1,s8,300
a080c518:	00402021 	move	a0,v0
a080c51c:	00602821 	move	a1,v1
a080c520:	24060080 	li	a2,128
a080c524:	0c203a9a 	jal	a080ea68 <memcpy>
a080c528:	00000000 	nop
a080c52c:	03c0e821 	move	sp,s8
a080c530:	8fbf01bc 	lw	ra,444(sp)
a080c534:	8fbe01b8 	lw	s8,440(sp)
a080c538:	8fb101b4 	lw	s1,436(sp)
a080c53c:	8fb001b0 	lw	s0,432(sp)
a080c540:	27bd01c0 	addiu	sp,sp,448
a080c544:	03e00008 	jr	ra
a080c548:	00000000 	nop

a080c54c <is_empty_fd>:
a080c54c:	27bdfff0 	addiu	sp,sp,-16
a080c550:	afbe000c 	sw	s8,12(sp)
a080c554:	03a0f021 	move	s8,sp
a080c558:	afc40010 	sw	a0,16(s8)
a080c55c:	8fc20010 	lw	v0,16(s8)
a080c560:	8c420000 	lw	v0,0(v0)
a080c564:	14400011 	bnez	v0,a080c5ac <is_empty_fd+0x60>
a080c568:	00000000 	nop
a080c56c:	8fc20010 	lw	v0,16(s8)
a080c570:	8c420004 	lw	v0,4(v0)
a080c574:	1440000d 	bnez	v0,a080c5ac <is_empty_fd+0x60>
a080c578:	00000000 	nop
a080c57c:	8fc20010 	lw	v0,16(s8)
a080c580:	8c420008 	lw	v0,8(v0)
a080c584:	14400009 	bnez	v0,a080c5ac <is_empty_fd+0x60>
a080c588:	00000000 	nop
a080c58c:	8fc20010 	lw	v0,16(s8)
a080c590:	8c42000c 	lw	v0,12(v0)
a080c594:	14400005 	bnez	v0,a080c5ac <is_empty_fd+0x60>
a080c598:	00000000 	nop
a080c59c:	24020001 	li	v0,1
a080c5a0:	afc20000 	sw	v0,0(s8)
a080c5a4:	0820316c 	j	a080c5b0 <is_empty_fd+0x64>
a080c5a8:	00000000 	nop
a080c5ac:	afc00000 	sw	zero,0(s8)
a080c5b0:	8fc20000 	lw	v0,0(s8)
a080c5b4:	03c0e821 	move	sp,s8
a080c5b8:	8fbe000c 	lw	s8,12(sp)
a080c5bc:	27bd0010 	addiu	sp,sp,16
a080c5c0:	03e00008 	jr	ra
a080c5c4:	00000000 	nop

a080c5c8 <do_fopen>:
a080c5c8:	27bdfec8 	addiu	sp,sp,-312
a080c5cc:	afbf0134 	sw	ra,308(sp)
a080c5d0:	afbe0130 	sw	s8,304(sp)
a080c5d4:	03a0f021 	move	s8,sp
a080c5d8:	afc40138 	sw	a0,312(s8)
a080c5dc:	afc5013c 	sw	a1,316(s8)
a080c5e0:	3c02a087 	lui	v0,0xa087
a080c5e4:	2444b9cc 	addiu	a0,v0,-17972
a080c5e8:	24050200 	li	a1,512
a080c5ec:	0c203ad3 	jal	a080eb4c <bzero>
a080c5f0:	00000000 	nop
a080c5f4:	3c02a086 	lui	v0,0xa086
a080c5f8:	2444114c 	addiu	a0,v0,4428
a080c5fc:	24050200 	li	a1,512
a080c600:	0c203ad3 	jal	a080eb4c <bzero>
a080c604:	00000000 	nop
a080c608:	3c02a086 	lui	v0,0xa086
a080c60c:	2444108c 	addiu	a0,v0,4236
a080c610:	24050040 	li	a1,64
a080c614:	0c203ad3 	jal	a080eb4c <bzero>
a080c618:	00000000 	nop
a080c61c:	3c02a081 	lui	v0,0xa081
a080c620:	24425d10 	addiu	v0,v0,23824
a080c624:	afc20020 	sw	v0,32(s8)
a080c628:	3c02a086 	lui	v0,0xa086
a080c62c:	2444114c 	addiu	a0,v0,4428
a080c630:	8fc50020 	lw	a1,32(s8)
a080c634:	0c203b1a 	jal	a080ec68 <strcpy>
a080c638:	00000000 	nop
a080c63c:	3c02a086 	lui	v0,0xa086
a080c640:	2444114e 	addiu	a0,v0,4430
a080c644:	8fc50138 	lw	a1,312(s8)
a080c648:	0c203b1a 	jal	a080ec68 <strcpy>
a080c64c:	00000000 	nop
a080c650:	3c02a086 	lui	v0,0xa086
a080c654:	2444114c 	addiu	a0,v0,4428
a080c658:	3c02a087 	lui	v0,0xa087
a080c65c:	2445b9cc 	addiu	a1,v0,-17972
a080c660:	3c02a086 	lui	v0,0xa086
a080c664:	2446108c 	addiu	a2,v0,4236
a080c668:	0c20258f 	jal	a080963c <separate_path>
a080c66c:	00000000 	nop
a080c670:	afc0001c 	sw	zero,28(s8)
a080c674:	3c02a081 	lui	v0,0xa081
a080c678:	8c4272d8 	lw	v0,29400(v0)
a080c67c:	00402021 	move	a0,v0
a080c680:	3c02a087 	lui	v0,0xa087
a080c684:	2445b9cc 	addiu	a1,v0,-17972
a080c688:	0c202893 	jal	a080a24c <find_file>
a080c68c:	00000000 	nop
a080c690:	afc2001c 	sw	v0,28(s8)
a080c694:	27c20024 	addiu	v0,s8,36
a080c698:	8fc4001c 	lw	a0,28(s8)
a080c69c:	00402821 	move	a1,v0
a080c6a0:	0c202479 	jal	a08091e4 <sync_from_disk_inode>
a080c6a4:	00000000 	nop
a080c6a8:	afc00018 	sw	zero,24(s8)
a080c6ac:	27c20024 	addiu	v0,s8,36
a080c6b0:	00402021 	move	a0,v0
a080c6b4:	3c02a086 	lui	v0,0xa086
a080c6b8:	2445108c 	addiu	a1,v0,4236
a080c6bc:	0c202893 	jal	a080a24c <find_file>
a080c6c0:	00000000 	nop
a080c6c4:	afc20018 	sw	v0,24(s8)
a080c6c8:	27c200a4 	addiu	v0,s8,164
a080c6cc:	8fc40018 	lw	a0,24(s8)
a080c6d0:	00402821 	move	a1,v0
a080c6d4:	0c202479 	jal	a08091e4 <sync_from_disk_inode>
a080c6d8:	00000000 	nop
a080c6dc:	afc00014 	sw	zero,20(s8)
a080c6e0:	082031ca 	j	a080c728 <do_fopen+0x160>
a080c6e4:	00000000 	nop
a080c6e8:	8fc20014 	lw	v0,20(s8)
a080c6ec:	3c03a086 	lui	v1,0xa086
a080c6f0:	00022140 	sll	a0,v0,0x5
a080c6f4:	2462134c 	addiu	v0,v1,4940
a080c6f8:	00821021 	addu	v0,a0,v0
a080c6fc:	8c430000 	lw	v1,0(v0)
a080c700:	8fc20018 	lw	v0,24(s8)
a080c704:	14620005 	bne	v1,v0,a080c71c <do_fopen+0x154>
a080c708:	00000000 	nop
a080c70c:	8fc20014 	lw	v0,20(s8)
a080c710:	afc20128 	sw	v0,296(s8)
a080c714:	08203202 	j	a080c808 <do_fopen+0x240>
a080c718:	00000000 	nop
a080c71c:	8fc20014 	lw	v0,20(s8)
a080c720:	24420001 	addiu	v0,v0,1
a080c724:	afc20014 	sw	v0,20(s8)
a080c728:	8fc20014 	lw	v0,20(s8)
a080c72c:	28420020 	slti	v0,v0,32
a080c730:	1440ffed 	bnez	v0,a080c6e8 <do_fopen+0x120>
a080c734:	00000000 	nop
a080c738:	afc00010 	sw	zero,16(s8)
a080c73c:	8fc30014 	lw	v1,20(s8)
a080c740:	24020020 	li	v0,32
a080c744:	1462002e 	bne	v1,v0,a080c800 <do_fopen+0x238>
a080c748:	00000000 	nop
a080c74c:	082031d8 	j	a080c760 <do_fopen+0x198>
a080c750:	00000000 	nop
a080c754:	8fc20010 	lw	v0,16(s8)
a080c758:	24420001 	addiu	v0,v0,1
a080c75c:	afc20010 	sw	v0,16(s8)
a080c760:	8fc20010 	lw	v0,16(s8)
a080c764:	00021940 	sll	v1,v0,0x5
a080c768:	3c02a086 	lui	v0,0xa086
a080c76c:	2442134c 	addiu	v0,v0,4940
a080c770:	00621021 	addu	v0,v1,v0
a080c774:	00402021 	move	a0,v0
a080c778:	0c203153 	jal	a080c54c <is_empty_fd>
a080c77c:	00000000 	nop
a080c780:	1040fff4 	beqz	v0,a080c754 <do_fopen+0x18c>
a080c784:	00000000 	nop
a080c788:	8fc20010 	lw	v0,16(s8)
a080c78c:	3c03a086 	lui	v1,0xa086
a080c790:	00022140 	sll	a0,v0,0x5
a080c794:	2462134c 	addiu	v0,v1,4940
a080c798:	00821821 	addu	v1,a0,v0
a080c79c:	8fc20018 	lw	v0,24(s8)
a080c7a0:	ac620000 	sw	v0,0(v1)
a080c7a4:	8fc40010 	lw	a0,16(s8)
a080c7a8:	3c02a086 	lui	v0,0xa086
a080c7ac:	2443134c 	addiu	v1,v0,4940
a080c7b0:	00041140 	sll	v0,a0,0x5
a080c7b4:	00621021 	addu	v0,v1,v0
a080c7b8:	8fc3013c 	lw	v1,316(s8)
a080c7bc:	ac430004 	sw	v1,4(v0)
a080c7c0:	8fc20010 	lw	v0,16(s8)
a080c7c4:	3c04a086 	lui	a0,0xa086
a080c7c8:	00021080 	sll	v0,v0,0x2
a080c7cc:	24420001 	addiu	v0,v0,1
a080c7d0:	000218c0 	sll	v1,v0,0x3
a080c7d4:	2482134c 	addiu	v0,a0,4940
a080c7d8:	00621021 	addu	v0,v1,v0
a080c7dc:	ac400000 	sw	zero,0(v0)
a080c7e0:	8fc20010 	lw	v0,16(s8)
a080c7e4:	3c03a086 	lui	v1,0xa086
a080c7e8:	00021080 	sll	v0,v0,0x2
a080c7ec:	24420001 	addiu	v0,v0,1
a080c7f0:	2463134c 	addiu	v1,v1,4940
a080c7f4:	000210c0 	sll	v0,v0,0x3
a080c7f8:	00621021 	addu	v0,v1,v0
a080c7fc:	ac400004 	sw	zero,4(v0)
a080c800:	8fc20010 	lw	v0,16(s8)
a080c804:	afc20128 	sw	v0,296(s8)
a080c808:	8fc20128 	lw	v0,296(s8)
a080c80c:	03c0e821 	move	sp,s8
a080c810:	8fbf0134 	lw	ra,308(sp)
a080c814:	8fbe0130 	lw	s8,304(sp)
a080c818:	27bd0138 	addiu	sp,sp,312
a080c81c:	03e00008 	jr	ra
a080c820:	00000000 	nop

a080c824 <do_fwrite>:
a080c824:	27bdff40 	addiu	sp,sp,-192
a080c828:	afbf00bc 	sw	ra,188(sp)
a080c82c:	afbe00b8 	sw	s8,184(sp)
a080c830:	03a0f021 	move	s8,sp
a080c834:	afc400c0 	sw	a0,192(s8)
a080c838:	afc500c4 	sw	a1,196(s8)
a080c83c:	afc600c8 	sw	a2,200(s8)
a080c840:	3c02a086 	lui	v0,0xa086
a080c844:	244467cc 	addiu	a0,v0,26572
a080c848:	24055000 	li	a1,20480
a080c84c:	0c203ad3 	jal	a080eb4c <bzero>
a080c850:	00000000 	nop
a080c854:	8fc200c0 	lw	v0,192(s8)
a080c858:	3c03a086 	lui	v1,0xa086
a080c85c:	00021080 	sll	v0,v0,0x2
a080c860:	24420001 	addiu	v0,v0,1
a080c864:	2463134c 	addiu	v1,v1,4940
a080c868:	000210c0 	sll	v0,v0,0x3
a080c86c:	00621021 	addu	v0,v1,v0
a080c870:	8c420004 	lw	v0,4(v0)
a080c874:	00021302 	srl	v0,v0,0xc
a080c878:	afc20034 	sw	v0,52(s8)
a080c87c:	8fc200c0 	lw	v0,192(s8)
a080c880:	3c03a086 	lui	v1,0xa086
a080c884:	00021080 	sll	v0,v0,0x2
a080c888:	24420001 	addiu	v0,v0,1
a080c88c:	2463134c 	addiu	v1,v1,4940
a080c890:	000210c0 	sll	v0,v0,0x3
a080c894:	00621021 	addu	v0,v1,v0
a080c898:	8c430004 	lw	v1,4(v0)
a080c89c:	8fc200c8 	lw	v0,200(s8)
a080c8a0:	00621021 	addu	v0,v1,v0
a080c8a4:	00021302 	srl	v0,v0,0xc
a080c8a8:	afc20030 	sw	v0,48(s8)
a080c8ac:	8fc30030 	lw	v1,48(s8)
a080c8b0:	8fc20034 	lw	v0,52(s8)
a080c8b4:	00621023 	subu	v0,v1,v0
a080c8b8:	afc2002c 	sw	v0,44(s8)
a080c8bc:	8fc200c0 	lw	v0,192(s8)
a080c8c0:	3c03a086 	lui	v1,0xa086
a080c8c4:	00022140 	sll	a0,v0,0x5
a080c8c8:	2462134c 	addiu	v0,v1,4940
a080c8cc:	00821021 	addu	v0,a0,v0
a080c8d0:	8c420000 	lw	v0,0(v0)
a080c8d4:	27c30038 	addiu	v1,s8,56
a080c8d8:	00402021 	move	a0,v0
a080c8dc:	00602821 	move	a1,v1
a080c8e0:	0c202479 	jal	a08091e4 <sync_from_disk_inode>
a080c8e4:	00000000 	nop
a080c8e8:	8fc200c0 	lw	v0,192(s8)
a080c8ec:	3c03a086 	lui	v1,0xa086
a080c8f0:	00021080 	sll	v0,v0,0x2
a080c8f4:	24420001 	addiu	v0,v0,1
a080c8f8:	2463134c 	addiu	v1,v1,4940
a080c8fc:	000210c0 	sll	v0,v0,0x3
a080c900:	00621021 	addu	v0,v1,v0
a080c904:	8c420004 	lw	v0,4(v0)
a080c908:	14400032 	bnez	v0,a080c9d4 <do_fwrite+0x1b0>
a080c90c:	00000000 	nop
a080c910:	afc0001c 	sw	zero,28(s8)
a080c914:	0820326e 	j	a080c9b8 <do_fwrite+0x194>
a080c918:	00000000 	nop
a080c91c:	0c2029d1 	jal	a080a744 <find_free_block>
a080c920:	00000000 	nop
a080c924:	afc20018 	sw	v0,24(s8)
a080c928:	8fc40018 	lw	a0,24(s8)
a080c92c:	0c202294 	jal	a0808a50 <set_block_bmp>
a080c930:	00000000 	nop
a080c934:	0c202357 	jal	a0808d5c <sync_to_disk_block_bmp>
a080c938:	00000000 	nop
a080c93c:	3c02a081 	lui	v0,0xa081
a080c940:	8c4372d0 	lw	v1,29392(v0)
a080c944:	8c620018 	lw	v0,24(v1)
a080c948:	2442ffff 	addiu	v0,v0,-1
a080c94c:	ac620018 	sw	v0,24(v1)
a080c950:	0c202377 	jal	a0808ddc <sync_to_disk_superblock>
a080c954:	00000000 	nop
a080c958:	8fc40018 	lw	a0,24(s8)
a080c95c:	0c20244b 	jal	a080912c <clear_block_index>
a080c960:	00000000 	nop
a080c964:	8fc20018 	lw	v0,24(s8)
a080c968:	afc20080 	sw	v0,128(s8)
a080c96c:	8fc2003c 	lw	v0,60(s8)
a080c970:	24421000 	addiu	v0,v0,4096
a080c974:	afc2003c 	sw	v0,60(s8)
a080c978:	8fc3001c 	lw	v1,28(s8)
a080c97c:	8fc20034 	lw	v0,52(s8)
a080c980:	00621021 	addu	v0,v1,v0
a080c984:	24420006 	addiu	v0,v0,6
a080c988:	00021080 	sll	v0,v0,0x2
a080c98c:	27c30010 	addiu	v1,s8,16
a080c990:	00621021 	addu	v0,v1,v0
a080c994:	8fc30018 	lw	v1,24(s8)
a080c998:	ac430028 	sw	v1,40(v0)
a080c99c:	27c20038 	addiu	v0,s8,56
a080c9a0:	00402021 	move	a0,v0
a080c9a4:	0c202496 	jal	a0809258 <sync_to_disk_inode>
a080c9a8:	00000000 	nop
a080c9ac:	8fc2001c 	lw	v0,28(s8)
a080c9b0:	24420001 	addiu	v0,v0,1
a080c9b4:	afc2001c 	sw	v0,28(s8)
a080c9b8:	8fc2001c 	lw	v0,28(s8)
a080c9bc:	8fc3002c 	lw	v1,44(s8)
a080c9c0:	0062102b 	sltu	v0,v1,v0
a080c9c4:	1040ffd5 	beqz	v0,a080c91c <do_fwrite+0xf8>
a080c9c8:	00000000 	nop
a080c9cc:	082032a8 	j	a080caa0 <do_fwrite+0x27c>
a080c9d0:	00000000 	nop
a080c9d4:	8fc2002c 	lw	v0,44(s8)
a080c9d8:	10400031 	beqz	v0,a080caa0 <do_fwrite+0x27c>
a080c9dc:	00000000 	nop
a080c9e0:	24020001 	li	v0,1
a080c9e4:	afc20014 	sw	v0,20(s8)
a080c9e8:	082032a3 	j	a080ca8c <do_fwrite+0x268>
a080c9ec:	00000000 	nop
a080c9f0:	0c2029d1 	jal	a080a744 <find_free_block>
a080c9f4:	00000000 	nop
a080c9f8:	afc20010 	sw	v0,16(s8)
a080c9fc:	8fc40010 	lw	a0,16(s8)
a080ca00:	0c202294 	jal	a0808a50 <set_block_bmp>
a080ca04:	00000000 	nop
a080ca08:	0c202357 	jal	a0808d5c <sync_to_disk_block_bmp>
a080ca0c:	00000000 	nop
a080ca10:	3c02a081 	lui	v0,0xa081
a080ca14:	8c4372d0 	lw	v1,29392(v0)
a080ca18:	8c620018 	lw	v0,24(v1)
a080ca1c:	2442ffff 	addiu	v0,v0,-1
a080ca20:	ac620018 	sw	v0,24(v1)
a080ca24:	0c202377 	jal	a0808ddc <sync_to_disk_superblock>
a080ca28:	00000000 	nop
a080ca2c:	8fc40010 	lw	a0,16(s8)
a080ca30:	0c20244b 	jal	a080912c <clear_block_index>
a080ca34:	00000000 	nop
a080ca38:	8fc20010 	lw	v0,16(s8)
a080ca3c:	afc20080 	sw	v0,128(s8)
a080ca40:	8fc2003c 	lw	v0,60(s8)
a080ca44:	24421000 	addiu	v0,v0,4096
a080ca48:	afc2003c 	sw	v0,60(s8)
a080ca4c:	8fc30014 	lw	v1,20(s8)
a080ca50:	8fc20034 	lw	v0,52(s8)
a080ca54:	00621021 	addu	v0,v1,v0
a080ca58:	24420006 	addiu	v0,v0,6
a080ca5c:	00021080 	sll	v0,v0,0x2
a080ca60:	27c30010 	addiu	v1,s8,16
a080ca64:	00621021 	addu	v0,v1,v0
a080ca68:	8fc30010 	lw	v1,16(s8)
a080ca6c:	ac430028 	sw	v1,40(v0)
a080ca70:	27c20038 	addiu	v0,s8,56
a080ca74:	00402021 	move	a0,v0
a080ca78:	0c202496 	jal	a0809258 <sync_to_disk_inode>
a080ca7c:	00000000 	nop
a080ca80:	8fc20014 	lw	v0,20(s8)
a080ca84:	24420001 	addiu	v0,v0,1
a080ca88:	afc20014 	sw	v0,20(s8)
a080ca8c:	8fc20014 	lw	v0,20(s8)
a080ca90:	8fc3002c 	lw	v1,44(s8)
a080ca94:	0062102b 	sltu	v0,v1,v0
a080ca98:	1040ffd5 	beqz	v0,a080c9f0 <do_fwrite+0x1cc>
a080ca9c:	00000000 	nop
a080caa0:	27c20038 	addiu	v0,s8,56
a080caa4:	00402021 	move	a0,v0
a080caa8:	8fc50034 	lw	a1,52(s8)
a080caac:	0c2025be 	jal	a08096f8 <get_block_index_in_dir>
a080cab0:	00000000 	nop
a080cab4:	afc20028 	sw	v0,40(s8)
a080cab8:	27c20038 	addiu	v0,s8,56
a080cabc:	00402021 	move	a0,v0
a080cac0:	8fc50030 	lw	a1,48(s8)
a080cac4:	0c2025be 	jal	a08096f8 <get_block_index_in_dir>
a080cac8:	00000000 	nop
a080cacc:	afc20024 	sw	v0,36(s8)
a080cad0:	afc00020 	sw	zero,32(s8)
a080cad4:	8fc20028 	lw	v0,40(s8)
a080cad8:	afc20020 	sw	v0,32(s8)
a080cadc:	082032c7 	j	a080cb1c <do_fwrite+0x2f8>
a080cae0:	00000000 	nop
a080cae4:	8fc40020 	lw	a0,32(s8)
a080cae8:	8fc30020 	lw	v1,32(s8)
a080caec:	8fc20028 	lw	v0,40(s8)
a080caf0:	00621023 	subu	v0,v1,v0
a080caf4:	00021b00 	sll	v1,v0,0xc
a080caf8:	3c02a086 	lui	v0,0xa086
a080cafc:	244267cc 	addiu	v0,v0,26572
a080cb00:	00621021 	addu	v0,v1,v0
a080cb04:	00402821 	move	a1,v0
a080cb08:	0c202332 	jal	a0808cc8 <read_block>
a080cb0c:	00000000 	nop
a080cb10:	8fc20020 	lw	v0,32(s8)
a080cb14:	24420001 	addiu	v0,v0,1
a080cb18:	afc20020 	sw	v0,32(s8)
a080cb1c:	8fc20020 	lw	v0,32(s8)
a080cb20:	8fc30024 	lw	v1,36(s8)
a080cb24:	0062102b 	sltu	v0,v1,v0
a080cb28:	1040ffee 	beqz	v0,a080cae4 <do_fwrite+0x2c0>
a080cb2c:	00000000 	nop
a080cb30:	8fc200c0 	lw	v0,192(s8)
a080cb34:	3c03a086 	lui	v1,0xa086
a080cb38:	00021080 	sll	v0,v0,0x2
a080cb3c:	24420001 	addiu	v0,v0,1
a080cb40:	2463134c 	addiu	v1,v1,4940
a080cb44:	000210c0 	sll	v0,v0,0x3
a080cb48:	00621021 	addu	v0,v1,v0
a080cb4c:	8c420004 	lw	v0,4(v0)
a080cb50:	30430fff 	andi	v1,v0,0xfff
a080cb54:	3c02a086 	lui	v0,0xa086
a080cb58:	244267cc 	addiu	v0,v0,26572
a080cb5c:	00621021 	addu	v0,v1,v0
a080cb60:	8fc300c4 	lw	v1,196(s8)
a080cb64:	8fc600c8 	lw	a2,200(s8)
a080cb68:	00402021 	move	a0,v0
a080cb6c:	00602821 	move	a1,v1
a080cb70:	0c203a9a 	jal	a080ea68 <memcpy>
a080cb74:	00000000 	nop
a080cb78:	8fc500c0 	lw	a1,192(s8)
a080cb7c:	8fc200c0 	lw	v0,192(s8)
a080cb80:	3c03a086 	lui	v1,0xa086
a080cb84:	00021080 	sll	v0,v0,0x2
a080cb88:	24420001 	addiu	v0,v0,1
a080cb8c:	2463134c 	addiu	v1,v1,4940
a080cb90:	000210c0 	sll	v0,v0,0x3
a080cb94:	00621021 	addu	v0,v1,v0
a080cb98:	8c430004 	lw	v1,4(v0)
a080cb9c:	8fc200c8 	lw	v0,200(s8)
a080cba0:	00622021 	addu	a0,v1,v0
a080cba4:	3c03a086 	lui	v1,0xa086
a080cba8:	00051080 	sll	v0,a1,0x2
a080cbac:	24420001 	addiu	v0,v0,1
a080cbb0:	2463134c 	addiu	v1,v1,4940
a080cbb4:	000210c0 	sll	v0,v0,0x3
a080cbb8:	00621021 	addu	v0,v1,v0
a080cbbc:	ac440004 	sw	a0,4(v0)
a080cbc0:	8fc20028 	lw	v0,40(s8)
a080cbc4:	afc20020 	sw	v0,32(s8)
a080cbc8:	08203302 	j	a080cc08 <do_fwrite+0x3e4>
a080cbcc:	00000000 	nop
a080cbd0:	8fc40020 	lw	a0,32(s8)
a080cbd4:	8fc30020 	lw	v1,32(s8)
a080cbd8:	8fc20028 	lw	v0,40(s8)
a080cbdc:	00621023 	subu	v0,v1,v0
a080cbe0:	00021b00 	sll	v1,v0,0xc
a080cbe4:	3c02a086 	lui	v0,0xa086
a080cbe8:	244267cc 	addiu	v0,v0,26572
a080cbec:	00621021 	addu	v0,v1,v0
a080cbf0:	00402821 	move	a1,v0
a080cbf4:	0c20231c 	jal	a0808c70 <write_block>
a080cbf8:	00000000 	nop
a080cbfc:	8fc20020 	lw	v0,32(s8)
a080cc00:	24420001 	addiu	v0,v0,1
a080cc04:	afc20020 	sw	v0,32(s8)
a080cc08:	8fc20020 	lw	v0,32(s8)
a080cc0c:	8fc30024 	lw	v1,36(s8)
a080cc10:	0062102b 	sltu	v0,v1,v0
a080cc14:	1040ffee 	beqz	v0,a080cbd0 <do_fwrite+0x3ac>
a080cc18:	00000000 	nop
a080cc1c:	8fc200c8 	lw	v0,200(s8)
a080cc20:	03c0e821 	move	sp,s8
a080cc24:	8fbf00bc 	lw	ra,188(sp)
a080cc28:	8fbe00b8 	lw	s8,184(sp)
a080cc2c:	27bd00c0 	addiu	sp,sp,192
a080cc30:	03e00008 	jr	ra
a080cc34:	00000000 	nop

a080cc38 <do_fread>:
a080cc38:	27bdff50 	addiu	sp,sp,-176
a080cc3c:	afbf00ac 	sw	ra,172(sp)
a080cc40:	afbe00a8 	sw	s8,168(sp)
a080cc44:	03a0f021 	move	s8,sp
a080cc48:	afc400b0 	sw	a0,176(s8)
a080cc4c:	afc500b4 	sw	a1,180(s8)
a080cc50:	afc600b8 	sw	a2,184(s8)
a080cc54:	3c02a086 	lui	v0,0xa086
a080cc58:	2444174c 	addiu	a0,v0,5964
a080cc5c:	24055000 	li	a1,20480
a080cc60:	0c203ad3 	jal	a080eb4c <bzero>
a080cc64:	00000000 	nop
a080cc68:	8fc200b0 	lw	v0,176(s8)
a080cc6c:	3c04a086 	lui	a0,0xa086
a080cc70:	00021080 	sll	v0,v0,0x2
a080cc74:	24420001 	addiu	v0,v0,1
a080cc78:	000218c0 	sll	v1,v0,0x3
a080cc7c:	2482134c 	addiu	v0,a0,4940
a080cc80:	00621021 	addu	v0,v1,v0
a080cc84:	8c420000 	lw	v0,0(v0)
a080cc88:	00021302 	srl	v0,v0,0xc
a080cc8c:	afc20020 	sw	v0,32(s8)
a080cc90:	8fc200b0 	lw	v0,176(s8)
a080cc94:	3c04a086 	lui	a0,0xa086
a080cc98:	00021080 	sll	v0,v0,0x2
a080cc9c:	24420001 	addiu	v0,v0,1
a080cca0:	000218c0 	sll	v1,v0,0x3
a080cca4:	2482134c 	addiu	v0,a0,4940
a080cca8:	00621021 	addu	v0,v1,v0
a080ccac:	8c430000 	lw	v1,0(v0)
a080ccb0:	8fc200b8 	lw	v0,184(s8)
a080ccb4:	00621021 	addu	v0,v1,v0
a080ccb8:	00021302 	srl	v0,v0,0xc
a080ccbc:	afc2001c 	sw	v0,28(s8)
a080ccc0:	8fc200b0 	lw	v0,176(s8)
a080ccc4:	3c03a086 	lui	v1,0xa086
a080ccc8:	00022140 	sll	a0,v0,0x5
a080cccc:	2462134c 	addiu	v0,v1,4940
a080ccd0:	00821021 	addu	v0,a0,v0
a080ccd4:	8c420000 	lw	v0,0(v0)
a080ccd8:	27c30024 	addiu	v1,s8,36
a080ccdc:	00402021 	move	a0,v0
a080cce0:	00602821 	move	a1,v1
a080cce4:	0c202479 	jal	a08091e4 <sync_from_disk_inode>
a080cce8:	00000000 	nop
a080ccec:	27c20024 	addiu	v0,s8,36
a080ccf0:	00402021 	move	a0,v0
a080ccf4:	8fc50020 	lw	a1,32(s8)
a080ccf8:	0c2025be 	jal	a08096f8 <get_block_index_in_dir>
a080ccfc:	00000000 	nop
a080cd00:	afc20018 	sw	v0,24(s8)
a080cd04:	27c20024 	addiu	v0,s8,36
a080cd08:	00402021 	move	a0,v0
a080cd0c:	8fc5001c 	lw	a1,28(s8)
a080cd10:	0c2025be 	jal	a08096f8 <get_block_index_in_dir>
a080cd14:	00000000 	nop
a080cd18:	afc20014 	sw	v0,20(s8)
a080cd1c:	afc00010 	sw	zero,16(s8)
a080cd20:	8fc20018 	lw	v0,24(s8)
a080cd24:	afc20010 	sw	v0,16(s8)
a080cd28:	0820335a 	j	a080cd68 <do_fread+0x130>
a080cd2c:	00000000 	nop
a080cd30:	8fc40010 	lw	a0,16(s8)
a080cd34:	8fc30010 	lw	v1,16(s8)
a080cd38:	8fc20018 	lw	v0,24(s8)
a080cd3c:	00621023 	subu	v0,v1,v0
a080cd40:	00021b00 	sll	v1,v0,0xc
a080cd44:	3c02a086 	lui	v0,0xa086
a080cd48:	2442174c 	addiu	v0,v0,5964
a080cd4c:	00621021 	addu	v0,v1,v0
a080cd50:	00402821 	move	a1,v0
a080cd54:	0c202332 	jal	a0808cc8 <read_block>
a080cd58:	00000000 	nop
a080cd5c:	8fc20010 	lw	v0,16(s8)
a080cd60:	24420001 	addiu	v0,v0,1
a080cd64:	afc20010 	sw	v0,16(s8)
a080cd68:	8fc20010 	lw	v0,16(s8)
a080cd6c:	8fc30014 	lw	v1,20(s8)
a080cd70:	0062102b 	sltu	v0,v1,v0
a080cd74:	1040ffee 	beqz	v0,a080cd30 <do_fread+0xf8>
a080cd78:	00000000 	nop
a080cd7c:	8fc500b4 	lw	a1,180(s8)
a080cd80:	8fc200b0 	lw	v0,176(s8)
a080cd84:	3c04a086 	lui	a0,0xa086
a080cd88:	00021080 	sll	v0,v0,0x2
a080cd8c:	24420001 	addiu	v0,v0,1
a080cd90:	000218c0 	sll	v1,v0,0x3
a080cd94:	2482134c 	addiu	v0,a0,4940
a080cd98:	00621021 	addu	v0,v1,v0
a080cd9c:	8c420000 	lw	v0,0(v0)
a080cda0:	30430fff 	andi	v1,v0,0xfff
a080cda4:	3c02a086 	lui	v0,0xa086
a080cda8:	2442174c 	addiu	v0,v0,5964
a080cdac:	00621021 	addu	v0,v1,v0
a080cdb0:	8fc300b8 	lw	v1,184(s8)
a080cdb4:	00a02021 	move	a0,a1
a080cdb8:	00402821 	move	a1,v0
a080cdbc:	00603021 	move	a2,v1
a080cdc0:	0c203a9a 	jal	a080ea68 <memcpy>
a080cdc4:	00000000 	nop
a080cdc8:	8fc600b0 	lw	a2,176(s8)
a080cdcc:	8fc200b0 	lw	v0,176(s8)
a080cdd0:	3c04a086 	lui	a0,0xa086
a080cdd4:	00021080 	sll	v0,v0,0x2
a080cdd8:	24420001 	addiu	v0,v0,1
a080cddc:	000218c0 	sll	v1,v0,0x3
a080cde0:	2482134c 	addiu	v0,a0,4940
a080cde4:	00621021 	addu	v0,v1,v0
a080cde8:	8c430000 	lw	v1,0(v0)
a080cdec:	8fc200b8 	lw	v0,184(s8)
a080cdf0:	00622821 	addu	a1,v1,v0
a080cdf4:	3c04a086 	lui	a0,0xa086
a080cdf8:	00061080 	sll	v0,a2,0x2
a080cdfc:	24420001 	addiu	v0,v0,1
a080ce00:	000218c0 	sll	v1,v0,0x3
a080ce04:	2482134c 	addiu	v0,a0,4940
a080ce08:	00621021 	addu	v0,v1,v0
a080ce0c:	ac450000 	sw	a1,0(v0)
a080ce10:	8fc200b8 	lw	v0,184(s8)
a080ce14:	03c0e821 	move	sp,s8
a080ce18:	8fbf00ac 	lw	ra,172(sp)
a080ce1c:	8fbe00a8 	lw	s8,168(sp)
a080ce20:	27bd00b0 	addiu	sp,sp,176
a080ce24:	03e00008 	jr	ra
a080ce28:	00000000 	nop

a080ce2c <do_fclose>:
a080ce2c:	27bdffc8 	addiu	sp,sp,-56
a080ce30:	afbf0034 	sw	ra,52(sp)
a080ce34:	afbe0030 	sw	s8,48(sp)
a080ce38:	03a0f021 	move	s8,sp
a080ce3c:	afc40038 	sw	a0,56(s8)
a080ce40:	27c20010 	addiu	v0,s8,16
a080ce44:	00402021 	move	a0,v0
a080ce48:	24050020 	li	a1,32
a080ce4c:	0c203ad3 	jal	a080eb4c <bzero>
a080ce50:	00000000 	nop
a080ce54:	3c02a086 	lui	v0,0xa086
a080ce58:	2443134c 	addiu	v1,v0,4940
a080ce5c:	8fc20038 	lw	v0,56(s8)
a080ce60:	00021140 	sll	v0,v0,0x5
a080ce64:	00621021 	addu	v0,v1,v0
a080ce68:	27c30010 	addiu	v1,s8,16
a080ce6c:	00402021 	move	a0,v0
a080ce70:	00602821 	move	a1,v1
a080ce74:	24060020 	li	a2,32
a080ce78:	0c203a9a 	jal	a080ea68 <memcpy>
a080ce7c:	00000000 	nop
a080ce80:	03c0e821 	move	sp,s8
a080ce84:	8fbf0034 	lw	ra,52(sp)
a080ce88:	8fbe0030 	lw	s8,48(sp)
a080ce8c:	27bd0038 	addiu	sp,sp,56
a080ce90:	03e00008 	jr	ra
a080ce94:	00000000 	nop

a080ce98 <do_touch>:
a080ce98:	27bdfe50 	addiu	sp,sp,-432
a080ce9c:	afbf01ac 	sw	ra,428(sp)
a080cea0:	afbe01a8 	sw	s8,424(sp)
a080cea4:	03a0f021 	move	s8,sp
a080cea8:	afc401b0 	sw	a0,432(s8)
a080ceac:	00a01021 	move	v0,a1
a080ceb0:	a7c201b4 	sh	v0,436(s8)
a080ceb4:	3c02a087 	lui	v0,0xa087
a080ceb8:	2444b9cc 	addiu	a0,v0,-17972
a080cebc:	24050200 	li	a1,512
a080cec0:	0c203ad3 	jal	a080eb4c <bzero>
a080cec4:	00000000 	nop
a080cec8:	3c02a086 	lui	v0,0xa086
a080cecc:	2444114c 	addiu	a0,v0,4428
a080ced0:	24050200 	li	a1,512
a080ced4:	0c203ad3 	jal	a080eb4c <bzero>
a080ced8:	00000000 	nop
a080cedc:	3c02a086 	lui	v0,0xa086
a080cee0:	2444108c 	addiu	a0,v0,4236
a080cee4:	24050040 	li	a1,64
a080cee8:	0c203ad3 	jal	a080eb4c <bzero>
a080ceec:	00000000 	nop
a080cef0:	3c02a081 	lui	v0,0xa081
a080cef4:	24425d10 	addiu	v0,v0,23824
a080cef8:	afc2001c 	sw	v0,28(s8)
a080cefc:	3c02a086 	lui	v0,0xa086
a080cf00:	2444114c 	addiu	a0,v0,4428
a080cf04:	8fc5001c 	lw	a1,28(s8)
a080cf08:	0c203b1a 	jal	a080ec68 <strcpy>
a080cf0c:	00000000 	nop
a080cf10:	3c02a086 	lui	v0,0xa086
a080cf14:	2444114e 	addiu	a0,v0,4430
a080cf18:	8fc501b0 	lw	a1,432(s8)
a080cf1c:	0c203b1a 	jal	a080ec68 <strcpy>
a080cf20:	00000000 	nop
a080cf24:	3c02a086 	lui	v0,0xa086
a080cf28:	2444114c 	addiu	a0,v0,4428
a080cf2c:	3c02a087 	lui	v0,0xa087
a080cf30:	2445b9cc 	addiu	a1,v0,-17972
a080cf34:	3c02a086 	lui	v0,0xa086
a080cf38:	2446108c 	addiu	a2,v0,4236
a080cf3c:	0c20258f 	jal	a080963c <separate_path>
a080cf40:	00000000 	nop
a080cf44:	afc00018 	sw	zero,24(s8)
a080cf48:	3c02a081 	lui	v0,0xa081
a080cf4c:	8c4272d8 	lw	v0,29400(v0)
a080cf50:	00402021 	move	a0,v0
a080cf54:	3c02a087 	lui	v0,0xa087
a080cf58:	2445b9cc 	addiu	a1,v0,-17972
a080cf5c:	0c202893 	jal	a080a24c <find_file>
a080cf60:	00000000 	nop
a080cf64:	afc20018 	sw	v0,24(s8)
a080cf68:	0c2023c7 	jal	a0808f1c <sync_from_disk_block_bmp>
a080cf6c:	00000000 	nop
a080cf70:	0c2023b8 	jal	a0808ee0 <sync_from_disk_inode_bmp>
a080cf74:	00000000 	nop
a080cf78:	27c20020 	addiu	v0,s8,32
a080cf7c:	8fc40018 	lw	a0,24(s8)
a080cf80:	00402821 	move	a1,v0
a080cf84:	0c202479 	jal	a08091e4 <sync_from_disk_inode>
a080cf88:	00000000 	nop
a080cf8c:	27c20020 	addiu	v0,s8,32
a080cf90:	00402021 	move	a0,v0
a080cf94:	3c02a086 	lui	v0,0xa086
a080cf98:	2445108c 	addiu	a1,v0,4236
a080cf9c:	0c2028de 	jal	a080a378 <find_dentry>
a080cfa0:	00000000 	nop
a080cfa4:	00401821 	move	v1,v0
a080cfa8:	2402ffff 	li	v0,-1
a080cfac:	1062000d 	beq	v1,v0,a080cfe4 <do_touch+0x14c>
a080cfb0:	00000000 	nop
a080cfb4:	24040001 	li	a0,1
a080cfb8:	2405002d 	li	a1,45
a080cfbc:	0c2004dc 	jal	a0801370 <vt100_move_cursor>
a080cfc0:	00000000 	nop
a080cfc4:	3c02a081 	lui	v0,0xa081
a080cfc8:	2444669c 	addiu	a0,v0,26268
a080cfcc:	0c203fd5 	jal	a080ff54 <printk>
a080cfd0:	00000000 	nop
a080cfd4:	2402ffff 	li	v0,-1
a080cfd8:	afc201a0 	sw	v0,416(s8)
a080cfdc:	08203441 	j	a080d104 <do_touch+0x26c>
a080cfe0:	00000000 	nop
a080cfe4:	0c202995 	jal	a080a654 <find_free_inode>
a080cfe8:	00000000 	nop
a080cfec:	afc20014 	sw	v0,20(s8)
a080cff0:	8fc40014 	lw	a0,20(s8)
a080cff4:	0c2022c4 	jal	a0808b10 <set_inode_bmp>
a080cff8:	00000000 	nop
a080cffc:	0c202348 	jal	a0808d20 <sync_to_disk_inode_bmp>
a080d000:	00000000 	nop
a080d004:	3c02a081 	lui	v0,0xa081
a080d008:	8c4372d0 	lw	v1,29392(v0)
a080d00c:	8c620014 	lw	v0,20(v1)
a080d010:	2442ffff 	addiu	v0,v0,-1
a080d014:	ac620014 	sw	v0,20(v1)
a080d018:	0c202377 	jal	a0808ddc <sync_to_disk_superblock>
a080d01c:	00000000 	nop
a080d020:	97c301b4 	lhu	v1,436(s8)
a080d024:	24028000 	li	v0,-32768
a080d028:	00621025 	or	v0,v1,v0
a080d02c:	3042ffff 	andi	v0,v0,0xffff
a080d030:	a7c200a0 	sh	v0,160(s8)
a080d034:	24020001 	li	v0,1
a080d038:	a7c200a2 	sh	v0,162(s8)
a080d03c:	afc000a4 	sw	zero,164(s8)
a080d040:	afc000a8 	sw	zero,168(s8)
a080d044:	0c202264 	jal	a0808990 <get_ticks>
a080d048:	00000000 	nop
a080d04c:	afc200ac 	sw	v0,172(s8)
a080d050:	0c202264 	jal	a0808990 <get_ticks>
a080d054:	00000000 	nop
a080d058:	afc200b0 	sw	v0,176(s8)
a080d05c:	0c202264 	jal	a0808990 <get_ticks>
a080d060:	00000000 	nop
a080d064:	afc200b4 	sw	v0,180(s8)
a080d068:	27c200a0 	addiu	v0,s8,160
a080d06c:	24420018 	addiu	v0,v0,24
a080d070:	00402021 	move	a0,v0
a080d074:	24050030 	li	a1,48
a080d078:	0c203ad3 	jal	a080eb4c <bzero>
a080d07c:	00000000 	nop
a080d080:	afc000e8 	sw	zero,232(s8)
a080d084:	afc000ec 	sw	zero,236(s8)
a080d088:	afc000f0 	sw	zero,240(s8)
a080d08c:	8fc20014 	lw	v0,20(s8)
a080d090:	afc200f4 	sw	v0,244(s8)
a080d094:	27c200a0 	addiu	v0,s8,160
a080d098:	24420058 	addiu	v0,v0,88
a080d09c:	00402021 	move	a0,v0
a080d0a0:	24050028 	li	a1,40
a080d0a4:	0c203ad3 	jal	a080eb4c <bzero>
a080d0a8:	00000000 	nop
a080d0ac:	27c200a0 	addiu	v0,s8,160
a080d0b0:	00402021 	move	a0,v0
a080d0b4:	0c202496 	jal	a0809258 <sync_to_disk_inode>
a080d0b8:	00000000 	nop
a080d0bc:	8fc20014 	lw	v0,20(s8)
a080d0c0:	afc20120 	sw	v0,288(s8)
a080d0c4:	27c20120 	addiu	v0,s8,288
a080d0c8:	24420004 	addiu	v0,v0,4
a080d0cc:	00402021 	move	a0,v0
a080d0d0:	3c02a086 	lui	v0,0xa086
a080d0d4:	2445108c 	addiu	a1,v0,4236
a080d0d8:	0c203b1a 	jal	a080ec68 <strcpy>
a080d0dc:	00000000 	nop
a080d0e0:	8fc20028 	lw	v0,40(s8)
a080d0e4:	24450002 	addiu	a1,v0,2
a080d0e8:	27c20020 	addiu	v0,s8,32
a080d0ec:	27c30120 	addiu	v1,s8,288
a080d0f0:	00402021 	move	a0,v0
a080d0f4:	00603021 	move	a2,v1
a080d0f8:	0c2024b3 	jal	a08092cc <write_dentry>
a080d0fc:	00000000 	nop
a080d100:	afc001a0 	sw	zero,416(s8)
a080d104:	8fc201a0 	lw	v0,416(s8)
a080d108:	03c0e821 	move	sp,s8
a080d10c:	8fbf01ac 	lw	ra,428(sp)
a080d110:	8fbe01a8 	lw	s8,424(sp)
a080d114:	27bd01b0 	addiu	sp,sp,432
a080d118:	03e00008 	jr	ra
a080d11c:	00000000 	nop

a080d120 <do_cat>:
a080d120:	27bdffe0 	addiu	sp,sp,-32
a080d124:	afbf001c 	sw	ra,28(sp)
a080d128:	afbe0018 	sw	s8,24(sp)
a080d12c:	03a0f021 	move	s8,sp
a080d130:	afc40020 	sw	a0,32(s8)
a080d134:	3c02a084 	lui	v0,0xa084
a080d138:	244442f0 	addiu	a0,v0,17136
a080d13c:	24055000 	li	a1,20480
a080d140:	0c203ad3 	jal	a080eb4c <bzero>
a080d144:	00000000 	nop
a080d148:	8fc40020 	lw	a0,32(s8)
a080d14c:	24050002 	li	a1,2
a080d150:	0c203172 	jal	a080c5c8 <do_fopen>
a080d154:	00000000 	nop
a080d158:	afc20010 	sw	v0,16(s8)
a080d15c:	3c02a084 	lui	v0,0xa084
a080d160:	244242f0 	addiu	v0,v0,17136
a080d164:	8fc40010 	lw	a0,16(s8)
a080d168:	00402821 	move	a1,v0
a080d16c:	240600c8 	li	a2,200
a080d170:	0c20330e 	jal	a080cc38 <do_fread>
a080d174:	00000000 	nop
a080d178:	3c02a084 	lui	v0,0xa084
a080d17c:	244242f0 	addiu	v0,v0,17136
a080d180:	a04000c8 	sb	zero,200(v0)
a080d184:	03c0e821 	move	sp,s8
a080d188:	8fbf001c 	lw	ra,28(sp)
a080d18c:	8fbe0018 	lw	s8,24(sp)
a080d190:	27bd0020 	addiu	sp,sp,32
a080d194:	03e00008 	jr	ra
a080d198:	00000000 	nop

a080d19c <do_find>:
a080d19c:	27bdfdb8 	addiu	sp,sp,-584
a080d1a0:	afbf0244 	sw	ra,580(sp)
a080d1a4:	afbe0240 	sw	s8,576(sp)
a080d1a8:	afb1023c 	sw	s1,572(sp)
a080d1ac:	afb00238 	sw	s0,568(sp)
a080d1b0:	03a0f021 	move	s8,sp
a080d1b4:	afc40248 	sw	a0,584(s8)
a080d1b8:	afc5024c 	sw	a1,588(s8)
a080d1bc:	3c02a086 	lui	v0,0xa086
a080d1c0:	2444114c 	addiu	a0,v0,4428
a080d1c4:	24050200 	li	a1,512
a080d1c8:	0c203ad3 	jal	a080eb4c <bzero>
a080d1cc:	00000000 	nop
a080d1d0:	3c02a087 	lui	v0,0xa087
a080d1d4:	2444b9cc 	addiu	a0,v0,-17972
a080d1d8:	24050200 	li	a1,512
a080d1dc:	0c203ad3 	jal	a080eb4c <bzero>
a080d1e0:	00000000 	nop
a080d1e4:	3c02a087 	lui	v0,0xa087
a080d1e8:	2444bbcc 	addiu	a0,v0,-17460
a080d1ec:	24050200 	li	a1,512
a080d1f0:	0c203ad3 	jal	a080eb4c <bzero>
a080d1f4:	00000000 	nop
a080d1f8:	3c02a087 	lui	v0,0xa087
a080d1fc:	2444b7cc 	addiu	a0,v0,-18484
a080d200:	24050200 	li	a1,512
a080d204:	0c203ad3 	jal	a080eb4c <bzero>
a080d208:	00000000 	nop
a080d20c:	3c02a086 	lui	v0,0xa086
a080d210:	2444108c 	addiu	a0,v0,4236
a080d214:	24050040 	li	a1,64
a080d218:	0c203ad3 	jal	a080eb4c <bzero>
a080d21c:	00000000 	nop
a080d220:	3c02a086 	lui	v0,0xa086
a080d224:	2450114c 	addiu	s0,v0,4428
a080d228:	8fd10248 	lw	s1,584(s8)
a080d22c:	8fc40248 	lw	a0,584(s8)
a080d230:	0c203a84 	jal	a080ea10 <strlen>
a080d234:	00000000 	nop
a080d238:	02002021 	move	a0,s0
a080d23c:	02202821 	move	a1,s1
a080d240:	00403021 	move	a2,v0
a080d244:	0c203a9a 	jal	a080ea68 <memcpy>
a080d248:	00000000 	nop
a080d24c:	8fc40248 	lw	a0,584(s8)
a080d250:	0c203a84 	jal	a080ea10 <strlen>
a080d254:	00000000 	nop
a080d258:	00401821 	move	v1,v0
a080d25c:	3c02a087 	lui	v0,0xa087
a080d260:	2442b9cc 	addiu	v0,v0,-17972
a080d264:	00621021 	addu	v0,v1,v0
a080d268:	a0400000 	sb	zero,0(v0)
a080d26c:	2402002f 	li	v0,47
a080d270:	a3c2002c 	sb	v0,44(s8)
a080d274:	27c20030 	addiu	v0,s8,48
a080d278:	afc20028 	sw	v0,40(s8)
a080d27c:	8fc30028 	lw	v1,40(s8)
a080d280:	3c02a081 	lui	v0,0xa081
a080d284:	8c4272d8 	lw	v0,29400(v0)
a080d288:	00602021 	move	a0,v1
a080d28c:	00402821 	move	a1,v0
a080d290:	24060080 	li	a2,128
a080d294:	0c203a9a 	jal	a080ea68 <memcpy>
a080d298:	00000000 	nop
a080d29c:	83c2002c 	lb	v0,44(s8)
a080d2a0:	00402021 	move	a0,v0
a080d2a4:	3c02a086 	lui	v0,0xa086
a080d2a8:	2445114c 	addiu	a1,v0,4428
a080d2ac:	0c202428 	jal	a08090a0 <count_char_in_string>
a080d2b0:	00000000 	nop
a080d2b4:	1440001f 	bnez	v0,a080d334 <do_find+0x198>
a080d2b8:	00000000 	nop
a080d2bc:	8fc40028 	lw	a0,40(s8)
a080d2c0:	8fc5024c 	lw	a1,588(s8)
a080d2c4:	0c202893 	jal	a080a24c <find_file>
a080d2c8:	00000000 	nop
a080d2cc:	afc20024 	sw	v0,36(s8)
a080d2d0:	8fc30024 	lw	v1,36(s8)
a080d2d4:	2402ffff 	li	v0,-1
a080d2d8:	1062000d 	beq	v1,v0,a080d310 <do_find+0x174>
a080d2dc:	00000000 	nop
a080d2e0:	27c20130 	addiu	v0,s8,304
a080d2e4:	8fc40024 	lw	a0,36(s8)
a080d2e8:	00402821 	move	a1,v0
a080d2ec:	0c202479 	jal	a08091e4 <sync_from_disk_inode>
a080d2f0:	00000000 	nop
a080d2f4:	8fc20028 	lw	v0,40(s8)
a080d2f8:	27c30130 	addiu	v1,s8,304
a080d2fc:	00402021 	move	a0,v0
a080d300:	00602821 	move	a1,v1
a080d304:	24060080 	li	a2,128
a080d308:	0c203a9a 	jal	a080ea68 <memcpy>
a080d30c:	00000000 	nop
a080d310:	8fc40028 	lw	a0,40(s8)
a080d314:	8fc5024c 	lw	a1,588(s8)
a080d318:	0c202893 	jal	a080a24c <find_file>
a080d31c:	00000000 	nop
a080d320:	24420001 	addiu	v0,v0,1
a080d324:	0002102b 	sltu	v0,zero,v0
a080d328:	afc20230 	sw	v0,560(s8)
a080d32c:	0820357b 	j	a080d5ec <do_find+0x450>
a080d330:	00000000 	nop
a080d334:	83c2002c 	lb	v0,44(s8)
a080d338:	00402021 	move	a0,v0
a080d33c:	3c02a086 	lui	v0,0xa086
a080d340:	2445114c 	addiu	a1,v0,4428
a080d344:	0c202428 	jal	a08090a0 <count_char_in_string>
a080d348:	00000000 	nop
a080d34c:	00401821 	move	v1,v0
a080d350:	24020001 	li	v0,1
a080d354:	1462003e 	bne	v1,v0,a080d450 <do_find+0x2b4>
a080d358:	00000000 	nop
a080d35c:	3c02a086 	lui	v0,0xa086
a080d360:	2444114c 	addiu	a0,v0,4428
a080d364:	3c02a087 	lui	v0,0xa087
a080d368:	2445b9cc 	addiu	a1,v0,-17972
a080d36c:	3c02a086 	lui	v0,0xa086
a080d370:	2446108c 	addiu	a2,v0,4236
a080d374:	0c20258f 	jal	a080963c <separate_path>
a080d378:	00000000 	nop
a080d37c:	8fc40028 	lw	a0,40(s8)
a080d380:	3c02a087 	lui	v0,0xa087
a080d384:	2445b9cc 	addiu	a1,v0,-17972
a080d388:	0c202893 	jal	a080a24c <find_file>
a080d38c:	00000000 	nop
a080d390:	afc20020 	sw	v0,32(s8)
a080d394:	8fc30020 	lw	v1,32(s8)
a080d398:	2402ffff 	li	v0,-1
a080d39c:	10620023 	beq	v1,v0,a080d42c <do_find+0x290>
a080d3a0:	00000000 	nop
a080d3a4:	27c20130 	addiu	v0,s8,304
a080d3a8:	8fc40020 	lw	a0,32(s8)
a080d3ac:	00402821 	move	a1,v0
a080d3b0:	0c202479 	jal	a08091e4 <sync_from_disk_inode>
a080d3b4:	00000000 	nop
a080d3b8:	8fc20028 	lw	v0,40(s8)
a080d3bc:	27c30130 	addiu	v1,s8,304
a080d3c0:	00402021 	move	a0,v0
a080d3c4:	00602821 	move	a1,v1
a080d3c8:	24060080 	li	a2,128
a080d3cc:	0c203a9a 	jal	a080ea68 <memcpy>
a080d3d0:	00000000 	nop
a080d3d4:	8fc40028 	lw	a0,40(s8)
a080d3d8:	3c02a086 	lui	v0,0xa086
a080d3dc:	2445108c 	addiu	a1,v0,4236
a080d3e0:	0c202893 	jal	a080a24c <find_file>
a080d3e4:	00000000 	nop
a080d3e8:	afc2001c 	sw	v0,28(s8)
a080d3ec:	8fc3001c 	lw	v1,28(s8)
a080d3f0:	2402ffff 	li	v0,-1
a080d3f4:	1062000d 	beq	v1,v0,a080d42c <do_find+0x290>
a080d3f8:	00000000 	nop
a080d3fc:	27c200b0 	addiu	v0,s8,176
a080d400:	8fc4001c 	lw	a0,28(s8)
a080d404:	00402821 	move	a1,v0
a080d408:	0c202479 	jal	a08091e4 <sync_from_disk_inode>
a080d40c:	00000000 	nop
a080d410:	8fc20028 	lw	v0,40(s8)
a080d414:	27c300b0 	addiu	v1,s8,176
a080d418:	00402021 	move	a0,v0
a080d41c:	00602821 	move	a1,v1
a080d420:	24060080 	li	a2,128
a080d424:	0c203a9a 	jal	a080ea68 <memcpy>
a080d428:	00000000 	nop
a080d42c:	8fc40028 	lw	a0,40(s8)
a080d430:	8fc5024c 	lw	a1,588(s8)
a080d434:	0c202893 	jal	a080a24c <find_file>
a080d438:	00000000 	nop
a080d43c:	24420001 	addiu	v0,v0,1
a080d440:	0002102b 	sltu	v0,zero,v0
a080d444:	afc20230 	sw	v0,560(s8)
a080d448:	0820357b 	j	a080d5ec <do_find+0x450>
a080d44c:	00000000 	nop
a080d450:	83c2002c 	lb	v0,44(s8)
a080d454:	00402021 	move	a0,v0
a080d458:	3c02a086 	lui	v0,0xa086
a080d45c:	2445114c 	addiu	a1,v0,4428
a080d460:	0c202428 	jal	a08090a0 <count_char_in_string>
a080d464:	00000000 	nop
a080d468:	00401821 	move	v1,v0
a080d46c:	24020002 	li	v0,2
a080d470:	1462005c 	bne	v1,v0,a080d5e4 <do_find+0x448>
a080d474:	00000000 	nop
a080d478:	3c02a086 	lui	v0,0xa086
a080d47c:	2444114c 	addiu	a0,v0,4428
a080d480:	3c02a087 	lui	v0,0xa087
a080d484:	2445b9cc 	addiu	a1,v0,-17972
a080d488:	3c02a086 	lui	v0,0xa086
a080d48c:	2446108c 	addiu	a2,v0,4236
a080d490:	0c20258f 	jal	a080963c <separate_path>
a080d494:	00000000 	nop
a080d498:	3c02a087 	lui	v0,0xa087
a080d49c:	2444b9cc 	addiu	a0,v0,-17972
a080d4a0:	3c02a087 	lui	v0,0xa087
a080d4a4:	2445bbcc 	addiu	a1,v0,-17460
a080d4a8:	3c02a087 	lui	v0,0xa087
a080d4ac:	2446b7cc 	addiu	a2,v0,-18484
a080d4b0:	0c20258f 	jal	a080963c <separate_path>
a080d4b4:	00000000 	nop
a080d4b8:	8fc40028 	lw	a0,40(s8)
a080d4bc:	3c02a087 	lui	v0,0xa087
a080d4c0:	2445bbcc 	addiu	a1,v0,-17460
a080d4c4:	0c202893 	jal	a080a24c <find_file>
a080d4c8:	00000000 	nop
a080d4cc:	afc20018 	sw	v0,24(s8)
a080d4d0:	8fc30018 	lw	v1,24(s8)
a080d4d4:	2402ffff 	li	v0,-1
a080d4d8:	10620039 	beq	v1,v0,a080d5c0 <do_find+0x424>
a080d4dc:	00000000 	nop
a080d4e0:	27c200b0 	addiu	v0,s8,176
a080d4e4:	8fc40018 	lw	a0,24(s8)
a080d4e8:	00402821 	move	a1,v0
a080d4ec:	0c202479 	jal	a08091e4 <sync_from_disk_inode>
a080d4f0:	00000000 	nop
a080d4f4:	8fc20028 	lw	v0,40(s8)
a080d4f8:	27c300b0 	addiu	v1,s8,176
a080d4fc:	00402021 	move	a0,v0
a080d500:	00602821 	move	a1,v1
a080d504:	24060080 	li	a2,128
a080d508:	0c203a9a 	jal	a080ea68 <memcpy>
a080d50c:	00000000 	nop
a080d510:	8fc40028 	lw	a0,40(s8)
a080d514:	3c02a087 	lui	v0,0xa087
a080d518:	2445b7cc 	addiu	a1,v0,-18484
a080d51c:	0c202893 	jal	a080a24c <find_file>
a080d520:	00000000 	nop
a080d524:	afc20014 	sw	v0,20(s8)
a080d528:	8fc30014 	lw	v1,20(s8)
a080d52c:	2402ffff 	li	v0,-1
a080d530:	10620023 	beq	v1,v0,a080d5c0 <do_find+0x424>
a080d534:	00000000 	nop
a080d538:	27c20130 	addiu	v0,s8,304
a080d53c:	8fc40014 	lw	a0,20(s8)
a080d540:	00402821 	move	a1,v0
a080d544:	0c202479 	jal	a08091e4 <sync_from_disk_inode>
a080d548:	00000000 	nop
a080d54c:	8fc20028 	lw	v0,40(s8)
a080d550:	27c30130 	addiu	v1,s8,304
a080d554:	00402021 	move	a0,v0
a080d558:	00602821 	move	a1,v1
a080d55c:	24060080 	li	a2,128
a080d560:	0c203a9a 	jal	a080ea68 <memcpy>
a080d564:	00000000 	nop
a080d568:	8fc40028 	lw	a0,40(s8)
a080d56c:	3c02a086 	lui	v0,0xa086
a080d570:	2445108c 	addiu	a1,v0,4236
a080d574:	0c202893 	jal	a080a24c <find_file>
a080d578:	00000000 	nop
a080d57c:	afc20010 	sw	v0,16(s8)
a080d580:	8fc30010 	lw	v1,16(s8)
a080d584:	2402ffff 	li	v0,-1
a080d588:	1062000d 	beq	v1,v0,a080d5c0 <do_find+0x424>
a080d58c:	00000000 	nop
a080d590:	27c201b0 	addiu	v0,s8,432
a080d594:	8fc40010 	lw	a0,16(s8)
a080d598:	00402821 	move	a1,v0
a080d59c:	0c202479 	jal	a08091e4 <sync_from_disk_inode>
a080d5a0:	00000000 	nop
a080d5a4:	8fc20028 	lw	v0,40(s8)
a080d5a8:	27c301b0 	addiu	v1,s8,432
a080d5ac:	00402021 	move	a0,v0
a080d5b0:	00602821 	move	a1,v1
a080d5b4:	24060080 	li	a2,128
a080d5b8:	0c203a9a 	jal	a080ea68 <memcpy>
a080d5bc:	00000000 	nop
a080d5c0:	8fc40028 	lw	a0,40(s8)
a080d5c4:	8fc5024c 	lw	a1,588(s8)
a080d5c8:	0c202893 	jal	a080a24c <find_file>
a080d5cc:	00000000 	nop
a080d5d0:	24420001 	addiu	v0,v0,1
a080d5d4:	0002102b 	sltu	v0,zero,v0
a080d5d8:	afc20230 	sw	v0,560(s8)
a080d5dc:	0820357b 	j	a080d5ec <do_find+0x450>
a080d5e0:	00000000 	nop
a080d5e4:	0820357d 	j	a080d5f4 <do_find+0x458>
a080d5e8:	00000000 	nop
a080d5ec:	8fc20230 	lw	v0,560(s8)
a080d5f0:	afc20234 	sw	v0,564(s8)
a080d5f4:	8fc20234 	lw	v0,564(s8)
a080d5f8:	03c0e821 	move	sp,s8
a080d5fc:	8fbf0244 	lw	ra,580(sp)
a080d600:	8fbe0240 	lw	s8,576(sp)
a080d604:	8fb1023c 	lw	s1,572(sp)
a080d608:	8fb00238 	lw	s0,568(sp)
a080d60c:	27bd0248 	addiu	sp,sp,584
a080d610:	03e00008 	jr	ra
a080d614:	00000000 	nop

a080d618 <do_rename>:
a080d618:	27bdfe50 	addiu	sp,sp,-432
a080d61c:	afbf01ac 	sw	ra,428(sp)
a080d620:	afbe01a8 	sw	s8,424(sp)
a080d624:	afb101a4 	sw	s1,420(sp)
a080d628:	afb001a0 	sw	s0,416(sp)
a080d62c:	03a0f021 	move	s8,sp
a080d630:	afc401b0 	sw	a0,432(s8)
a080d634:	afc501b4 	sw	a1,436(s8)
a080d638:	3c02a087 	lui	v0,0xa087
a080d63c:	2444b9cc 	addiu	a0,v0,-17972
a080d640:	24050200 	li	a1,512
a080d644:	0c203ad3 	jal	a080eb4c <bzero>
a080d648:	00000000 	nop
a080d64c:	3c02a086 	lui	v0,0xa086
a080d650:	2444114c 	addiu	a0,v0,4428
a080d654:	24050200 	li	a1,512
a080d658:	0c203ad3 	jal	a080eb4c <bzero>
a080d65c:	00000000 	nop
a080d660:	3c02a086 	lui	v0,0xa086
a080d664:	2444108c 	addiu	a0,v0,4236
a080d668:	24050040 	li	a1,64
a080d66c:	0c203ad3 	jal	a080eb4c <bzero>
a080d670:	00000000 	nop
a080d674:	3c02a081 	lui	v0,0xa081
a080d678:	24425d10 	addiu	v0,v0,23824
a080d67c:	afc2001c 	sw	v0,28(s8)
a080d680:	3c02a086 	lui	v0,0xa086
a080d684:	2444114c 	addiu	a0,v0,4428
a080d688:	8fc5001c 	lw	a1,28(s8)
a080d68c:	0c203b1a 	jal	a080ec68 <strcpy>
a080d690:	00000000 	nop
a080d694:	3c02a086 	lui	v0,0xa086
a080d698:	2444114e 	addiu	a0,v0,4430
a080d69c:	8fc501b0 	lw	a1,432(s8)
a080d6a0:	0c203b1a 	jal	a080ec68 <strcpy>
a080d6a4:	00000000 	nop
a080d6a8:	3c02a086 	lui	v0,0xa086
a080d6ac:	2444114c 	addiu	a0,v0,4428
a080d6b0:	3c02a087 	lui	v0,0xa087
a080d6b4:	2445b9cc 	addiu	a1,v0,-17972
a080d6b8:	3c02a086 	lui	v0,0xa086
a080d6bc:	2446108c 	addiu	a2,v0,4236
a080d6c0:	0c20258f 	jal	a080963c <separate_path>
a080d6c4:	00000000 	nop
a080d6c8:	afc00018 	sw	zero,24(s8)
a080d6cc:	3c02a081 	lui	v0,0xa081
a080d6d0:	8c4272d8 	lw	v0,29400(v0)
a080d6d4:	00402021 	move	a0,v0
a080d6d8:	3c02a087 	lui	v0,0xa087
a080d6dc:	2445b9cc 	addiu	a1,v0,-17972
a080d6e0:	0c202893 	jal	a080a24c <find_file>
a080d6e4:	00000000 	nop
a080d6e8:	afc20018 	sw	v0,24(s8)
a080d6ec:	27c20020 	addiu	v0,s8,32
a080d6f0:	8fc40018 	lw	a0,24(s8)
a080d6f4:	00402821 	move	a1,v0
a080d6f8:	0c202479 	jal	a08091e4 <sync_from_disk_inode>
a080d6fc:	00000000 	nop
a080d700:	afc00014 	sw	zero,20(s8)
a080d704:	27c20020 	addiu	v0,s8,32
a080d708:	00402021 	move	a0,v0
a080d70c:	3c02a086 	lui	v0,0xa086
a080d710:	2445108c 	addiu	a1,v0,4236
a080d714:	0c202893 	jal	a080a24c <find_file>
a080d718:	00000000 	nop
a080d71c:	afc20014 	sw	v0,20(s8)
a080d720:	27c200a0 	addiu	v0,s8,160
a080d724:	8fc40014 	lw	a0,20(s8)
a080d728:	00402821 	move	a1,v0
a080d72c:	0c202479 	jal	a08091e4 <sync_from_disk_inode>
a080d730:	00000000 	nop
a080d734:	27c20020 	addiu	v0,s8,32
a080d738:	00402021 	move	a0,v0
a080d73c:	8fc501b0 	lw	a1,432(s8)
a080d740:	0c2028de 	jal	a080a378 <find_dentry>
a080d744:	00000000 	nop
a080d748:	afc20010 	sw	v0,16(s8)
a080d74c:	27c20120 	addiu	v0,s8,288
a080d750:	00402021 	move	a0,v0
a080d754:	24050080 	li	a1,128
a080d758:	0c203ad3 	jal	a080eb4c <bzero>
a080d75c:	00000000 	nop
a080d760:	8fc20014 	lw	v0,20(s8)
a080d764:	afc20120 	sw	v0,288(s8)
a080d768:	27c20120 	addiu	v0,s8,288
a080d76c:	24500004 	addiu	s0,v0,4
a080d770:	8fd101b4 	lw	s1,436(s8)
a080d774:	8fc401b4 	lw	a0,436(s8)
a080d778:	0c203a84 	jal	a080ea10 <strlen>
a080d77c:	00000000 	nop
a080d780:	02002021 	move	a0,s0
a080d784:	02202821 	move	a1,s1
a080d788:	00403021 	move	a2,v0
a080d78c:	0c203a9a 	jal	a080ea68 <memcpy>
a080d790:	00000000 	nop
a080d794:	27c20020 	addiu	v0,s8,32
a080d798:	27c30120 	addiu	v1,s8,288
a080d79c:	00402021 	move	a0,v0
a080d7a0:	8fc50010 	lw	a1,16(s8)
a080d7a4:	00603021 	move	a2,v1
a080d7a8:	0c2024b3 	jal	a08092cc <write_dentry>
a080d7ac:	00000000 	nop
a080d7b0:	03c0e821 	move	sp,s8
a080d7b4:	8fbf01ac 	lw	ra,428(sp)
a080d7b8:	8fbe01a8 	lw	s8,424(sp)
a080d7bc:	8fb101a4 	lw	s1,420(sp)
a080d7c0:	8fb001a0 	lw	s0,416(sp)
a080d7c4:	27bd01b0 	addiu	sp,sp,432
a080d7c8:	03e00008 	jr	ra
a080d7cc:	00000000 	nop

a080d7d0 <do_link>:
a080d7d0:	27bdfe58 	addiu	sp,sp,-424
a080d7d4:	afbf01a4 	sw	ra,420(sp)
a080d7d8:	afbe01a0 	sw	s8,416(sp)
a080d7dc:	03a0f021 	move	s8,sp
a080d7e0:	afc401a8 	sw	a0,424(s8)
a080d7e4:	afc501ac 	sw	a1,428(s8)
a080d7e8:	3c02a087 	lui	v0,0xa087
a080d7ec:	2444b9cc 	addiu	a0,v0,-17972
a080d7f0:	24050200 	li	a1,512
a080d7f4:	0c203ad3 	jal	a080eb4c <bzero>
a080d7f8:	00000000 	nop
a080d7fc:	3c02a086 	lui	v0,0xa086
a080d800:	2444114c 	addiu	a0,v0,4428
a080d804:	24050200 	li	a1,512
a080d808:	0c203ad3 	jal	a080eb4c <bzero>
a080d80c:	00000000 	nop
a080d810:	3c02a086 	lui	v0,0xa086
a080d814:	2444108c 	addiu	a0,v0,4236
a080d818:	24050040 	li	a1,64
a080d81c:	0c203ad3 	jal	a080eb4c <bzero>
a080d820:	00000000 	nop
a080d824:	3c02a081 	lui	v0,0xa081
a080d828:	8c4272d8 	lw	v0,29400(v0)
a080d82c:	8fc401a8 	lw	a0,424(s8)
a080d830:	00402821 	move	a1,v0
a080d834:	0c202926 	jal	a080a498 <parse_path>
a080d838:	00000000 	nop
a080d83c:	afc20018 	sw	v0,24(s8)
a080d840:	27c2001c 	addiu	v0,s8,28
a080d844:	8fc40018 	lw	a0,24(s8)
a080d848:	00402821 	move	a1,v0
a080d84c:	0c202479 	jal	a08091e4 <sync_from_disk_inode>
a080d850:	00000000 	nop
a080d854:	3c02a081 	lui	v0,0xa081
a080d858:	24425d10 	addiu	v0,v0,23824
a080d85c:	afc20014 	sw	v0,20(s8)
a080d860:	3c02a086 	lui	v0,0xa086
a080d864:	2444114c 	addiu	a0,v0,4428
a080d868:	8fc50014 	lw	a1,20(s8)
a080d86c:	0c203b1a 	jal	a080ec68 <strcpy>
a080d870:	00000000 	nop
a080d874:	3c02a086 	lui	v0,0xa086
a080d878:	2444114e 	addiu	a0,v0,4430
a080d87c:	8fc501ac 	lw	a1,428(s8)
a080d880:	0c203b1a 	jal	a080ec68 <strcpy>
a080d884:	00000000 	nop
a080d888:	3c02a086 	lui	v0,0xa086
a080d88c:	2444114c 	addiu	a0,v0,4428
a080d890:	3c02a087 	lui	v0,0xa087
a080d894:	2445b9cc 	addiu	a1,v0,-17972
a080d898:	3c02a086 	lui	v0,0xa086
a080d89c:	2446108c 	addiu	a2,v0,4236
a080d8a0:	0c20258f 	jal	a080963c <separate_path>
a080d8a4:	00000000 	nop
a080d8a8:	3c02a081 	lui	v0,0xa081
a080d8ac:	8c4372d8 	lw	v1,29400(v0)
a080d8b0:	3c02a087 	lui	v0,0xa087
a080d8b4:	2444b9cc 	addiu	a0,v0,-17972
a080d8b8:	00602821 	move	a1,v1
a080d8bc:	0c202926 	jal	a080a498 <parse_path>
a080d8c0:	00000000 	nop
a080d8c4:	afc20010 	sw	v0,16(s8)
a080d8c8:	27c2009c 	addiu	v0,s8,156
a080d8cc:	8fc40010 	lw	a0,16(s8)
a080d8d0:	00402821 	move	a1,v0
a080d8d4:	0c202479 	jal	a08091e4 <sync_from_disk_inode>
a080d8d8:	00000000 	nop
a080d8dc:	97c2001e 	lhu	v0,30(s8)
a080d8e0:	24420001 	addiu	v0,v0,1
a080d8e4:	3042ffff 	andi	v0,v0,0xffff
a080d8e8:	a7c2001e 	sh	v0,30(s8)
a080d8ec:	27c2001c 	addiu	v0,s8,28
a080d8f0:	00402021 	move	a0,v0
a080d8f4:	0c202496 	jal	a0809258 <sync_to_disk_inode>
a080d8f8:	00000000 	nop
a080d8fc:	8fc20018 	lw	v0,24(s8)
a080d900:	afc2011c 	sw	v0,284(s8)
a080d904:	27c2011c 	addiu	v0,s8,284
a080d908:	24420004 	addiu	v0,v0,4
a080d90c:	00402021 	move	a0,v0
a080d910:	3c02a086 	lui	v0,0xa086
a080d914:	2445108c 	addiu	a1,v0,4236
a080d918:	0c203b1a 	jal	a080ec68 <strcpy>
a080d91c:	00000000 	nop
a080d920:	8fc200a4 	lw	v0,164(s8)
a080d924:	24450002 	addiu	a1,v0,2
a080d928:	27c2009c 	addiu	v0,s8,156
a080d92c:	27c3011c 	addiu	v1,s8,284
a080d930:	00402021 	move	a0,v0
a080d934:	00603021 	move	a2,v1
a080d938:	0c2024b3 	jal	a08092cc <write_dentry>
a080d93c:	00000000 	nop
a080d940:	03c0e821 	move	sp,s8
a080d944:	8fbf01a4 	lw	ra,420(sp)
a080d948:	8fbe01a0 	lw	s8,416(sp)
a080d94c:	27bd01a8 	addiu	sp,sp,424
a080d950:	03e00008 	jr	ra
a080d954:	00000000 	nop

a080d958 <do_symlink>:
a080d958:	27bdfed0 	addiu	sp,sp,-304
a080d95c:	afbf012c 	sw	ra,300(sp)
a080d960:	afbe0128 	sw	s8,296(sp)
a080d964:	03a0f021 	move	s8,sp
a080d968:	afc40130 	sw	a0,304(s8)
a080d96c:	afc50134 	sw	a1,308(s8)
a080d970:	3c02a087 	lui	v0,0xa087
a080d974:	2444b9cc 	addiu	a0,v0,-17972
a080d978:	24050200 	li	a1,512
a080d97c:	0c203ad3 	jal	a080eb4c <bzero>
a080d980:	00000000 	nop
a080d984:	3c02a086 	lui	v0,0xa086
a080d988:	2444114c 	addiu	a0,v0,4428
a080d98c:	24050200 	li	a1,512
a080d990:	0c203ad3 	jal	a080eb4c <bzero>
a080d994:	00000000 	nop
a080d998:	3c02a086 	lui	v0,0xa086
a080d99c:	2444108c 	addiu	a0,v0,4236
a080d9a0:	24050040 	li	a1,64
a080d9a4:	0c203ad3 	jal	a080eb4c <bzero>
a080d9a8:	00000000 	nop
a080d9ac:	2404002f 	li	a0,47
a080d9b0:	8fc50130 	lw	a1,304(s8)
a080d9b4:	0c202428 	jal	a08090a0 <count_char_in_string>
a080d9b8:	00000000 	nop
a080d9bc:	14400033 	bnez	v0,a080da8c <do_symlink+0x134>
a080d9c0:	00000000 	nop
a080d9c4:	3c02a081 	lui	v0,0xa081
a080d9c8:	24425d10 	addiu	v0,v0,23824
a080d9cc:	afc20020 	sw	v0,32(s8)
a080d9d0:	3c02a086 	lui	v0,0xa086
a080d9d4:	2444114c 	addiu	a0,v0,4428
a080d9d8:	8fc50020 	lw	a1,32(s8)
a080d9dc:	0c203b1a 	jal	a080ec68 <strcpy>
a080d9e0:	00000000 	nop
a080d9e4:	3c02a086 	lui	v0,0xa086
a080d9e8:	2444114e 	addiu	a0,v0,4430
a080d9ec:	8fc50130 	lw	a1,304(s8)
a080d9f0:	0c203b1a 	jal	a080ec68 <strcpy>
a080d9f4:	00000000 	nop
a080d9f8:	3c02a086 	lui	v0,0xa086
a080d9fc:	2444114c 	addiu	a0,v0,4428
a080da00:	3c02a087 	lui	v0,0xa087
a080da04:	2445b9cc 	addiu	a1,v0,-17972
a080da08:	3c02a086 	lui	v0,0xa086
a080da0c:	2446108c 	addiu	a2,v0,4236
a080da10:	0c20258f 	jal	a080963c <separate_path>
a080da14:	00000000 	nop
a080da18:	afc0001c 	sw	zero,28(s8)
a080da1c:	3c02a081 	lui	v0,0xa081
a080da20:	8c4272d8 	lw	v0,29400(v0)
a080da24:	00402021 	move	a0,v0
a080da28:	3c02a087 	lui	v0,0xa087
a080da2c:	2445b9cc 	addiu	a1,v0,-17972
a080da30:	0c202893 	jal	a080a24c <find_file>
a080da34:	00000000 	nop
a080da38:	afc2001c 	sw	v0,28(s8)
a080da3c:	27c200a4 	addiu	v0,s8,164
a080da40:	8fc4001c 	lw	a0,28(s8)
a080da44:	00402821 	move	a1,v0
a080da48:	0c202479 	jal	a08091e4 <sync_from_disk_inode>
a080da4c:	00000000 	nop
a080da50:	afc00018 	sw	zero,24(s8)
a080da54:	27c200a4 	addiu	v0,s8,164
a080da58:	00402021 	move	a0,v0
a080da5c:	3c02a086 	lui	v0,0xa086
a080da60:	2445108c 	addiu	a1,v0,4236
a080da64:	0c202893 	jal	a080a24c <find_file>
a080da68:	00000000 	nop
a080da6c:	afc20018 	sw	v0,24(s8)
a080da70:	27c20024 	addiu	v0,s8,36
a080da74:	8fc40018 	lw	a0,24(s8)
a080da78:	00402821 	move	a1,v0
a080da7c:	0c202479 	jal	a08091e4 <sync_from_disk_inode>
a080da80:	00000000 	nop
a080da84:	082036d9 	j	a080db64 <do_symlink+0x20c>
a080da88:	00000000 	nop
a080da8c:	2404002f 	li	a0,47
a080da90:	8fc50130 	lw	a1,304(s8)
a080da94:	0c202428 	jal	a08090a0 <count_char_in_string>
a080da98:	00000000 	nop
a080da9c:	00401821 	move	v1,v0
a080daa0:	24020001 	li	v0,1
a080daa4:	1462002b 	bne	v1,v0,a080db54 <do_symlink+0x1fc>
a080daa8:	00000000 	nop
a080daac:	3c02a086 	lui	v0,0xa086
a080dab0:	2444114c 	addiu	a0,v0,4428
a080dab4:	8fc50130 	lw	a1,304(s8)
a080dab8:	0c203b1a 	jal	a080ec68 <strcpy>
a080dabc:	00000000 	nop
a080dac0:	3c02a086 	lui	v0,0xa086
a080dac4:	2444114c 	addiu	a0,v0,4428
a080dac8:	3c02a087 	lui	v0,0xa087
a080dacc:	2445b9cc 	addiu	a1,v0,-17972
a080dad0:	3c02a086 	lui	v0,0xa086
a080dad4:	2446108c 	addiu	a2,v0,4236
a080dad8:	0c20258f 	jal	a080963c <separate_path>
a080dadc:	00000000 	nop
a080dae0:	afc00014 	sw	zero,20(s8)
a080dae4:	3c02a081 	lui	v0,0xa081
a080dae8:	8c4272d8 	lw	v0,29400(v0)
a080daec:	00402021 	move	a0,v0
a080daf0:	3c02a087 	lui	v0,0xa087
a080daf4:	2445b9cc 	addiu	a1,v0,-17972
a080daf8:	0c202893 	jal	a080a24c <find_file>
a080dafc:	00000000 	nop
a080db00:	afc20014 	sw	v0,20(s8)
a080db04:	27c20024 	addiu	v0,s8,36
a080db08:	8fc40014 	lw	a0,20(s8)
a080db0c:	00402821 	move	a1,v0
a080db10:	0c202479 	jal	a08091e4 <sync_from_disk_inode>
a080db14:	00000000 	nop
a080db18:	afc00010 	sw	zero,16(s8)
a080db1c:	27c20024 	addiu	v0,s8,36
a080db20:	00402021 	move	a0,v0
a080db24:	3c02a086 	lui	v0,0xa086
a080db28:	2445108c 	addiu	a1,v0,4236
a080db2c:	0c202893 	jal	a080a24c <find_file>
a080db30:	00000000 	nop
a080db34:	afc20010 	sw	v0,16(s8)
a080db38:	27c200a4 	addiu	v0,s8,164
a080db3c:	8fc40010 	lw	a0,16(s8)
a080db40:	00402821 	move	a1,v0
a080db44:	0c202479 	jal	a08091e4 <sync_from_disk_inode>
a080db48:	00000000 	nop
a080db4c:	082036d9 	j	a080db64 <do_symlink+0x20c>
a080db50:	00000000 	nop
a080db54:	2404002f 	li	a0,47
a080db58:	8fc50130 	lw	a1,304(s8)
a080db5c:	0c202428 	jal	a08090a0 <count_char_in_string>
a080db60:	00000000 	nop
a080db64:	03c0e821 	move	sp,s8
a080db68:	8fbf012c 	lw	ra,300(sp)
a080db6c:	8fbe0128 	lw	s8,296(sp)
a080db70:	27bd0130 	addiu	sp,sp,304
a080db74:	03e00008 	jr	ra
a080db78:	00000000 	nop
a080db7c:	00000000 	nop

a080db80 <system_call_helper>:
a080db80:	27bdffe0 	addiu	sp,sp,-32
a080db84:	afbf001c 	sw	ra,28(sp)
a080db88:	afbe0018 	sw	s8,24(sp)
a080db8c:	03a0f021 	move	s8,sp
a080db90:	afc40020 	sw	a0,32(s8)
a080db94:	afc50024 	sw	a1,36(s8)
a080db98:	afc60028 	sw	a2,40(s8)
a080db9c:	afc7002c 	sw	a3,44(s8)
a080dba0:	afc00010 	sw	zero,16(s8)
a080dba4:	3c02a081 	lui	v0,0xa081
a080dba8:	8c427290 	lw	v0,29328(v0)
a080dbac:	ac400144 	sw	zero,324(v0)
a080dbb0:	8fc20020 	lw	v0,32(s8)
a080dbb4:	3c03a087 	lui	v1,0xa087
a080dbb8:	00022080 	sll	a0,v0,0x2
a080dbbc:	2462bdcc 	addiu	v0,v1,-16948
a080dbc0:	00821021 	addu	v0,a0,v0
a080dbc4:	8c420000 	lw	v0,0(v0)
a080dbc8:	8fc40024 	lw	a0,36(s8)
a080dbcc:	8fc50028 	lw	a1,40(s8)
a080dbd0:	8fc6002c 	lw	a2,44(s8)
a080dbd4:	0040f809 	jalr	v0
a080dbd8:	00000000 	nop
a080dbdc:	afc20010 	sw	v0,16(s8)
a080dbe0:	3c02a081 	lui	v0,0xa081
a080dbe4:	8c437290 	lw	v1,29328(v0)
a080dbe8:	24020001 	li	v0,1
a080dbec:	ac620144 	sw	v0,324(v1)
a080dbf0:	3c02a081 	lui	v0,0xa081
a080dbf4:	8c437290 	lw	v1,29328(v0)
a080dbf8:	8fc20010 	lw	v0,16(s8)
a080dbfc:	ac6200a4 	sw	v0,164(v1)
a080dc00:	3c02a081 	lui	v0,0xa081
a080dc04:	8c437290 	lw	v1,29328(v0)
a080dc08:	3c02a081 	lui	v0,0xa081
a080dc0c:	8c427290 	lw	v0,29328(v0)
a080dc10:	8c420130 	lw	v0,304(v0)
a080dc14:	24420004 	addiu	v0,v0,4
a080dc18:	ac620130 	sw	v0,304(v1)
a080dc1c:	03c0e821 	move	sp,s8
a080dc20:	8fbf001c 	lw	ra,28(sp)
a080dc24:	8fbe0018 	lw	s8,24(sp)
a080dc28:	27bd0020 	addiu	sp,sp,32
a080dc2c:	03e00008 	jr	ra
a080dc30:	00000000 	nop

a080dc34 <invalid_syscall>:
a080dc34:	27bdfff8 	addiu	sp,sp,-8
a080dc38:	afbe0004 	sw	s8,4(sp)
a080dc3c:	03a0f021 	move	s8,sp
a080dc40:	03c0e821 	move	sp,s8
a080dc44:	8fbe0004 	lw	s8,4(sp)
a080dc48:	27bd0008 	addiu	sp,sp,8
a080dc4c:	03e00008 	jr	ra
a080dc50:	00000000 	nop

a080dc54 <sys_sleep>:
a080dc54:	27bdffe8 	addiu	sp,sp,-24
a080dc58:	afbf0014 	sw	ra,20(sp)
a080dc5c:	afbe0010 	sw	s8,16(sp)
a080dc60:	03a0f021 	move	s8,sp
a080dc64:	afc40018 	sw	a0,24(s8)
a080dc68:	8fc20018 	lw	v0,24(s8)
a080dc6c:	24040002 	li	a0,2
a080dc70:	00402821 	move	a1,v0
a080dc74:	00003021 	move	a2,zero
a080dc78:	00003821 	move	a3,zero
a080dc7c:	0c2004ac 	jal	a08012b0 <invoke_syscall>
a080dc80:	00000000 	nop
a080dc84:	03c0e821 	move	sp,s8
a080dc88:	8fbf0014 	lw	ra,20(sp)
a080dc8c:	8fbe0010 	lw	s8,16(sp)
a080dc90:	27bd0018 	addiu	sp,sp,24
a080dc94:	03e00008 	jr	ra
a080dc98:	00000000 	nop

a080dc9c <sys_block>:
a080dc9c:	27bdffe8 	addiu	sp,sp,-24
a080dca0:	afbf0014 	sw	ra,20(sp)
a080dca4:	afbe0010 	sw	s8,16(sp)
a080dca8:	03a0f021 	move	s8,sp
a080dcac:	afc40018 	sw	a0,24(s8)
a080dcb0:	8fc20018 	lw	v0,24(s8)
a080dcb4:	2404000a 	li	a0,10
a080dcb8:	00402821 	move	a1,v0
a080dcbc:	00003021 	move	a2,zero
a080dcc0:	00003821 	move	a3,zero
a080dcc4:	0c2004ac 	jal	a08012b0 <invoke_syscall>
a080dcc8:	00000000 	nop
a080dccc:	03c0e821 	move	sp,s8
a080dcd0:	8fbf0014 	lw	ra,20(sp)
a080dcd4:	8fbe0010 	lw	s8,16(sp)
a080dcd8:	27bd0018 	addiu	sp,sp,24
a080dcdc:	03e00008 	jr	ra
a080dce0:	00000000 	nop

a080dce4 <sys_unblock_one>:
a080dce4:	27bdffe8 	addiu	sp,sp,-24
a080dce8:	afbf0014 	sw	ra,20(sp)
a080dcec:	afbe0010 	sw	s8,16(sp)
a080dcf0:	03a0f021 	move	s8,sp
a080dcf4:	afc40018 	sw	a0,24(s8)
a080dcf8:	8fc20018 	lw	v0,24(s8)
a080dcfc:	2404000b 	li	a0,11
a080dd00:	00402821 	move	a1,v0
a080dd04:	00003021 	move	a2,zero
a080dd08:	00003821 	move	a3,zero
a080dd0c:	0c2004ac 	jal	a08012b0 <invoke_syscall>
a080dd10:	00000000 	nop
a080dd14:	03c0e821 	move	sp,s8
a080dd18:	8fbf0014 	lw	ra,20(sp)
a080dd1c:	8fbe0010 	lw	s8,16(sp)
a080dd20:	27bd0018 	addiu	sp,sp,24
a080dd24:	03e00008 	jr	ra
a080dd28:	00000000 	nop

a080dd2c <sys_unblock_all>:
a080dd2c:	27bdffe8 	addiu	sp,sp,-24
a080dd30:	afbf0014 	sw	ra,20(sp)
a080dd34:	afbe0010 	sw	s8,16(sp)
a080dd38:	03a0f021 	move	s8,sp
a080dd3c:	afc40018 	sw	a0,24(s8)
a080dd40:	8fc20018 	lw	v0,24(s8)
a080dd44:	2404000c 	li	a0,12
a080dd48:	00402821 	move	a1,v0
a080dd4c:	00003021 	move	a2,zero
a080dd50:	00003821 	move	a3,zero
a080dd54:	0c2004ac 	jal	a08012b0 <invoke_syscall>
a080dd58:	00000000 	nop
a080dd5c:	03c0e821 	move	sp,s8
a080dd60:	8fbf0014 	lw	ra,20(sp)
a080dd64:	8fbe0010 	lw	s8,16(sp)
a080dd68:	27bd0018 	addiu	sp,sp,24
a080dd6c:	03e00008 	jr	ra
a080dd70:	00000000 	nop

a080dd74 <sys_write>:
a080dd74:	27bdffe8 	addiu	sp,sp,-24
a080dd78:	afbf0014 	sw	ra,20(sp)
a080dd7c:	afbe0010 	sw	s8,16(sp)
a080dd80:	03a0f021 	move	s8,sp
a080dd84:	afc40018 	sw	a0,24(s8)
a080dd88:	8fc20018 	lw	v0,24(s8)
a080dd8c:	24040014 	li	a0,20
a080dd90:	00402821 	move	a1,v0
a080dd94:	00003021 	move	a2,zero
a080dd98:	00003821 	move	a3,zero
a080dd9c:	0c2004ac 	jal	a08012b0 <invoke_syscall>
a080dda0:	00000000 	nop
a080dda4:	03c0e821 	move	sp,s8
a080dda8:	8fbf0014 	lw	ra,20(sp)
a080ddac:	8fbe0010 	lw	s8,16(sp)
a080ddb0:	27bd0018 	addiu	sp,sp,24
a080ddb4:	03e00008 	jr	ra
a080ddb8:	00000000 	nop

a080ddbc <sys_read>:
a080ddbc:	27bdfff8 	addiu	sp,sp,-8
a080ddc0:	afbe0004 	sw	s8,4(sp)
a080ddc4:	03a0f021 	move	s8,sp
a080ddc8:	afc40008 	sw	a0,8(s8)
a080ddcc:	03c0e821 	move	sp,s8
a080ddd0:	8fbe0004 	lw	s8,4(sp)
a080ddd4:	27bd0008 	addiu	sp,sp,8
a080ddd8:	03e00008 	jr	ra
a080dddc:	00000000 	nop

a080dde0 <sys_reflush>:
a080dde0:	27bdffe8 	addiu	sp,sp,-24
a080dde4:	afbf0014 	sw	ra,20(sp)
a080dde8:	afbe0010 	sw	s8,16(sp)
a080ddec:	03a0f021 	move	s8,sp
a080ddf0:	24040017 	li	a0,23
a080ddf4:	00002821 	move	a1,zero
a080ddf8:	00003021 	move	a2,zero
a080ddfc:	00003821 	move	a3,zero
a080de00:	0c2004ac 	jal	a08012b0 <invoke_syscall>
a080de04:	00000000 	nop
a080de08:	03c0e821 	move	sp,s8
a080de0c:	8fbf0014 	lw	ra,20(sp)
a080de10:	8fbe0010 	lw	s8,16(sp)
a080de14:	27bd0018 	addiu	sp,sp,24
a080de18:	03e00008 	jr	ra
a080de1c:	00000000 	nop

a080de20 <sys_move_cursor>:
a080de20:	27bdffe8 	addiu	sp,sp,-24
a080de24:	afbf0014 	sw	ra,20(sp)
a080de28:	afbe0010 	sw	s8,16(sp)
a080de2c:	03a0f021 	move	s8,sp
a080de30:	afc40018 	sw	a0,24(s8)
a080de34:	afc5001c 	sw	a1,28(s8)
a080de38:	24040016 	li	a0,22
a080de3c:	8fc50018 	lw	a1,24(s8)
a080de40:	8fc6001c 	lw	a2,28(s8)
a080de44:	00003821 	move	a3,zero
a080de48:	0c2004ac 	jal	a08012b0 <invoke_syscall>
a080de4c:	00000000 	nop
a080de50:	03c0e821 	move	sp,s8
a080de54:	8fbf0014 	lw	ra,20(sp)
a080de58:	8fbe0010 	lw	s8,16(sp)
a080de5c:	27bd0018 	addiu	sp,sp,24
a080de60:	03e00008 	jr	ra
a080de64:	00000000 	nop

a080de68 <sys_screen_clear>:
a080de68:	27bdffe8 	addiu	sp,sp,-24
a080de6c:	afbf0014 	sw	ra,20(sp)
a080de70:	afbe0010 	sw	s8,16(sp)
a080de74:	03a0f021 	move	s8,sp
a080de78:	24040018 	li	a0,24
a080de7c:	00002821 	move	a1,zero
a080de80:	00003021 	move	a2,zero
a080de84:	00003821 	move	a3,zero
a080de88:	0c2004ac 	jal	a08012b0 <invoke_syscall>
a080de8c:	00000000 	nop
a080de90:	03c0e821 	move	sp,s8
a080de94:	8fbf0014 	lw	ra,20(sp)
a080de98:	8fbe0010 	lw	s8,16(sp)
a080de9c:	27bd0018 	addiu	sp,sp,24
a080dea0:	03e00008 	jr	ra
a080dea4:	00000000 	nop

a080dea8 <mutex_lock_init>:
a080dea8:	27bdffe8 	addiu	sp,sp,-24
a080deac:	afbf0014 	sw	ra,20(sp)
a080deb0:	afbe0010 	sw	s8,16(sp)
a080deb4:	03a0f021 	move	s8,sp
a080deb8:	afc40018 	sw	a0,24(s8)
a080debc:	8fc20018 	lw	v0,24(s8)
a080dec0:	2404001e 	li	a0,30
a080dec4:	00402821 	move	a1,v0
a080dec8:	00003021 	move	a2,zero
a080decc:	00003821 	move	a3,zero
a080ded0:	0c2004ac 	jal	a08012b0 <invoke_syscall>
a080ded4:	00000000 	nop
a080ded8:	03c0e821 	move	sp,s8
a080dedc:	8fbf0014 	lw	ra,20(sp)
a080dee0:	8fbe0010 	lw	s8,16(sp)
a080dee4:	27bd0018 	addiu	sp,sp,24
a080dee8:	03e00008 	jr	ra
a080deec:	00000000 	nop

a080def0 <mutex_lock_acquire>:
a080def0:	27bdffe8 	addiu	sp,sp,-24
a080def4:	afbf0014 	sw	ra,20(sp)
a080def8:	afbe0010 	sw	s8,16(sp)
a080defc:	03a0f021 	move	s8,sp
a080df00:	afc40018 	sw	a0,24(s8)
a080df04:	8fc20018 	lw	v0,24(s8)
a080df08:	2404001f 	li	a0,31
a080df0c:	00402821 	move	a1,v0
a080df10:	00003021 	move	a2,zero
a080df14:	00003821 	move	a3,zero
a080df18:	0c2004ac 	jal	a08012b0 <invoke_syscall>
a080df1c:	00000000 	nop
a080df20:	03c0e821 	move	sp,s8
a080df24:	8fbf0014 	lw	ra,20(sp)
a080df28:	8fbe0010 	lw	s8,16(sp)
a080df2c:	27bd0018 	addiu	sp,sp,24
a080df30:	03e00008 	jr	ra
a080df34:	00000000 	nop

a080df38 <mutex_lock_release>:
a080df38:	27bdffe8 	addiu	sp,sp,-24
a080df3c:	afbf0014 	sw	ra,20(sp)
a080df40:	afbe0010 	sw	s8,16(sp)
a080df44:	03a0f021 	move	s8,sp
a080df48:	afc40018 	sw	a0,24(s8)
a080df4c:	8fc20018 	lw	v0,24(s8)
a080df50:	24040020 	li	a0,32
a080df54:	00402821 	move	a1,v0
a080df58:	00003021 	move	a2,zero
a080df5c:	00003821 	move	a3,zero
a080df60:	0c2004ac 	jal	a08012b0 <invoke_syscall>
a080df64:	00000000 	nop
a080df68:	03c0e821 	move	sp,s8
a080df6c:	8fbf0014 	lw	ra,20(sp)
a080df70:	8fbe0010 	lw	s8,16(sp)
a080df74:	27bd0018 	addiu	sp,sp,24
a080df78:	03e00008 	jr	ra
a080df7c:	00000000 	nop

a080df80 <semaphore_init>:
a080df80:	27bdffe8 	addiu	sp,sp,-24
a080df84:	afbf0014 	sw	ra,20(sp)
a080df88:	afbe0010 	sw	s8,16(sp)
a080df8c:	03a0f021 	move	s8,sp
a080df90:	afc40018 	sw	a0,24(s8)
a080df94:	afc5001c 	sw	a1,28(s8)
a080df98:	8fc20018 	lw	v0,24(s8)
a080df9c:	24040021 	li	a0,33
a080dfa0:	00402821 	move	a1,v0
a080dfa4:	8fc6001c 	lw	a2,28(s8)
a080dfa8:	00003821 	move	a3,zero
a080dfac:	0c2004ac 	jal	a08012b0 <invoke_syscall>
a080dfb0:	00000000 	nop
a080dfb4:	03c0e821 	move	sp,s8
a080dfb8:	8fbf0014 	lw	ra,20(sp)
a080dfbc:	8fbe0010 	lw	s8,16(sp)
a080dfc0:	27bd0018 	addiu	sp,sp,24
a080dfc4:	03e00008 	jr	ra
a080dfc8:	00000000 	nop

a080dfcc <semaphore_up>:
a080dfcc:	27bdffe8 	addiu	sp,sp,-24
a080dfd0:	afbf0014 	sw	ra,20(sp)
a080dfd4:	afbe0010 	sw	s8,16(sp)
a080dfd8:	03a0f021 	move	s8,sp
a080dfdc:	afc40018 	sw	a0,24(s8)
a080dfe0:	8fc20018 	lw	v0,24(s8)
a080dfe4:	24040022 	li	a0,34
a080dfe8:	00402821 	move	a1,v0
a080dfec:	00003021 	move	a2,zero
a080dff0:	00003821 	move	a3,zero
a080dff4:	0c2004ac 	jal	a08012b0 <invoke_syscall>
a080dff8:	00000000 	nop
a080dffc:	03c0e821 	move	sp,s8
a080e000:	8fbf0014 	lw	ra,20(sp)
a080e004:	8fbe0010 	lw	s8,16(sp)
a080e008:	27bd0018 	addiu	sp,sp,24
a080e00c:	03e00008 	jr	ra
a080e010:	00000000 	nop

a080e014 <semaphore_down>:
a080e014:	27bdffe8 	addiu	sp,sp,-24
a080e018:	afbf0014 	sw	ra,20(sp)
a080e01c:	afbe0010 	sw	s8,16(sp)
a080e020:	03a0f021 	move	s8,sp
a080e024:	afc40018 	sw	a0,24(s8)
a080e028:	8fc20018 	lw	v0,24(s8)
a080e02c:	24040023 	li	a0,35
a080e030:	00402821 	move	a1,v0
a080e034:	00003021 	move	a2,zero
a080e038:	00003821 	move	a3,zero
a080e03c:	0c2004ac 	jal	a08012b0 <invoke_syscall>
a080e040:	00000000 	nop
a080e044:	03c0e821 	move	sp,s8
a080e048:	8fbf0014 	lw	ra,20(sp)
a080e04c:	8fbe0010 	lw	s8,16(sp)
a080e050:	27bd0018 	addiu	sp,sp,24
a080e054:	03e00008 	jr	ra
a080e058:	00000000 	nop

a080e05c <condition_init>:
a080e05c:	27bdffe8 	addiu	sp,sp,-24
a080e060:	afbf0014 	sw	ra,20(sp)
a080e064:	afbe0010 	sw	s8,16(sp)
a080e068:	03a0f021 	move	s8,sp
a080e06c:	afc40018 	sw	a0,24(s8)
a080e070:	8fc20018 	lw	v0,24(s8)
a080e074:	24040024 	li	a0,36
a080e078:	00402821 	move	a1,v0
a080e07c:	00003021 	move	a2,zero
a080e080:	00003821 	move	a3,zero
a080e084:	0c2004ac 	jal	a08012b0 <invoke_syscall>
a080e088:	00000000 	nop
a080e08c:	03c0e821 	move	sp,s8
a080e090:	8fbf0014 	lw	ra,20(sp)
a080e094:	8fbe0010 	lw	s8,16(sp)
a080e098:	27bd0018 	addiu	sp,sp,24
a080e09c:	03e00008 	jr	ra
a080e0a0:	00000000 	nop

a080e0a4 <condition_wait>:
a080e0a4:	27bdffe8 	addiu	sp,sp,-24
a080e0a8:	afbf0014 	sw	ra,20(sp)
a080e0ac:	afbe0010 	sw	s8,16(sp)
a080e0b0:	03a0f021 	move	s8,sp
a080e0b4:	afc40018 	sw	a0,24(s8)
a080e0b8:	afc5001c 	sw	a1,28(s8)
a080e0bc:	8fc20018 	lw	v0,24(s8)
a080e0c0:	8fc3001c 	lw	v1,28(s8)
a080e0c4:	24040025 	li	a0,37
a080e0c8:	00402821 	move	a1,v0
a080e0cc:	00603021 	move	a2,v1
a080e0d0:	00003821 	move	a3,zero
a080e0d4:	0c2004ac 	jal	a08012b0 <invoke_syscall>
a080e0d8:	00000000 	nop
a080e0dc:	03c0e821 	move	sp,s8
a080e0e0:	8fbf0014 	lw	ra,20(sp)
a080e0e4:	8fbe0010 	lw	s8,16(sp)
a080e0e8:	27bd0018 	addiu	sp,sp,24
a080e0ec:	03e00008 	jr	ra
a080e0f0:	00000000 	nop

a080e0f4 <condition_signal>:
a080e0f4:	27bdffe8 	addiu	sp,sp,-24
a080e0f8:	afbf0014 	sw	ra,20(sp)
a080e0fc:	afbe0010 	sw	s8,16(sp)
a080e100:	03a0f021 	move	s8,sp
a080e104:	afc40018 	sw	a0,24(s8)
a080e108:	8fc20018 	lw	v0,24(s8)
a080e10c:	24040026 	li	a0,38
a080e110:	00402821 	move	a1,v0
a080e114:	00003021 	move	a2,zero
a080e118:	00003821 	move	a3,zero
a080e11c:	0c2004ac 	jal	a08012b0 <invoke_syscall>
a080e120:	00000000 	nop
a080e124:	03c0e821 	move	sp,s8
a080e128:	8fbf0014 	lw	ra,20(sp)
a080e12c:	8fbe0010 	lw	s8,16(sp)
a080e130:	27bd0018 	addiu	sp,sp,24
a080e134:	03e00008 	jr	ra
a080e138:	00000000 	nop

a080e13c <condition_broadcast>:
a080e13c:	27bdffe8 	addiu	sp,sp,-24
a080e140:	afbf0014 	sw	ra,20(sp)
a080e144:	afbe0010 	sw	s8,16(sp)
a080e148:	03a0f021 	move	s8,sp
a080e14c:	afc40018 	sw	a0,24(s8)
a080e150:	8fc20018 	lw	v0,24(s8)
a080e154:	24040027 	li	a0,39
a080e158:	00402821 	move	a1,v0
a080e15c:	00003021 	move	a2,zero
a080e160:	00003821 	move	a3,zero
a080e164:	0c2004ac 	jal	a08012b0 <invoke_syscall>
a080e168:	00000000 	nop
a080e16c:	03c0e821 	move	sp,s8
a080e170:	8fbf0014 	lw	ra,20(sp)
a080e174:	8fbe0010 	lw	s8,16(sp)
a080e178:	27bd0018 	addiu	sp,sp,24
a080e17c:	03e00008 	jr	ra
a080e180:	00000000 	nop

a080e184 <barrier_init>:
a080e184:	27bdffe8 	addiu	sp,sp,-24
a080e188:	afbf0014 	sw	ra,20(sp)
a080e18c:	afbe0010 	sw	s8,16(sp)
a080e190:	03a0f021 	move	s8,sp
a080e194:	afc40018 	sw	a0,24(s8)
a080e198:	afc5001c 	sw	a1,28(s8)
a080e19c:	8fc20018 	lw	v0,24(s8)
a080e1a0:	24040028 	li	a0,40
a080e1a4:	00402821 	move	a1,v0
a080e1a8:	8fc6001c 	lw	a2,28(s8)
a080e1ac:	00003821 	move	a3,zero
a080e1b0:	0c2004ac 	jal	a08012b0 <invoke_syscall>
a080e1b4:	00000000 	nop
a080e1b8:	03c0e821 	move	sp,s8
a080e1bc:	8fbf0014 	lw	ra,20(sp)
a080e1c0:	8fbe0010 	lw	s8,16(sp)
a080e1c4:	27bd0018 	addiu	sp,sp,24
a080e1c8:	03e00008 	jr	ra
a080e1cc:	00000000 	nop

a080e1d0 <barrier_wait>:
a080e1d0:	27bdffe8 	addiu	sp,sp,-24
a080e1d4:	afbf0014 	sw	ra,20(sp)
a080e1d8:	afbe0010 	sw	s8,16(sp)
a080e1dc:	03a0f021 	move	s8,sp
a080e1e0:	afc40018 	sw	a0,24(s8)
a080e1e4:	8fc20018 	lw	v0,24(s8)
a080e1e8:	24040029 	li	a0,41
a080e1ec:	00402821 	move	a1,v0
a080e1f0:	00003021 	move	a2,zero
a080e1f4:	00003821 	move	a3,zero
a080e1f8:	0c2004ac 	jal	a08012b0 <invoke_syscall>
a080e1fc:	00000000 	nop
a080e200:	03c0e821 	move	sp,s8
a080e204:	8fbf0014 	lw	ra,20(sp)
a080e208:	8fbe0010 	lw	s8,16(sp)
a080e20c:	27bd0018 	addiu	sp,sp,24
a080e210:	03e00008 	jr	ra
a080e214:	00000000 	nop

a080e218 <sys_spawn>:
a080e218:	27bdffe8 	addiu	sp,sp,-24
a080e21c:	afbf0014 	sw	ra,20(sp)
a080e220:	afbe0010 	sw	s8,16(sp)
a080e224:	03a0f021 	move	s8,sp
a080e228:	afc40018 	sw	a0,24(s8)
a080e22c:	8fc20018 	lw	v0,24(s8)
a080e230:	2404002d 	li	a0,45
a080e234:	00402821 	move	a1,v0
a080e238:	00003021 	move	a2,zero
a080e23c:	00003821 	move	a3,zero
a080e240:	0c2004ac 	jal	a08012b0 <invoke_syscall>
a080e244:	00000000 	nop
a080e248:	03c0e821 	move	sp,s8
a080e24c:	8fbf0014 	lw	ra,20(sp)
a080e250:	8fbe0010 	lw	s8,16(sp)
a080e254:	27bd0018 	addiu	sp,sp,24
a080e258:	03e00008 	jr	ra
a080e25c:	00000000 	nop

a080e260 <sys_exit>:
a080e260:	27bdffe8 	addiu	sp,sp,-24
a080e264:	afbf0014 	sw	ra,20(sp)
a080e268:	afbe0010 	sw	s8,16(sp)
a080e26c:	03a0f021 	move	s8,sp
a080e270:	2404002a 	li	a0,42
a080e274:	00002821 	move	a1,zero
a080e278:	00003021 	move	a2,zero
a080e27c:	00003821 	move	a3,zero
a080e280:	0c2004ac 	jal	a08012b0 <invoke_syscall>
a080e284:	00000000 	nop
a080e288:	03c0e821 	move	sp,s8
a080e28c:	8fbf0014 	lw	ra,20(sp)
a080e290:	8fbe0010 	lw	s8,16(sp)
a080e294:	27bd0018 	addiu	sp,sp,24
a080e298:	03e00008 	jr	ra
a080e29c:	00000000 	nop

a080e2a0 <sys_getpid>:
a080e2a0:	27bdffe0 	addiu	sp,sp,-32
a080e2a4:	afbf001c 	sw	ra,28(sp)
a080e2a8:	afbe0018 	sw	s8,24(sp)
a080e2ac:	03a0f021 	move	s8,sp
a080e2b0:	2404002c 	li	a0,44
a080e2b4:	00002821 	move	a1,zero
a080e2b8:	00003021 	move	a2,zero
a080e2bc:	00003821 	move	a3,zero
a080e2c0:	0c2004ac 	jal	a08012b0 <invoke_syscall>
a080e2c4:	00000000 	nop
a080e2c8:	03c0e821 	move	sp,s8
a080e2cc:	8fbf001c 	lw	ra,28(sp)
a080e2d0:	8fbe0018 	lw	s8,24(sp)
a080e2d4:	27bd0020 	addiu	sp,sp,32
a080e2d8:	03e00008 	jr	ra
a080e2dc:	00000000 	nop

a080e2e0 <sys_waitpid>:
a080e2e0:	27bdffe8 	addiu	sp,sp,-24
a080e2e4:	afbf0014 	sw	ra,20(sp)
a080e2e8:	afbe0010 	sw	s8,16(sp)
a080e2ec:	03a0f021 	move	s8,sp
a080e2f0:	afc40018 	sw	a0,24(s8)
a080e2f4:	2404002b 	li	a0,43
a080e2f8:	8fc50018 	lw	a1,24(s8)
a080e2fc:	00003021 	move	a2,zero
a080e300:	00003821 	move	a3,zero
a080e304:	0c2004ac 	jal	a08012b0 <invoke_syscall>
a080e308:	00000000 	nop
a080e30c:	03c0e821 	move	sp,s8
a080e310:	8fbf0014 	lw	ra,20(sp)
a080e314:	8fbe0010 	lw	s8,16(sp)
a080e318:	27bd0018 	addiu	sp,sp,24
a080e31c:	03e00008 	jr	ra
a080e320:	00000000 	nop

a080e324 <sys_kill>:
a080e324:	27bdffe8 	addiu	sp,sp,-24
a080e328:	afbf0014 	sw	ra,20(sp)
a080e32c:	afbe0010 	sw	s8,16(sp)
a080e330:	03a0f021 	move	s8,sp
a080e334:	afc40018 	sw	a0,24(s8)
a080e338:	2404002e 	li	a0,46
a080e33c:	8fc50018 	lw	a1,24(s8)
a080e340:	00003021 	move	a2,zero
a080e344:	00003821 	move	a3,zero
a080e348:	0c2004ac 	jal	a08012b0 <invoke_syscall>
a080e34c:	00000000 	nop
a080e350:	03c0e821 	move	sp,s8
a080e354:	8fbf0014 	lw	ra,20(sp)
a080e358:	8fbe0010 	lw	s8,16(sp)
a080e35c:	27bd0018 	addiu	sp,sp,24
a080e360:	03e00008 	jr	ra
a080e364:	00000000 	nop

a080e368 <sys_ps>:
a080e368:	27bdffe8 	addiu	sp,sp,-24
a080e36c:	afbf0014 	sw	ra,20(sp)
a080e370:	afbe0010 	sw	s8,16(sp)
a080e374:	03a0f021 	move	s8,sp
a080e378:	2404002f 	li	a0,47
a080e37c:	00002821 	move	a1,zero
a080e380:	00003021 	move	a2,zero
a080e384:	00003821 	move	a3,zero
a080e388:	0c2004ac 	jal	a08012b0 <invoke_syscall>
a080e38c:	00000000 	nop
a080e390:	03c0e821 	move	sp,s8
a080e394:	8fbf0014 	lw	ra,20(sp)
a080e398:	8fbe0010 	lw	s8,16(sp)
a080e39c:	27bd0018 	addiu	sp,sp,24
a080e3a0:	03e00008 	jr	ra
a080e3a4:	00000000 	nop

a080e3a8 <sys_scanf>:
a080e3a8:	27bdffe0 	addiu	sp,sp,-32
a080e3ac:	afbf001c 	sw	ra,28(sp)
a080e3b0:	afbe0018 	sw	s8,24(sp)
a080e3b4:	03a0f021 	move	s8,sp
a080e3b8:	afc40020 	sw	a0,32(s8)
a080e3bc:	8fc20020 	lw	v0,32(s8)
a080e3c0:	24040030 	li	a0,48
a080e3c4:	00402821 	move	a1,v0
a080e3c8:	00003021 	move	a2,zero
a080e3cc:	00003821 	move	a3,zero
a080e3d0:	0c2004ac 	jal	a08012b0 <invoke_syscall>
a080e3d4:	00000000 	nop
a080e3d8:	03c0e821 	move	sp,s8
a080e3dc:	8fbf001c 	lw	ra,28(sp)
a080e3e0:	8fbe0018 	lw	s8,24(sp)
a080e3e4:	27bd0020 	addiu	sp,sp,32
a080e3e8:	03e00008 	jr	ra
a080e3ec:	00000000 	nop

a080e3f0 <sys_init_mac>:
a080e3f0:	27bdffe8 	addiu	sp,sp,-24
a080e3f4:	afbf0014 	sw	ra,20(sp)
a080e3f8:	afbe0010 	sw	s8,16(sp)
a080e3fc:	03a0f021 	move	s8,sp
a080e400:	24040033 	li	a0,51
a080e404:	00002821 	move	a1,zero
a080e408:	00003021 	move	a2,zero
a080e40c:	00003821 	move	a3,zero
a080e410:	0c2004ac 	jal	a08012b0 <invoke_syscall>
a080e414:	00000000 	nop
a080e418:	03c0e821 	move	sp,s8
a080e41c:	8fbf0014 	lw	ra,20(sp)
a080e420:	8fbe0010 	lw	s8,16(sp)
a080e424:	27bd0018 	addiu	sp,sp,24
a080e428:	03e00008 	jr	ra
a080e42c:	00000000 	nop

a080e430 <sys_net_send>:
a080e430:	27bdffe8 	addiu	sp,sp,-24
a080e434:	afbf0014 	sw	ra,20(sp)
a080e438:	afbe0010 	sw	s8,16(sp)
a080e43c:	03a0f021 	move	s8,sp
a080e440:	afc40018 	sw	a0,24(s8)
a080e444:	afc5001c 	sw	a1,28(s8)
a080e448:	8fc20018 	lw	v0,24(s8)
a080e44c:	8fc3001c 	lw	v1,28(s8)
a080e450:	24040034 	li	a0,52
a080e454:	00402821 	move	a1,v0
a080e458:	00603021 	move	a2,v1
a080e45c:	00003821 	move	a3,zero
a080e460:	0c2004ac 	jal	a08012b0 <invoke_syscall>
a080e464:	00000000 	nop
a080e468:	03c0e821 	move	sp,s8
a080e46c:	8fbf0014 	lw	ra,20(sp)
a080e470:	8fbe0010 	lw	s8,16(sp)
a080e474:	27bd0018 	addiu	sp,sp,24
a080e478:	03e00008 	jr	ra
a080e47c:	00000000 	nop

a080e480 <sys_net_recv>:
a080e480:	27bdffe0 	addiu	sp,sp,-32
a080e484:	afbf001c 	sw	ra,28(sp)
a080e488:	afbe0018 	sw	s8,24(sp)
a080e48c:	03a0f021 	move	s8,sp
a080e490:	afc40020 	sw	a0,32(s8)
a080e494:	afc50024 	sw	a1,36(s8)
a080e498:	afc60028 	sw	a2,40(s8)
a080e49c:	8fc20020 	lw	v0,32(s8)
a080e4a0:	8fc30024 	lw	v1,36(s8)
a080e4a4:	8fc70028 	lw	a3,40(s8)
a080e4a8:	24040031 	li	a0,49
a080e4ac:	00402821 	move	a1,v0
a080e4b0:	00603021 	move	a2,v1
a080e4b4:	0c2004ac 	jal	a08012b0 <invoke_syscall>
a080e4b8:	00000000 	nop
a080e4bc:	03c0e821 	move	sp,s8
a080e4c0:	8fbf001c 	lw	ra,28(sp)
a080e4c4:	8fbe0018 	lw	s8,24(sp)
a080e4c8:	27bd0020 	addiu	sp,sp,32
a080e4cc:	03e00008 	jr	ra
a080e4d0:	00000000 	nop

a080e4d4 <sys_wait_recv_package>:
a080e4d4:	27bdffe8 	addiu	sp,sp,-24
a080e4d8:	afbf0014 	sw	ra,20(sp)
a080e4dc:	afbe0010 	sw	s8,16(sp)
a080e4e0:	03a0f021 	move	s8,sp
a080e4e4:	24040032 	li	a0,50
a080e4e8:	00002821 	move	a1,zero
a080e4ec:	00003021 	move	a2,zero
a080e4f0:	00003821 	move	a3,zero
a080e4f4:	0c2004ac 	jal	a08012b0 <invoke_syscall>
a080e4f8:	00000000 	nop
a080e4fc:	03c0e821 	move	sp,s8
a080e500:	8fbf0014 	lw	ra,20(sp)
a080e504:	8fbe0010 	lw	s8,16(sp)
a080e508:	27bd0018 	addiu	sp,sp,24
a080e50c:	03e00008 	jr	ra
a080e510:	00000000 	nop

a080e514 <sys_net_fast_recv>:
a080e514:	27bdffe8 	addiu	sp,sp,-24
a080e518:	afbf0014 	sw	ra,20(sp)
a080e51c:	afbe0010 	sw	s8,16(sp)
a080e520:	03a0f021 	move	s8,sp
a080e524:	afc40018 	sw	a0,24(s8)
a080e528:	afc5001c 	sw	a1,28(s8)
a080e52c:	afc60020 	sw	a2,32(s8)
a080e530:	8fc20018 	lw	v0,24(s8)
a080e534:	8fc3001c 	lw	v1,28(s8)
a080e538:	8fc70020 	lw	a3,32(s8)
a080e53c:	24040035 	li	a0,53
a080e540:	00402821 	move	a1,v0
a080e544:	00603021 	move	a2,v1
a080e548:	0c2004ac 	jal	a08012b0 <invoke_syscall>
a080e54c:	00000000 	nop
a080e550:	03c0e821 	move	sp,s8
a080e554:	8fbf0014 	lw	ra,20(sp)
a080e558:	8fbe0010 	lw	s8,16(sp)
a080e55c:	27bd0018 	addiu	sp,sp,24
a080e560:	03e00008 	jr	ra
a080e564:	00000000 	nop

a080e568 <sys_fopen>:
a080e568:	27bdffe0 	addiu	sp,sp,-32
a080e56c:	afbf001c 	sw	ra,28(sp)
a080e570:	afbe0018 	sw	s8,24(sp)
a080e574:	03a0f021 	move	s8,sp
a080e578:	afc40020 	sw	a0,32(s8)
a080e57c:	afc50024 	sw	a1,36(s8)
a080e580:	8fc20020 	lw	v0,32(s8)
a080e584:	8fc30024 	lw	v1,36(s8)
a080e588:	24040036 	li	a0,54
a080e58c:	00402821 	move	a1,v0
a080e590:	00603021 	move	a2,v1
a080e594:	00003821 	move	a3,zero
a080e598:	0c2004ac 	jal	a08012b0 <invoke_syscall>
a080e59c:	00000000 	nop
a080e5a0:	03c0e821 	move	sp,s8
a080e5a4:	8fbf001c 	lw	ra,28(sp)
a080e5a8:	8fbe0018 	lw	s8,24(sp)
a080e5ac:	27bd0020 	addiu	sp,sp,32
a080e5b0:	03e00008 	jr	ra
a080e5b4:	00000000 	nop

a080e5b8 <sys_fwrite>:
a080e5b8:	27bdffe8 	addiu	sp,sp,-24
a080e5bc:	afbf0014 	sw	ra,20(sp)
a080e5c0:	afbe0010 	sw	s8,16(sp)
a080e5c4:	03a0f021 	move	s8,sp
a080e5c8:	afc40018 	sw	a0,24(s8)
a080e5cc:	afc5001c 	sw	a1,28(s8)
a080e5d0:	afc60020 	sw	a2,32(s8)
a080e5d4:	8fc2001c 	lw	v0,28(s8)
a080e5d8:	24040037 	li	a0,55
a080e5dc:	8fc50018 	lw	a1,24(s8)
a080e5e0:	00403021 	move	a2,v0
a080e5e4:	8fc70020 	lw	a3,32(s8)
a080e5e8:	0c2004ac 	jal	a08012b0 <invoke_syscall>
a080e5ec:	00000000 	nop
a080e5f0:	03c0e821 	move	sp,s8
a080e5f4:	8fbf0014 	lw	ra,20(sp)
a080e5f8:	8fbe0010 	lw	s8,16(sp)
a080e5fc:	27bd0018 	addiu	sp,sp,24
a080e600:	03e00008 	jr	ra
a080e604:	00000000 	nop

a080e608 <sys_fread>:
a080e608:	27bdffe8 	addiu	sp,sp,-24
a080e60c:	afbf0014 	sw	ra,20(sp)
a080e610:	afbe0010 	sw	s8,16(sp)
a080e614:	03a0f021 	move	s8,sp
a080e618:	afc40018 	sw	a0,24(s8)
a080e61c:	afc5001c 	sw	a1,28(s8)
a080e620:	afc60020 	sw	a2,32(s8)
a080e624:	8fc2001c 	lw	v0,28(s8)
a080e628:	24040038 	li	a0,56
a080e62c:	8fc50018 	lw	a1,24(s8)
a080e630:	00403021 	move	a2,v0
a080e634:	8fc70020 	lw	a3,32(s8)
a080e638:	0c2004ac 	jal	a08012b0 <invoke_syscall>
a080e63c:	00000000 	nop
a080e640:	03c0e821 	move	sp,s8
a080e644:	8fbf0014 	lw	ra,20(sp)
a080e648:	8fbe0010 	lw	s8,16(sp)
a080e64c:	27bd0018 	addiu	sp,sp,24
a080e650:	03e00008 	jr	ra
a080e654:	00000000 	nop

a080e658 <sys_fclose>:
a080e658:	27bdffe8 	addiu	sp,sp,-24
a080e65c:	afbf0014 	sw	ra,20(sp)
a080e660:	afbe0010 	sw	s8,16(sp)
a080e664:	03a0f021 	move	s8,sp
a080e668:	afc40018 	sw	a0,24(s8)
a080e66c:	24040039 	li	a0,57
a080e670:	8fc50018 	lw	a1,24(s8)
a080e674:	00003021 	move	a2,zero
a080e678:	00003821 	move	a3,zero
a080e67c:	0c2004ac 	jal	a08012b0 <invoke_syscall>
a080e680:	00000000 	nop
a080e684:	03c0e821 	move	sp,s8
a080e688:	8fbf0014 	lw	ra,20(sp)
a080e68c:	8fbe0010 	lw	s8,16(sp)
a080e690:	27bd0018 	addiu	sp,sp,24
a080e694:	03e00008 	jr	ra
a080e698:	00000000 	nop

a080e69c <sys_mkfs>:
a080e69c:	27bdffe8 	addiu	sp,sp,-24
a080e6a0:	afbf0014 	sw	ra,20(sp)
a080e6a4:	afbe0010 	sw	s8,16(sp)
a080e6a8:	03a0f021 	move	s8,sp
a080e6ac:	2404003b 	li	a0,59
a080e6b0:	00002821 	move	a1,zero
a080e6b4:	00003021 	move	a2,zero
a080e6b8:	00003821 	move	a3,zero
a080e6bc:	0c2004ac 	jal	a08012b0 <invoke_syscall>
a080e6c0:	00000000 	nop
a080e6c4:	03c0e821 	move	sp,s8
a080e6c8:	8fbf0014 	lw	ra,20(sp)
a080e6cc:	8fbe0010 	lw	s8,16(sp)
a080e6d0:	27bd0018 	addiu	sp,sp,24
a080e6d4:	03e00008 	jr	ra
a080e6d8:	00000000 	nop

a080e6dc <sys_statfs>:
a080e6dc:	27bdffe8 	addiu	sp,sp,-24
a080e6e0:	afbf0014 	sw	ra,20(sp)
a080e6e4:	afbe0010 	sw	s8,16(sp)
a080e6e8:	03a0f021 	move	s8,sp
a080e6ec:	2404003c 	li	a0,60
a080e6f0:	00002821 	move	a1,zero
a080e6f4:	00003021 	move	a2,zero
a080e6f8:	00003821 	move	a3,zero
a080e6fc:	0c2004ac 	jal	a08012b0 <invoke_syscall>
a080e700:	00000000 	nop
a080e704:	03c0e821 	move	sp,s8
a080e708:	8fbf0014 	lw	ra,20(sp)
a080e70c:	8fbe0010 	lw	s8,16(sp)
a080e710:	27bd0018 	addiu	sp,sp,24
a080e714:	03e00008 	jr	ra
a080e718:	00000000 	nop

a080e71c <sys_mkdir>:
a080e71c:	27bdffe0 	addiu	sp,sp,-32
a080e720:	afbf001c 	sw	ra,28(sp)
a080e724:	afbe0018 	sw	s8,24(sp)
a080e728:	03a0f021 	move	s8,sp
a080e72c:	afc40020 	sw	a0,32(s8)
a080e730:	afc00010 	sw	zero,16(s8)
a080e734:	8fc20020 	lw	v0,32(s8)
a080e738:	2404003d 	li	a0,61
a080e73c:	00402821 	move	a1,v0
a080e740:	8fc60010 	lw	a2,16(s8)
a080e744:	00003821 	move	a3,zero
a080e748:	0c2004ac 	jal	a08012b0 <invoke_syscall>
a080e74c:	00000000 	nop
a080e750:	03c0e821 	move	sp,s8
a080e754:	8fbf001c 	lw	ra,28(sp)
a080e758:	8fbe0018 	lw	s8,24(sp)
a080e75c:	27bd0020 	addiu	sp,sp,32
a080e760:	03e00008 	jr	ra
a080e764:	00000000 	nop

a080e768 <sys_rmdir>:
a080e768:	27bdffe8 	addiu	sp,sp,-24
a080e76c:	afbf0014 	sw	ra,20(sp)
a080e770:	afbe0010 	sw	s8,16(sp)
a080e774:	03a0f021 	move	s8,sp
a080e778:	afc40018 	sw	a0,24(s8)
a080e77c:	8fc20018 	lw	v0,24(s8)
a080e780:	2404003e 	li	a0,62
a080e784:	00402821 	move	a1,v0
a080e788:	00003021 	move	a2,zero
a080e78c:	00003821 	move	a3,zero
a080e790:	0c2004ac 	jal	a08012b0 <invoke_syscall>
a080e794:	00000000 	nop
a080e798:	03c0e821 	move	sp,s8
a080e79c:	8fbf0014 	lw	ra,20(sp)
a080e7a0:	8fbe0010 	lw	s8,16(sp)
a080e7a4:	27bd0018 	addiu	sp,sp,24
a080e7a8:	03e00008 	jr	ra
a080e7ac:	00000000 	nop

a080e7b0 <sys_cd>:
a080e7b0:	27bdffe8 	addiu	sp,sp,-24
a080e7b4:	afbf0014 	sw	ra,20(sp)
a080e7b8:	afbe0010 	sw	s8,16(sp)
a080e7bc:	03a0f021 	move	s8,sp
a080e7c0:	afc40018 	sw	a0,24(s8)
a080e7c4:	8fc20018 	lw	v0,24(s8)
a080e7c8:	24040040 	li	a0,64
a080e7cc:	00402821 	move	a1,v0
a080e7d0:	00003021 	move	a2,zero
a080e7d4:	00003821 	move	a3,zero
a080e7d8:	0c2004ac 	jal	a08012b0 <invoke_syscall>
a080e7dc:	00000000 	nop
a080e7e0:	03c0e821 	move	sp,s8
a080e7e4:	8fbf0014 	lw	ra,20(sp)
a080e7e8:	8fbe0010 	lw	s8,16(sp)
a080e7ec:	27bd0018 	addiu	sp,sp,24
a080e7f0:	03e00008 	jr	ra
a080e7f4:	00000000 	nop

a080e7f8 <sys_ls>:
a080e7f8:	27bdffe8 	addiu	sp,sp,-24
a080e7fc:	afbf0014 	sw	ra,20(sp)
a080e800:	afbe0010 	sw	s8,16(sp)
a080e804:	03a0f021 	move	s8,sp
a080e808:	2404003f 	li	a0,63
a080e80c:	00002821 	move	a1,zero
a080e810:	00003021 	move	a2,zero
a080e814:	00003821 	move	a3,zero
a080e818:	0c2004ac 	jal	a08012b0 <invoke_syscall>
a080e81c:	00000000 	nop
a080e820:	03c0e821 	move	sp,s8
a080e824:	8fbf0014 	lw	ra,20(sp)
a080e828:	8fbe0010 	lw	s8,16(sp)
a080e82c:	27bd0018 	addiu	sp,sp,24
a080e830:	03e00008 	jr	ra
a080e834:	00000000 	nop

a080e838 <sys_touch>:
a080e838:	27bdffe0 	addiu	sp,sp,-32
a080e83c:	afbf001c 	sw	ra,28(sp)
a080e840:	afbe0018 	sw	s8,24(sp)
a080e844:	03a0f021 	move	s8,sp
a080e848:	afc40020 	sw	a0,32(s8)
a080e84c:	afc00010 	sw	zero,16(s8)
a080e850:	8fc20020 	lw	v0,32(s8)
a080e854:	24040041 	li	a0,65
a080e858:	00402821 	move	a1,v0
a080e85c:	8fc60010 	lw	a2,16(s8)
a080e860:	00003821 	move	a3,zero
a080e864:	0c2004ac 	jal	a08012b0 <invoke_syscall>
a080e868:	00000000 	nop
a080e86c:	03c0e821 	move	sp,s8
a080e870:	8fbf001c 	lw	ra,28(sp)
a080e874:	8fbe0018 	lw	s8,24(sp)
a080e878:	27bd0020 	addiu	sp,sp,32
a080e87c:	03e00008 	jr	ra
a080e880:	00000000 	nop

a080e884 <sys_cat>:
a080e884:	27bdffe8 	addiu	sp,sp,-24
a080e888:	afbf0014 	sw	ra,20(sp)
a080e88c:	afbe0010 	sw	s8,16(sp)
a080e890:	03a0f021 	move	s8,sp
a080e894:	afc40018 	sw	a0,24(s8)
a080e898:	8fc20018 	lw	v0,24(s8)
a080e89c:	24040042 	li	a0,66
a080e8a0:	00402821 	move	a1,v0
a080e8a4:	00003021 	move	a2,zero
a080e8a8:	00003821 	move	a3,zero
a080e8ac:	0c2004ac 	jal	a08012b0 <invoke_syscall>
a080e8b0:	00000000 	nop
a080e8b4:	03c0e821 	move	sp,s8
a080e8b8:	8fbf0014 	lw	ra,20(sp)
a080e8bc:	8fbe0010 	lw	s8,16(sp)
a080e8c0:	27bd0018 	addiu	sp,sp,24
a080e8c4:	03e00008 	jr	ra
a080e8c8:	00000000 	nop

a080e8cc <sys_find>:
a080e8cc:	27bdffe0 	addiu	sp,sp,-32
a080e8d0:	afbf001c 	sw	ra,28(sp)
a080e8d4:	afbe0018 	sw	s8,24(sp)
a080e8d8:	03a0f021 	move	s8,sp
a080e8dc:	afc40020 	sw	a0,32(s8)
a080e8e0:	afc50024 	sw	a1,36(s8)
a080e8e4:	8fc20020 	lw	v0,32(s8)
a080e8e8:	8fc30024 	lw	v1,36(s8)
a080e8ec:	24040043 	li	a0,67
a080e8f0:	00402821 	move	a1,v0
a080e8f4:	00603021 	move	a2,v1
a080e8f8:	00003821 	move	a3,zero
a080e8fc:	0c2004ac 	jal	a08012b0 <invoke_syscall>
a080e900:	00000000 	nop
a080e904:	03c0e821 	move	sp,s8
a080e908:	8fbf001c 	lw	ra,28(sp)
a080e90c:	8fbe0018 	lw	s8,24(sp)
a080e910:	27bd0020 	addiu	sp,sp,32
a080e914:	03e00008 	jr	ra
a080e918:	00000000 	nop

a080e91c <sys_rename>:
a080e91c:	27bdffe8 	addiu	sp,sp,-24
a080e920:	afbf0014 	sw	ra,20(sp)
a080e924:	afbe0010 	sw	s8,16(sp)
a080e928:	03a0f021 	move	s8,sp
a080e92c:	afc40018 	sw	a0,24(s8)
a080e930:	afc5001c 	sw	a1,28(s8)
a080e934:	8fc20018 	lw	v0,24(s8)
a080e938:	8fc3001c 	lw	v1,28(s8)
a080e93c:	24040044 	li	a0,68
a080e940:	00402821 	move	a1,v0
a080e944:	00603021 	move	a2,v1
a080e948:	00003821 	move	a3,zero
a080e94c:	0c2004ac 	jal	a08012b0 <invoke_syscall>
a080e950:	00000000 	nop
a080e954:	03c0e821 	move	sp,s8
a080e958:	8fbf0014 	lw	ra,20(sp)
a080e95c:	8fbe0010 	lw	s8,16(sp)
a080e960:	27bd0018 	addiu	sp,sp,24
a080e964:	03e00008 	jr	ra
a080e968:	00000000 	nop

a080e96c <sys_link>:
a080e96c:	27bdffe8 	addiu	sp,sp,-24
a080e970:	afbf0014 	sw	ra,20(sp)
a080e974:	afbe0010 	sw	s8,16(sp)
a080e978:	03a0f021 	move	s8,sp
a080e97c:	afc40018 	sw	a0,24(s8)
a080e980:	afc5001c 	sw	a1,28(s8)
a080e984:	8fc20018 	lw	v0,24(s8)
a080e988:	8fc3001c 	lw	v1,28(s8)
a080e98c:	24040045 	li	a0,69
a080e990:	00402821 	move	a1,v0
a080e994:	00603021 	move	a2,v1
a080e998:	00003821 	move	a3,zero
a080e99c:	0c2004ac 	jal	a08012b0 <invoke_syscall>
a080e9a0:	00000000 	nop
a080e9a4:	03c0e821 	move	sp,s8
a080e9a8:	8fbf0014 	lw	ra,20(sp)
a080e9ac:	8fbe0010 	lw	s8,16(sp)
a080e9b0:	27bd0018 	addiu	sp,sp,24
a080e9b4:	03e00008 	jr	ra
a080e9b8:	00000000 	nop

a080e9bc <sys_symlink>:
a080e9bc:	27bdffe8 	addiu	sp,sp,-24
a080e9c0:	afbf0014 	sw	ra,20(sp)
a080e9c4:	afbe0010 	sw	s8,16(sp)
a080e9c8:	03a0f021 	move	s8,sp
a080e9cc:	afc40018 	sw	a0,24(s8)
a080e9d0:	afc5001c 	sw	a1,28(s8)
a080e9d4:	8fc20018 	lw	v0,24(s8)
a080e9d8:	8fc3001c 	lw	v1,28(s8)
a080e9dc:	24040046 	li	a0,70
a080e9e0:	00402821 	move	a1,v0
a080e9e4:	00603021 	move	a2,v1
a080e9e8:	00003821 	move	a3,zero
a080e9ec:	0c2004ac 	jal	a08012b0 <invoke_syscall>
a080e9f0:	00000000 	nop
a080e9f4:	03c0e821 	move	sp,s8
a080e9f8:	8fbf0014 	lw	ra,20(sp)
a080e9fc:	8fbe0010 	lw	s8,16(sp)
a080ea00:	27bd0018 	addiu	sp,sp,24
a080ea04:	03e00008 	jr	ra
a080ea08:	00000000 	nop
a080ea0c:	00000000 	nop

a080ea10 <strlen>:
a080ea10:	27bdfff0 	addiu	sp,sp,-16
a080ea14:	afbe000c 	sw	s8,12(sp)
a080ea18:	03a0f021 	move	s8,sp
a080ea1c:	afc40010 	sw	a0,16(s8)
a080ea20:	afc00000 	sw	zero,0(s8)
a080ea24:	08203a8e 	j	a080ea38 <strlen+0x28>
a080ea28:	00000000 	nop
a080ea2c:	8fc20000 	lw	v0,0(s8)
a080ea30:	24420001 	addiu	v0,v0,1
a080ea34:	afc20000 	sw	v0,0(s8)
a080ea38:	8fc30000 	lw	v1,0(s8)
a080ea3c:	8fc20010 	lw	v0,16(s8)
a080ea40:	00431021 	addu	v0,v0,v1
a080ea44:	80420000 	lb	v0,0(v0)
a080ea48:	1440fff8 	bnez	v0,a080ea2c <strlen+0x1c>
a080ea4c:	00000000 	nop
a080ea50:	8fc20000 	lw	v0,0(s8)
a080ea54:	03c0e821 	move	sp,s8
a080ea58:	8fbe000c 	lw	s8,12(sp)
a080ea5c:	27bd0010 	addiu	sp,sp,16
a080ea60:	03e00008 	jr	ra
a080ea64:	00000000 	nop

a080ea68 <memcpy>:
a080ea68:	27bdfff8 	addiu	sp,sp,-8
a080ea6c:	afbe0004 	sw	s8,4(sp)
a080ea70:	03a0f021 	move	s8,sp
a080ea74:	afc40008 	sw	a0,8(s8)
a080ea78:	afc5000c 	sw	a1,12(s8)
a080ea7c:	afc60010 	sw	a2,16(s8)
a080ea80:	08203aaf 	j	a080eabc <memcpy+0x54>
a080ea84:	00000000 	nop
a080ea88:	8fc2000c 	lw	v0,12(s8)
a080ea8c:	90430000 	lbu	v1,0(v0)
a080ea90:	8fc20008 	lw	v0,8(s8)
a080ea94:	a0430000 	sb	v1,0(v0)
a080ea98:	8fc20008 	lw	v0,8(s8)
a080ea9c:	24420001 	addiu	v0,v0,1
a080eaa0:	afc20008 	sw	v0,8(s8)
a080eaa4:	8fc2000c 	lw	v0,12(s8)
a080eaa8:	24420001 	addiu	v0,v0,1
a080eaac:	afc2000c 	sw	v0,12(s8)
a080eab0:	8fc20010 	lw	v0,16(s8)
a080eab4:	2442ffff 	addiu	v0,v0,-1
a080eab8:	afc20010 	sw	v0,16(s8)
a080eabc:	8fc20010 	lw	v0,16(s8)
a080eac0:	1440fff1 	bnez	v0,a080ea88 <memcpy+0x20>
a080eac4:	00000000 	nop
a080eac8:	03c0e821 	move	sp,s8
a080eacc:	8fbe0004 	lw	s8,4(sp)
a080ead0:	27bd0008 	addiu	sp,sp,8
a080ead4:	03e00008 	jr	ra
a080ead8:	00000000 	nop

a080eadc <memset>:
a080eadc:	27bdfff0 	addiu	sp,sp,-16
a080eae0:	afbe000c 	sw	s8,12(sp)
a080eae4:	03a0f021 	move	s8,sp
a080eae8:	afc40010 	sw	a0,16(s8)
a080eaec:	00a01021 	move	v0,a1
a080eaf0:	afc60018 	sw	a2,24(s8)
a080eaf4:	a3c20014 	sb	v0,20(s8)
a080eaf8:	8fc20010 	lw	v0,16(s8)
a080eafc:	afc20000 	sw	v0,0(s8)
a080eb00:	08203acb 	j	a080eb2c <memset+0x50>
a080eb04:	00000000 	nop
a080eb08:	8fc30000 	lw	v1,0(s8)
a080eb0c:	93c20014 	lbu	v0,20(s8)
a080eb10:	a0620000 	sb	v0,0(v1)
a080eb14:	8fc20000 	lw	v0,0(s8)
a080eb18:	24420001 	addiu	v0,v0,1
a080eb1c:	afc20000 	sw	v0,0(s8)
a080eb20:	8fc20018 	lw	v0,24(s8)
a080eb24:	2442ffff 	addiu	v0,v0,-1
a080eb28:	afc20018 	sw	v0,24(s8)
a080eb2c:	8fc20018 	lw	v0,24(s8)
a080eb30:	1440fff5 	bnez	v0,a080eb08 <memset+0x2c>
a080eb34:	00000000 	nop
a080eb38:	03c0e821 	move	sp,s8
a080eb3c:	8fbe000c 	lw	s8,12(sp)
a080eb40:	27bd0010 	addiu	sp,sp,16
a080eb44:	03e00008 	jr	ra
a080eb48:	00000000 	nop

a080eb4c <bzero>:
a080eb4c:	27bdffe8 	addiu	sp,sp,-24
a080eb50:	afbf0014 	sw	ra,20(sp)
a080eb54:	afbe0010 	sw	s8,16(sp)
a080eb58:	03a0f021 	move	s8,sp
a080eb5c:	afc40018 	sw	a0,24(s8)
a080eb60:	afc5001c 	sw	a1,28(s8)
a080eb64:	8fc40018 	lw	a0,24(s8)
a080eb68:	00002821 	move	a1,zero
a080eb6c:	8fc6001c 	lw	a2,28(s8)
a080eb70:	0c203ab7 	jal	a080eadc <memset>
a080eb74:	00000000 	nop
a080eb78:	03c0e821 	move	sp,s8
a080eb7c:	8fbf0014 	lw	ra,20(sp)
a080eb80:	8fbe0010 	lw	s8,16(sp)
a080eb84:	27bd0018 	addiu	sp,sp,24
a080eb88:	03e00008 	jr	ra
a080eb8c:	00000000 	nop

a080eb90 <strcmp>:
a080eb90:	27bdfff0 	addiu	sp,sp,-16
a080eb94:	afbe000c 	sw	s8,12(sp)
a080eb98:	03a0f021 	move	s8,sp
a080eb9c:	afc40010 	sw	a0,16(s8)
a080eba0:	afc50014 	sw	a1,20(s8)
a080eba4:	08203af1 	j	a080ebc4 <strcmp+0x34>
a080eba8:	00000000 	nop
a080ebac:	8fc20010 	lw	v0,16(s8)
a080ebb0:	24420001 	addiu	v0,v0,1
a080ebb4:	afc20010 	sw	v0,16(s8)
a080ebb8:	8fc20014 	lw	v0,20(s8)
a080ebbc:	24420001 	addiu	v0,v0,1
a080ebc0:	afc20014 	sw	v0,20(s8)
a080ebc4:	8fc20010 	lw	v0,16(s8)
a080ebc8:	80420000 	lb	v0,0(v0)
a080ebcc:	1040000b 	beqz	v0,a080ebfc <strcmp+0x6c>
a080ebd0:	00000000 	nop
a080ebd4:	8fc20014 	lw	v0,20(s8)
a080ebd8:	80420000 	lb	v0,0(v0)
a080ebdc:	10400007 	beqz	v0,a080ebfc <strcmp+0x6c>
a080ebe0:	00000000 	nop
a080ebe4:	8fc20010 	lw	v0,16(s8)
a080ebe8:	80430000 	lb	v1,0(v0)
a080ebec:	8fc20014 	lw	v0,20(s8)
a080ebf0:	80420000 	lb	v0,0(v0)
a080ebf4:	1062ffed 	beq	v1,v0,a080ebac <strcmp+0x1c>
a080ebf8:	00000000 	nop
a080ebfc:	8fc20010 	lw	v0,16(s8)
a080ec00:	80420000 	lb	v0,0(v0)
a080ec04:	14400008 	bnez	v0,a080ec28 <strcmp+0x98>
a080ec08:	00000000 	nop
a080ec0c:	8fc20014 	lw	v0,20(s8)
a080ec10:	80420000 	lb	v0,0(v0)
a080ec14:	14400004 	bnez	v0,a080ec28 <strcmp+0x98>
a080ec18:	00000000 	nop
a080ec1c:	afc00000 	sw	zero,0(s8)
a080ec20:	08203b14 	j	a080ec50 <strcmp+0xc0>
a080ec24:	00000000 	nop
a080ec28:	8fc20010 	lw	v0,16(s8)
a080ec2c:	80420000 	lb	v0,0(v0)
a080ec30:	14400005 	bnez	v0,a080ec48 <strcmp+0xb8>
a080ec34:	00000000 	nop
a080ec38:	2402ffff 	li	v0,-1
a080ec3c:	afc20000 	sw	v0,0(s8)
a080ec40:	08203b14 	j	a080ec50 <strcmp+0xc0>
a080ec44:	00000000 	nop
a080ec48:	24020001 	li	v0,1
a080ec4c:	afc20000 	sw	v0,0(s8)
a080ec50:	8fc20000 	lw	v0,0(s8)
a080ec54:	03c0e821 	move	sp,s8
a080ec58:	8fbe000c 	lw	s8,12(sp)
a080ec5c:	27bd0010 	addiu	sp,sp,16
a080ec60:	03e00008 	jr	ra
a080ec64:	00000000 	nop

a080ec68 <strcpy>:
a080ec68:	27bdfff0 	addiu	sp,sp,-16
a080ec6c:	afbe000c 	sw	s8,12(sp)
a080ec70:	03a0f021 	move	s8,sp
a080ec74:	afc40010 	sw	a0,16(s8)
a080ec78:	afc50014 	sw	a1,20(s8)
a080ec7c:	8fc20010 	lw	v0,16(s8)
a080ec80:	afc20000 	sw	v0,0(s8)
a080ec84:	08203b2d 	j	a080ecb4 <strcpy+0x4c>
a080ec88:	00000000 	nop
a080ec8c:	8fc20014 	lw	v0,20(s8)
a080ec90:	80430000 	lb	v1,0(v0)
a080ec94:	8fc20010 	lw	v0,16(s8)
a080ec98:	a0430000 	sb	v1,0(v0)
a080ec9c:	8fc20010 	lw	v0,16(s8)
a080eca0:	24420001 	addiu	v0,v0,1
a080eca4:	afc20010 	sw	v0,16(s8)
a080eca8:	8fc20014 	lw	v0,20(s8)
a080ecac:	24420001 	addiu	v0,v0,1
a080ecb0:	afc20014 	sw	v0,20(s8)
a080ecb4:	8fc20014 	lw	v0,20(s8)
a080ecb8:	80420000 	lb	v0,0(v0)
a080ecbc:	1440fff3 	bnez	v0,a080ec8c <strcpy+0x24>
a080ecc0:	00000000 	nop
a080ecc4:	8fc20010 	lw	v0,16(s8)
a080ecc8:	a0400000 	sb	zero,0(v0)
a080eccc:	8fc20000 	lw	v0,0(s8)
a080ecd0:	03c0e821 	move	sp,s8
a080ecd4:	8fbe000c 	lw	s8,12(sp)
a080ecd8:	27bd0010 	addiu	sp,sp,16
a080ecdc:	03e00008 	jr	ra
a080ece0:	00000000 	nop

a080ece4 <reverse>:
a080ece4:	27bdffd8 	addiu	sp,sp,-40
a080ece8:	afbf0024 	sw	ra,36(sp)
a080ecec:	afbe0020 	sw	s8,32(sp)
a080ecf0:	03a0f021 	move	s8,sp
a080ecf4:	afc40028 	sw	a0,40(s8)
a080ecf8:	afc00014 	sw	zero,20(s8)
a080ecfc:	8fc40028 	lw	a0,40(s8)
a080ed00:	0c203a84 	jal	a080ea10 <strlen>
a080ed04:	00000000 	nop
a080ed08:	2442ffff 	addiu	v0,v0,-1
a080ed0c:	afc20010 	sw	v0,16(s8)
a080ed10:	08203b60 	j	a080ed80 <reverse+0x9c>
a080ed14:	00000000 	nop
a080ed18:	8fc30014 	lw	v1,20(s8)
a080ed1c:	8fc20028 	lw	v0,40(s8)
a080ed20:	00431021 	addu	v0,v0,v1
a080ed24:	80420000 	lb	v0,0(v0)
a080ed28:	afc20018 	sw	v0,24(s8)
a080ed2c:	8fc30014 	lw	v1,20(s8)
a080ed30:	8fc20028 	lw	v0,40(s8)
a080ed34:	00432021 	addu	a0,v0,v1
a080ed38:	8fc30010 	lw	v1,16(s8)
a080ed3c:	8fc20028 	lw	v0,40(s8)
a080ed40:	00431021 	addu	v0,v0,v1
a080ed44:	80420000 	lb	v0,0(v0)
a080ed48:	a0820000 	sb	v0,0(a0)
a080ed4c:	8fc30010 	lw	v1,16(s8)
a080ed50:	8fc20028 	lw	v0,40(s8)
a080ed54:	00431821 	addu	v1,v0,v1
a080ed58:	8fc20018 	lw	v0,24(s8)
a080ed5c:	00021600 	sll	v0,v0,0x18
a080ed60:	00021603 	sra	v0,v0,0x18
a080ed64:	a0620000 	sb	v0,0(v1)
a080ed68:	8fc20014 	lw	v0,20(s8)
a080ed6c:	24420001 	addiu	v0,v0,1
a080ed70:	afc20014 	sw	v0,20(s8)
a080ed74:	8fc20010 	lw	v0,16(s8)
a080ed78:	2442ffff 	addiu	v0,v0,-1
a080ed7c:	afc20010 	sw	v0,16(s8)
a080ed80:	8fc20014 	lw	v0,20(s8)
a080ed84:	8fc30010 	lw	v1,16(s8)
a080ed88:	0043102a 	slt	v0,v0,v1
a080ed8c:	1440ffe2 	bnez	v0,a080ed18 <reverse+0x34>
a080ed90:	00000000 	nop
a080ed94:	03c0e821 	move	sp,s8
a080ed98:	8fbf0024 	lw	ra,36(sp)
a080ed9c:	8fbe0020 	lw	s8,32(sp)
a080eda0:	27bd0028 	addiu	sp,sp,40
a080eda4:	03e00008 	jr	ra
a080eda8:	00000000 	nop

a080edac <itohex>:
a080edac:	27bdffe0 	addiu	sp,sp,-32
a080edb0:	afbf001c 	sw	ra,28(sp)
a080edb4:	afbe0018 	sw	s8,24(sp)
a080edb8:	03a0f021 	move	s8,sp
a080edbc:	afc40020 	sw	a0,32(s8)
a080edc0:	afc50024 	sw	a1,36(s8)
a080edc4:	afc00014 	sw	zero,20(s8)
a080edc8:	8fc20020 	lw	v0,32(s8)
a080edcc:	3042000f 	andi	v0,v0,0xf
a080edd0:	afc20010 	sw	v0,16(s8)
a080edd4:	8fc20010 	lw	v0,16(s8)
a080edd8:	2842000a 	slti	v0,v0,10
a080eddc:	10400010 	beqz	v0,a080ee20 <itohex+0x74>
a080ede0:	00000000 	nop
a080ede4:	8fc30014 	lw	v1,20(s8)
a080ede8:	8fc20024 	lw	v0,36(s8)
a080edec:	00431821 	addu	v1,v0,v1
a080edf0:	8fc20010 	lw	v0,16(s8)
a080edf4:	304200ff 	andi	v0,v0,0xff
a080edf8:	24420030 	addiu	v0,v0,48
a080edfc:	304200ff 	andi	v0,v0,0xff
a080ee00:	00021600 	sll	v0,v0,0x18
a080ee04:	00021603 	sra	v0,v0,0x18
a080ee08:	a0620000 	sb	v0,0(v1)
a080ee0c:	8fc20014 	lw	v0,20(s8)
a080ee10:	24420001 	addiu	v0,v0,1
a080ee14:	afc20014 	sw	v0,20(s8)
a080ee18:	08203b95 	j	a080ee54 <itohex+0xa8>
a080ee1c:	00000000 	nop
a080ee20:	8fc30014 	lw	v1,20(s8)
a080ee24:	8fc20024 	lw	v0,36(s8)
a080ee28:	00431821 	addu	v1,v0,v1
a080ee2c:	8fc20010 	lw	v0,16(s8)
a080ee30:	304200ff 	andi	v0,v0,0xff
a080ee34:	24420057 	addiu	v0,v0,87
a080ee38:	304200ff 	andi	v0,v0,0xff
a080ee3c:	00021600 	sll	v0,v0,0x18
a080ee40:	00021603 	sra	v0,v0,0x18
a080ee44:	a0620000 	sb	v0,0(v1)
a080ee48:	8fc20014 	lw	v0,20(s8)
a080ee4c:	24420001 	addiu	v0,v0,1
a080ee50:	afc20014 	sw	v0,20(s8)
a080ee54:	8fc20020 	lw	v0,32(s8)
a080ee58:	00021102 	srl	v0,v0,0x4
a080ee5c:	afc20020 	sw	v0,32(s8)
a080ee60:	8fc20020 	lw	v0,32(s8)
a080ee64:	1440ffd8 	bnez	v0,a080edc8 <itohex+0x1c>
a080ee68:	00000000 	nop
a080ee6c:	8fc30014 	lw	v1,20(s8)
a080ee70:	8fc20024 	lw	v0,36(s8)
a080ee74:	00431021 	addu	v0,v0,v1
a080ee78:	a0400000 	sb	zero,0(v0)
a080ee7c:	8fc20014 	lw	v0,20(s8)
a080ee80:	24420001 	addiu	v0,v0,1
a080ee84:	afc20014 	sw	v0,20(s8)
a080ee88:	8fc40024 	lw	a0,36(s8)
a080ee8c:	0c203b39 	jal	a080ece4 <reverse>
a080ee90:	00000000 	nop
a080ee94:	03c0e821 	move	sp,s8
a080ee98:	8fbf001c 	lw	ra,28(sp)
a080ee9c:	8fbe0018 	lw	s8,24(sp)
a080eea0:	27bd0020 	addiu	sp,sp,32
a080eea4:	03e00008 	jr	ra
a080eea8:	00000000 	nop

a080eeac <itoa>:
a080eeac:	27bdffd8 	addiu	sp,sp,-40
a080eeb0:	afbf0024 	sw	ra,36(sp)
a080eeb4:	afbe0020 	sw	s8,32(sp)
a080eeb8:	03a0f021 	move	s8,sp
a080eebc:	afc40028 	sw	a0,40(s8)
a080eec0:	afc5002c 	sw	a1,44(s8)
a080eec4:	afc00010 	sw	zero,16(s8)
a080eec8:	8fc30010 	lw	v1,16(s8)
a080eecc:	8fc2002c 	lw	v0,44(s8)
a080eed0:	00432821 	addu	a1,v0,v1
a080eed4:	8fc40028 	lw	a0,40(s8)
a080eed8:	3c02cccc 	lui	v0,0xcccc
a080eedc:	3442cccd 	ori	v0,v0,0xcccd
a080eee0:	00820019 	multu	a0,v0
a080eee4:	00001010 	mfhi	v0
a080eee8:	000210c2 	srl	v0,v0,0x3
a080eeec:	afc20018 	sw	v0,24(s8)
a080eef0:	8fc20018 	lw	v0,24(s8)
a080eef4:	00021040 	sll	v0,v0,0x1
a080eef8:	00021880 	sll	v1,v0,0x2
a080eefc:	00431021 	addu	v0,v0,v1
a080ef00:	00821023 	subu	v0,a0,v0
a080ef04:	afc20018 	sw	v0,24(s8)
a080ef08:	8fc30018 	lw	v1,24(s8)
a080ef0c:	306200ff 	andi	v0,v1,0xff
a080ef10:	24420030 	addiu	v0,v0,48
a080ef14:	304200ff 	andi	v0,v0,0xff
a080ef18:	00021600 	sll	v0,v0,0x18
a080ef1c:	00021603 	sra	v0,v0,0x18
a080ef20:	a0a20000 	sb	v0,0(a1)
a080ef24:	8fc20010 	lw	v0,16(s8)
a080ef28:	24420001 	addiu	v0,v0,1
a080ef2c:	afc20010 	sw	v0,16(s8)
a080ef30:	8fc30028 	lw	v1,40(s8)
a080ef34:	3c02cccc 	lui	v0,0xcccc
a080ef38:	3442cccd 	ori	v0,v0,0xcccd
a080ef3c:	00620019 	multu	v1,v0
a080ef40:	00001010 	mfhi	v0
a080ef44:	000210c2 	srl	v0,v0,0x3
a080ef48:	afc20028 	sw	v0,40(s8)
a080ef4c:	8fc20028 	lw	v0,40(s8)
a080ef50:	1440ffdd 	bnez	v0,a080eec8 <itoa+0x1c>
a080ef54:	00000000 	nop
a080ef58:	8fc30010 	lw	v1,16(s8)
a080ef5c:	8fc2002c 	lw	v0,44(s8)
a080ef60:	00431021 	addu	v0,v0,v1
a080ef64:	a0400000 	sb	zero,0(v0)
a080ef68:	8fc20010 	lw	v0,16(s8)
a080ef6c:	24420001 	addiu	v0,v0,1
a080ef70:	afc20010 	sw	v0,16(s8)
a080ef74:	8fc4002c 	lw	a0,44(s8)
a080ef78:	0c203b39 	jal	a080ece4 <reverse>
a080ef7c:	00000000 	nop
a080ef80:	03c0e821 	move	sp,s8
a080ef84:	8fbf0024 	lw	ra,36(sp)
a080ef88:	8fbe0020 	lw	s8,32(sp)
a080ef8c:	27bd0028 	addiu	sp,sp,40
a080ef90:	03e00008 	jr	ra
a080ef94:	00000000 	nop

a080ef98 <atoi>:
a080ef98:	27bdfff0 	addiu	sp,sp,-16
a080ef9c:	afbe000c 	sw	s8,12(sp)
a080efa0:	03a0f021 	move	s8,sp
a080efa4:	afc40010 	sw	a0,16(s8)
a080efa8:	afc00000 	sw	zero,0(s8)
a080efac:	08203bf9 	j	a080efe4 <atoi+0x4c>
a080efb0:	00000000 	nop
a080efb4:	8fc20000 	lw	v0,0(s8)
a080efb8:	00021840 	sll	v1,v0,0x1
a080efbc:	00031080 	sll	v0,v1,0x2
a080efc0:	00621821 	addu	v1,v1,v0
a080efc4:	8fc20010 	lw	v0,16(s8)
a080efc8:	80420000 	lb	v0,0(v0)
a080efcc:	00621021 	addu	v0,v1,v0
a080efd0:	2442ffd0 	addiu	v0,v0,-48
a080efd4:	afc20000 	sw	v0,0(s8)
a080efd8:	8fc20010 	lw	v0,16(s8)
a080efdc:	24420001 	addiu	v0,v0,1
a080efe0:	afc20010 	sw	v0,16(s8)
a080efe4:	8fc20010 	lw	v0,16(s8)
a080efe8:	80420000 	lb	v0,0(v0)
a080efec:	28420030 	slti	v0,v0,48
a080eff0:	14400006 	bnez	v0,a080f00c <atoi+0x74>
a080eff4:	00000000 	nop
a080eff8:	8fc20010 	lw	v0,16(s8)
a080effc:	80420000 	lb	v0,0(v0)
a080f000:	2842003a 	slti	v0,v0,58
a080f004:	1440ffeb 	bnez	v0,a080efb4 <atoi+0x1c>
a080f008:	00000000 	nop
a080f00c:	8fc20000 	lw	v0,0(s8)
a080f010:	03c0e821 	move	sp,s8
a080f014:	8fbe000c 	lw	s8,12(sp)
a080f018:	27bd0010 	addiu	sp,sp,16
a080f01c:	03e00008 	jr	ra
a080f020:	00000000 	nop

a080f024 <atoh>:
a080f024:	27bdfff0 	addiu	sp,sp,-16
a080f028:	afbe000c 	sw	s8,12(sp)
a080f02c:	03a0f021 	move	s8,sp
a080f030:	afc40010 	sw	a0,16(s8)
a080f034:	afc00000 	sw	zero,0(s8)
a080f038:	08203c3a 	j	a080f0e8 <atoh+0xc4>
a080f03c:	00000000 	nop
a080f040:	8fc20010 	lw	v0,16(s8)
a080f044:	80420000 	lb	v0,0(v0)
a080f048:	28420030 	slti	v0,v0,48
a080f04c:	14400012 	bnez	v0,a080f098 <atoh+0x74>
a080f050:	00000000 	nop
a080f054:	8fc20010 	lw	v0,16(s8)
a080f058:	80420000 	lb	v0,0(v0)
a080f05c:	2842003a 	slti	v0,v0,58
a080f060:	1040000d 	beqz	v0,a080f098 <atoh+0x74>
a080f064:	00000000 	nop
a080f068:	8fc20000 	lw	v0,0(s8)
a080f06c:	00021900 	sll	v1,v0,0x4
a080f070:	8fc20010 	lw	v0,16(s8)
a080f074:	80420000 	lb	v0,0(v0)
a080f078:	00621021 	addu	v0,v1,v0
a080f07c:	2442ffd0 	addiu	v0,v0,-48
a080f080:	afc20000 	sw	v0,0(s8)
a080f084:	8fc20010 	lw	v0,16(s8)
a080f088:	24420001 	addiu	v0,v0,1
a080f08c:	afc20010 	sw	v0,16(s8)
a080f090:	08203c3a 	j	a080f0e8 <atoh+0xc4>
a080f094:	00000000 	nop
a080f098:	8fc20010 	lw	v0,16(s8)
a080f09c:	80420000 	lb	v0,0(v0)
a080f0a0:	28420061 	slti	v0,v0,97
a080f0a4:	14400010 	bnez	v0,a080f0e8 <atoh+0xc4>
a080f0a8:	00000000 	nop
a080f0ac:	8fc20010 	lw	v0,16(s8)
a080f0b0:	80420000 	lb	v0,0(v0)
a080f0b4:	28420067 	slti	v0,v0,103
a080f0b8:	1040000b 	beqz	v0,a080f0e8 <atoh+0xc4>
a080f0bc:	00000000 	nop
a080f0c0:	8fc20000 	lw	v0,0(s8)
a080f0c4:	00021900 	sll	v1,v0,0x4
a080f0c8:	8fc20010 	lw	v0,16(s8)
a080f0cc:	80420000 	lb	v0,0(v0)
a080f0d0:	00621021 	addu	v0,v1,v0
a080f0d4:	2442ff9f 	addiu	v0,v0,-97
a080f0d8:	afc20000 	sw	v0,0(s8)
a080f0dc:	8fc20010 	lw	v0,16(s8)
a080f0e0:	24420001 	addiu	v0,v0,1
a080f0e4:	afc20010 	sw	v0,16(s8)
a080f0e8:	8fc20010 	lw	v0,16(s8)
a080f0ec:	80420000 	lb	v0,0(v0)
a080f0f0:	28420030 	slti	v0,v0,48
a080f0f4:	14400006 	bnez	v0,a080f110 <atoh+0xec>
a080f0f8:	00000000 	nop
a080f0fc:	8fc20010 	lw	v0,16(s8)
a080f100:	80420000 	lb	v0,0(v0)
a080f104:	2842003a 	slti	v0,v0,58
a080f108:	1440ffcd 	bnez	v0,a080f040 <atoh+0x1c>
a080f10c:	00000000 	nop
a080f110:	8fc20010 	lw	v0,16(s8)
a080f114:	80420000 	lb	v0,0(v0)
a080f118:	28420061 	slti	v0,v0,97
a080f11c:	14400006 	bnez	v0,a080f138 <atoh+0x114>
a080f120:	00000000 	nop
a080f124:	8fc20010 	lw	v0,16(s8)
a080f128:	80420000 	lb	v0,0(v0)
a080f12c:	28420067 	slti	v0,v0,103
a080f130:	1440ffc3 	bnez	v0,a080f040 <atoh+0x1c>
a080f134:	00000000 	nop
a080f138:	8fc20000 	lw	v0,0(s8)
a080f13c:	03c0e821 	move	sp,s8
a080f140:	8fbe000c 	lw	s8,12(sp)
a080f144:	27bd0010 	addiu	sp,sp,16
a080f148:	03e00008 	jr	ra
a080f14c:	00000000 	nop

a080f150 <is_hex_char>:
a080f150:	27bdfff0 	addiu	sp,sp,-16
a080f154:	afbe000c 	sw	s8,12(sp)
a080f158:	03a0f021 	move	s8,sp
a080f15c:	00801021 	move	v0,a0
a080f160:	a3c20010 	sb	v0,16(s8)
a080f164:	83c20010 	lb	v0,16(s8)
a080f168:	28420030 	slti	v0,v0,48
a080f16c:	14400005 	bnez	v0,a080f184 <is_hex_char+0x34>
a080f170:	00000000 	nop
a080f174:	83c20010 	lb	v0,16(s8)
a080f178:	2842003a 	slti	v0,v0,58
a080f17c:	14400009 	bnez	v0,a080f1a4 <is_hex_char+0x54>
a080f180:	00000000 	nop
a080f184:	83c20010 	lb	v0,16(s8)
a080f188:	28420061 	slti	v0,v0,97
a080f18c:	14400009 	bnez	v0,a080f1b4 <is_hex_char+0x64>
a080f190:	00000000 	nop
a080f194:	83c20010 	lb	v0,16(s8)
a080f198:	28420067 	slti	v0,v0,103
a080f19c:	10400005 	beqz	v0,a080f1b4 <is_hex_char+0x64>
a080f1a0:	00000000 	nop
a080f1a4:	24020001 	li	v0,1
a080f1a8:	afc20000 	sw	v0,0(s8)
a080f1ac:	08203c6e 	j	a080f1b8 <is_hex_char+0x68>
a080f1b0:	00000000 	nop
a080f1b4:	afc00000 	sw	zero,0(s8)
a080f1b8:	8fc20000 	lw	v0,0(s8)
a080f1bc:	03c0e821 	move	sp,s8
a080f1c0:	8fbe000c 	lw	s8,12(sp)
a080f1c4:	27bd0010 	addiu	sp,sp,16
a080f1c8:	03e00008 	jr	ra
a080f1cc:	00000000 	nop

a080f1d0 <htoi>:
a080f1d0:	27bdffe0 	addiu	sp,sp,-32
a080f1d4:	afbf001c 	sw	ra,28(sp)
a080f1d8:	afbe0018 	sw	s8,24(sp)
a080f1dc:	03a0f021 	move	s8,sp
a080f1e0:	afc40020 	sw	a0,32(s8)
a080f1e4:	afc00010 	sw	zero,16(s8)
a080f1e8:	08203c9c 	j	a080f270 <htoi+0xa0>
a080f1ec:	00000000 	nop
a080f1f0:	8fc20020 	lw	v0,32(s8)
a080f1f4:	80420000 	lb	v0,0(v0)
a080f1f8:	28420030 	slti	v0,v0,48
a080f1fc:	14400012 	bnez	v0,a080f248 <htoi+0x78>
a080f200:	00000000 	nop
a080f204:	8fc20020 	lw	v0,32(s8)
a080f208:	80420000 	lb	v0,0(v0)
a080f20c:	2842003a 	slti	v0,v0,58
a080f210:	1040000d 	beqz	v0,a080f248 <htoi+0x78>
a080f214:	00000000 	nop
a080f218:	8fc20010 	lw	v0,16(s8)
a080f21c:	00021900 	sll	v1,v0,0x4
a080f220:	8fc20020 	lw	v0,32(s8)
a080f224:	80420000 	lb	v0,0(v0)
a080f228:	00621021 	addu	v0,v1,v0
a080f22c:	2442ffd0 	addiu	v0,v0,-48
a080f230:	afc20010 	sw	v0,16(s8)
a080f234:	8fc20020 	lw	v0,32(s8)
a080f238:	24420001 	addiu	v0,v0,1
a080f23c:	afc20020 	sw	v0,32(s8)
a080f240:	08203c9c 	j	a080f270 <htoi+0xa0>
a080f244:	00000000 	nop
a080f248:	8fc20010 	lw	v0,16(s8)
a080f24c:	00021900 	sll	v1,v0,0x4
a080f250:	8fc20020 	lw	v0,32(s8)
a080f254:	80420000 	lb	v0,0(v0)
a080f258:	00621021 	addu	v0,v1,v0
a080f25c:	2442ffa9 	addiu	v0,v0,-87
a080f260:	afc20010 	sw	v0,16(s8)
a080f264:	8fc20020 	lw	v0,32(s8)
a080f268:	24420001 	addiu	v0,v0,1
a080f26c:	afc20020 	sw	v0,32(s8)
a080f270:	8fc20020 	lw	v0,32(s8)
a080f274:	80420000 	lb	v0,0(v0)
a080f278:	00402021 	move	a0,v0
a080f27c:	0c203c54 	jal	a080f150 <is_hex_char>
a080f280:	00000000 	nop
a080f284:	1440ffda 	bnez	v0,a080f1f0 <htoi+0x20>
a080f288:	00000000 	nop
a080f28c:	8fc20010 	lw	v0,16(s8)
a080f290:	03c0e821 	move	sp,s8
a080f294:	8fbf001c 	lw	ra,28(sp)
a080f298:	8fbe0018 	lw	s8,24(sp)
a080f29c:	27bd0020 	addiu	sp,sp,32
a080f2a0:	03e00008 	jr	ra
a080f2a4:	00000000 	nop

a080f2a8 <strpbrk>:
a080f2a8:	27bdffb0 	addiu	sp,sp,-80
a080f2ac:	afbf004c 	sw	ra,76(sp)
a080f2b0:	afbe0048 	sw	s8,72(sp)
a080f2b4:	03a0f021 	move	s8,sp
a080f2b8:	afc40050 	sw	a0,80(s8)
a080f2bc:	afc50054 	sw	a1,84(s8)
a080f2c0:	8fc20050 	lw	v0,80(s8)
a080f2c4:	afc20018 	sw	v0,24(s8)
a080f2c8:	8fc20054 	lw	v0,84(s8)
a080f2cc:	afc20014 	sw	v0,20(s8)
a080f2d0:	27c2001c 	addiu	v0,s8,28
a080f2d4:	00402021 	move	a0,v0
a080f2d8:	00002821 	move	a1,zero
a080f2dc:	24060020 	li	a2,32
a080f2e0:	0c203ab7 	jal	a080eadc <memset>
a080f2e4:	00000000 	nop
a080f2e8:	08203cdc 	j	a080f370 <strpbrk+0xc8>
a080f2ec:	00000000 	nop
a080f2f0:	8fc20014 	lw	v0,20(s8)
a080f2f4:	90420000 	lbu	v0,0(v0)
a080f2f8:	000210c2 	srl	v0,v0,0x3
a080f2fc:	304200ff 	andi	v0,v0,0xff
a080f300:	00402821 	move	a1,v0
a080f304:	8fc20014 	lw	v0,20(s8)
a080f308:	90420000 	lbu	v0,0(v0)
a080f30c:	000210c2 	srl	v0,v0,0x3
a080f310:	304200ff 	andi	v0,v0,0xff
a080f314:	00401821 	move	v1,v0
a080f318:	27c20010 	addiu	v0,s8,16
a080f31c:	00431021 	addu	v0,v0,v1
a080f320:	9042000c 	lbu	v0,12(v0)
a080f324:	00022600 	sll	a0,v0,0x18
a080f328:	00042603 	sra	a0,a0,0x18
a080f32c:	8fc20014 	lw	v0,20(s8)
a080f330:	90420000 	lbu	v0,0(v0)
a080f334:	30430007 	andi	v1,v0,0x7
a080f338:	24020001 	li	v0,1
a080f33c:	00621004 	sllv	v0,v0,v1
a080f340:	00021600 	sll	v0,v0,0x18
a080f344:	00021603 	sra	v0,v0,0x18
a080f348:	00821025 	or	v0,a0,v0
a080f34c:	00021600 	sll	v0,v0,0x18
a080f350:	00021603 	sra	v0,v0,0x18
a080f354:	304300ff 	andi	v1,v0,0xff
a080f358:	27c20010 	addiu	v0,s8,16
a080f35c:	00451021 	addu	v0,v0,a1
a080f360:	a043000c 	sb	v1,12(v0)
a080f364:	8fc20014 	lw	v0,20(s8)
a080f368:	24420001 	addiu	v0,v0,1
a080f36c:	afc20014 	sw	v0,20(s8)
a080f370:	8fc20014 	lw	v0,20(s8)
a080f374:	90420000 	lbu	v0,0(v0)
a080f378:	1440ffdd 	bnez	v0,a080f2f0 <strpbrk+0x48>
a080f37c:	00000000 	nop
a080f380:	08203cfa 	j	a080f3e8 <strpbrk+0x140>
a080f384:	00000000 	nop
a080f388:	8fc20018 	lw	v0,24(s8)
a080f38c:	90420000 	lbu	v0,0(v0)
a080f390:	000210c2 	srl	v0,v0,0x3
a080f394:	304200ff 	andi	v0,v0,0xff
a080f398:	00401821 	move	v1,v0
a080f39c:	27c20010 	addiu	v0,s8,16
a080f3a0:	00431021 	addu	v0,v0,v1
a080f3a4:	9042000c 	lbu	v0,12(v0)
a080f3a8:	00401821 	move	v1,v0
a080f3ac:	8fc20018 	lw	v0,24(s8)
a080f3b0:	90420000 	lbu	v0,0(v0)
a080f3b4:	30420007 	andi	v0,v0,0x7
a080f3b8:	00431007 	srav	v0,v1,v0
a080f3bc:	30420001 	andi	v0,v0,0x1
a080f3c0:	304200ff 	andi	v0,v0,0xff
a080f3c4:	10400005 	beqz	v0,a080f3dc <strpbrk+0x134>
a080f3c8:	00000000 	nop
a080f3cc:	8fc20018 	lw	v0,24(s8)
a080f3d0:	afc20040 	sw	v0,64(s8)
a080f3d4:	08203cff 	j	a080f3fc <strpbrk+0x154>
a080f3d8:	00000000 	nop
a080f3dc:	8fc20018 	lw	v0,24(s8)
a080f3e0:	24420001 	addiu	v0,v0,1
a080f3e4:	afc20018 	sw	v0,24(s8)
a080f3e8:	8fc20018 	lw	v0,24(s8)
a080f3ec:	90420000 	lbu	v0,0(v0)
a080f3f0:	1440ffe5 	bnez	v0,a080f388 <strpbrk+0xe0>
a080f3f4:	00000000 	nop
a080f3f8:	afc00040 	sw	zero,64(s8)
a080f3fc:	8fc20040 	lw	v0,64(s8)
a080f400:	03c0e821 	move	sp,s8
a080f404:	8fbf004c 	lw	ra,76(sp)
a080f408:	8fbe0048 	lw	s8,72(sp)
a080f40c:	27bd0050 	addiu	sp,sp,80
a080f410:	03e00008 	jr	ra
a080f414:	00000000 	nop

a080f418 <strspn>:
a080f418:	27bdffe0 	addiu	sp,sp,-32
a080f41c:	afbe001c 	sw	s8,28(sp)
a080f420:	03a0f021 	move	s8,sp
a080f424:	afc40020 	sw	a0,32(s8)
a080f428:	afc50024 	sw	a1,36(s8)
a080f42c:	8fc20020 	lw	v0,32(s8)
a080f430:	afc20008 	sw	v0,8(s8)
a080f434:	afc00000 	sw	zero,0(s8)
a080f438:	08203d2f 	j	a080f4bc <strspn+0xa4>
a080f43c:	00000000 	nop
a080f440:	8fc20024 	lw	v0,36(s8)
a080f444:	afc20004 	sw	v0,4(s8)
a080f448:	08203d1d 	j	a080f474 <strspn+0x5c>
a080f44c:	00000000 	nop
a080f450:	8fc20008 	lw	v0,8(s8)
a080f454:	80430000 	lb	v1,0(v0)
a080f458:	8fc20004 	lw	v0,4(s8)
a080f45c:	80420000 	lb	v0,0(v0)
a080f460:	10620008 	beq	v1,v0,a080f484 <strspn+0x6c>
a080f464:	00000000 	nop
a080f468:	8fc20004 	lw	v0,4(s8)
a080f46c:	24420001 	addiu	v0,v0,1
a080f470:	afc20004 	sw	v0,4(s8)
a080f474:	8fc20004 	lw	v0,4(s8)
a080f478:	80420000 	lb	v0,0(v0)
a080f47c:	1440fff4 	bnez	v0,a080f450 <strspn+0x38>
a080f480:	00000000 	nop
a080f484:	8fc20004 	lw	v0,4(s8)
a080f488:	80420000 	lb	v0,0(v0)
a080f48c:	14400005 	bnez	v0,a080f4a4 <strspn+0x8c>
a080f490:	00000000 	nop
a080f494:	8fc20000 	lw	v0,0(s8)
a080f498:	afc20010 	sw	v0,16(s8)
a080f49c:	08203d35 	j	a080f4d4 <strspn+0xbc>
a080f4a0:	00000000 	nop
a080f4a4:	8fc20000 	lw	v0,0(s8)
a080f4a8:	24420001 	addiu	v0,v0,1
a080f4ac:	afc20000 	sw	v0,0(s8)
a080f4b0:	8fc20008 	lw	v0,8(s8)
a080f4b4:	24420001 	addiu	v0,v0,1
a080f4b8:	afc20008 	sw	v0,8(s8)
a080f4bc:	8fc20008 	lw	v0,8(s8)
a080f4c0:	80420000 	lb	v0,0(v0)
a080f4c4:	1440ffde 	bnez	v0,a080f440 <strspn+0x28>
a080f4c8:	00000000 	nop
a080f4cc:	8fc20000 	lw	v0,0(s8)
a080f4d0:	afc20010 	sw	v0,16(s8)
a080f4d4:	8fc20010 	lw	v0,16(s8)
a080f4d8:	03c0e821 	move	sp,s8
a080f4dc:	8fbe001c 	lw	s8,28(sp)
a080f4e0:	27bd0020 	addiu	sp,sp,32
a080f4e4:	03e00008 	jr	ra
a080f4e8:	00000000 	nop

a080f4ec <strchr>:
a080f4ec:	27bdfff0 	addiu	sp,sp,-16
a080f4f0:	afbe000c 	sw	s8,12(sp)
a080f4f4:	03a0f021 	move	s8,sp
a080f4f8:	afc40010 	sw	a0,16(s8)
a080f4fc:	afc50014 	sw	a1,20(s8)
a080f500:	8fc20010 	lw	v0,16(s8)
a080f504:	14400012 	bnez	v0,a080f550 <strchr+0x64>
a080f508:	00000000 	nop
a080f50c:	afc00000 	sw	zero,0(s8)
a080f510:	08203d59 	j	a080f564 <strchr+0x78>
a080f514:	00000000 	nop
a080f518:	8fc20010 	lw	v0,16(s8)
a080f51c:	80430000 	lb	v1,0(v0)
a080f520:	8fc20014 	lw	v0,20(s8)
a080f524:	00021600 	sll	v0,v0,0x18
a080f528:	00021603 	sra	v0,v0,0x18
a080f52c:	14620005 	bne	v1,v0,a080f544 <strchr+0x58>
a080f530:	00000000 	nop
a080f534:	8fc20010 	lw	v0,16(s8)
a080f538:	afc20000 	sw	v0,0(s8)
a080f53c:	08203d59 	j	a080f564 <strchr+0x78>
a080f540:	00000000 	nop
a080f544:	8fc20010 	lw	v0,16(s8)
a080f548:	24420001 	addiu	v0,v0,1
a080f54c:	afc20010 	sw	v0,16(s8)
a080f550:	8fc20010 	lw	v0,16(s8)
a080f554:	80420000 	lb	v0,0(v0)
a080f558:	1440ffef 	bnez	v0,a080f518 <strchr+0x2c>
a080f55c:	00000000 	nop
a080f560:	afc00000 	sw	zero,0(s8)
a080f564:	8fc20000 	lw	v0,0(s8)
a080f568:	03c0e821 	move	sp,s8
a080f56c:	8fbe000c 	lw	s8,12(sp)
a080f570:	27bd0010 	addiu	sp,sp,16
a080f574:	03e00008 	jr	ra
a080f578:	00000000 	nop

a080f57c <strrchr>:
a080f57c:	27bdffe8 	addiu	sp,sp,-24
a080f580:	afbe0014 	sw	s8,20(sp)
a080f584:	03a0f021 	move	s8,sp
a080f588:	afc40018 	sw	a0,24(s8)
a080f58c:	afc5001c 	sw	a1,28(s8)
a080f590:	8fc20018 	lw	v0,24(s8)
a080f594:	14400004 	bnez	v0,a080f5a8 <strrchr+0x2c>
a080f598:	00000000 	nop
a080f59c:	afc00008 	sw	zero,8(s8)
a080f5a0:	08203d80 	j	a080f600 <strrchr+0x84>
a080f5a4:	00000000 	nop
a080f5a8:	8fc20018 	lw	v0,24(s8)
a080f5ac:	afc20000 	sw	v0,0(s8)
a080f5b0:	08203d7a 	j	a080f5e8 <strrchr+0x6c>
a080f5b4:	00000000 	nop
a080f5b8:	8fc20018 	lw	v0,24(s8)
a080f5bc:	80430000 	lb	v1,0(v0)
a080f5c0:	8fc2001c 	lw	v0,28(s8)
a080f5c4:	00021600 	sll	v0,v0,0x18
a080f5c8:	00021603 	sra	v0,v0,0x18
a080f5cc:	14620003 	bne	v1,v0,a080f5dc <strrchr+0x60>
a080f5d0:	00000000 	nop
a080f5d4:	8fc20018 	lw	v0,24(s8)
a080f5d8:	afc20000 	sw	v0,0(s8)
a080f5dc:	8fc20018 	lw	v0,24(s8)
a080f5e0:	24420001 	addiu	v0,v0,1
a080f5e4:	afc20018 	sw	v0,24(s8)
a080f5e8:	8fc20018 	lw	v0,24(s8)
a080f5ec:	80420000 	lb	v0,0(v0)
a080f5f0:	1440fff1 	bnez	v0,a080f5b8 <strrchr+0x3c>
a080f5f4:	00000000 	nop
a080f5f8:	8fc20000 	lw	v0,0(s8)
a080f5fc:	afc20008 	sw	v0,8(s8)
a080f600:	8fc20008 	lw	v0,8(s8)
a080f604:	03c0e821 	move	sp,s8
a080f608:	8fbe0014 	lw	s8,20(sp)
a080f60c:	27bd0018 	addiu	sp,sp,24
a080f610:	03e00008 	jr	ra
a080f614:	00000000 	nop

a080f618 <myStrtok_origin>:
a080f618:	27bdffd8 	addiu	sp,sp,-40
a080f61c:	afbf0024 	sw	ra,36(sp)
a080f620:	afbe0020 	sw	s8,32(sp)
a080f624:	03a0f021 	move	s8,sp
a080f628:	afc40028 	sw	a0,40(s8)
a080f62c:	afc5002c 	sw	a1,44(s8)
a080f630:	afc60030 	sw	a2,48(s8)
a080f634:	8fc20028 	lw	v0,40(s8)
a080f638:	14400004 	bnez	v0,a080f64c <myStrtok_origin+0x34>
a080f63c:	00000000 	nop
a080f640:	8fc20030 	lw	v0,48(s8)
a080f644:	8c420000 	lw	v0,0(v0)
a080f648:	afc20028 	sw	v0,40(s8)
a080f64c:	8fc40028 	lw	a0,40(s8)
a080f650:	8fc5002c 	lw	a1,44(s8)
a080f654:	0c203d06 	jal	a080f418 <strspn>
a080f658:	00000000 	nop
a080f65c:	00401821 	move	v1,v0
a080f660:	8fc20028 	lw	v0,40(s8)
a080f664:	00431021 	addu	v0,v0,v1
a080f668:	afc20028 	sw	v0,40(s8)
a080f66c:	8fc20028 	lw	v0,40(s8)
a080f670:	80420000 	lb	v0,0(v0)
a080f674:	14400004 	bnez	v0,a080f688 <myStrtok_origin+0x70>
a080f678:	00000000 	nop
a080f67c:	afc00018 	sw	zero,24(s8)
a080f680:	08203dbd 	j	a080f6f4 <myStrtok_origin+0xdc>
a080f684:	00000000 	nop
a080f688:	8fc20028 	lw	v0,40(s8)
a080f68c:	afc20010 	sw	v0,16(s8)
a080f690:	8fc40028 	lw	a0,40(s8)
a080f694:	8fc5002c 	lw	a1,44(s8)
a080f698:	0c203caa 	jal	a080f2a8 <strpbrk>
a080f69c:	00000000 	nop
a080f6a0:	afc20028 	sw	v0,40(s8)
a080f6a4:	8fc20028 	lw	v0,40(s8)
a080f6a8:	1440000a 	bnez	v0,a080f6d4 <myStrtok_origin+0xbc>
a080f6ac:	00000000 	nop
a080f6b0:	8fc40010 	lw	a0,16(s8)
a080f6b4:	00002821 	move	a1,zero
a080f6b8:	0c203d3b 	jal	a080f4ec <strchr>
a080f6bc:	00000000 	nop
a080f6c0:	00401821 	move	v1,v0
a080f6c4:	8fc20030 	lw	v0,48(s8)
a080f6c8:	ac430000 	sw	v1,0(v0)
a080f6cc:	08203dbb 	j	a080f6ec <myStrtok_origin+0xd4>
a080f6d0:	00000000 	nop
a080f6d4:	8fc20028 	lw	v0,40(s8)
a080f6d8:	a0400000 	sb	zero,0(v0)
a080f6dc:	8fc20028 	lw	v0,40(s8)
a080f6e0:	24430001 	addiu	v1,v0,1
a080f6e4:	8fc20030 	lw	v0,48(s8)
a080f6e8:	ac430000 	sw	v1,0(v0)
a080f6ec:	8fc20010 	lw	v0,16(s8)
a080f6f0:	afc20018 	sw	v0,24(s8)
a080f6f4:	8fc20018 	lw	v0,24(s8)
a080f6f8:	03c0e821 	move	sp,s8
a080f6fc:	8fbf0024 	lw	ra,36(sp)
a080f700:	8fbe0020 	lw	s8,32(sp)
a080f704:	27bd0028 	addiu	sp,sp,40
a080f708:	03e00008 	jr	ra
a080f70c:	00000000 	nop

a080f710 <strtok>:
a080f710:	27bdffe8 	addiu	sp,sp,-24
a080f714:	afbf0014 	sw	ra,20(sp)
a080f718:	afbe0010 	sw	s8,16(sp)
a080f71c:	03a0f021 	move	s8,sp
a080f720:	afc40018 	sw	a0,24(s8)
a080f724:	afc5001c 	sw	a1,28(s8)
a080f728:	8fc40018 	lw	a0,24(s8)
a080f72c:	8fc5001c 	lw	a1,28(s8)
a080f730:	3c02a085 	lui	v0,0xa085
a080f734:	244697f0 	addiu	a2,v0,-26640
a080f738:	0c203d86 	jal	a080f618 <myStrtok_origin>
a080f73c:	00000000 	nop
a080f740:	03c0e821 	move	sp,s8
a080f744:	8fbf0014 	lw	ra,20(sp)
a080f748:	8fbe0010 	lw	s8,16(sp)
a080f74c:	27bd0018 	addiu	sp,sp,24
a080f750:	03e00008 	jr	ra
a080f754:	00000000 	nop
	...

a080f760 <mini_strlen>:
a080f760:	27bdfff0 	addiu	sp,sp,-16
a080f764:	afbe000c 	sw	s8,12(sp)
a080f768:	03a0f021 	move	s8,sp
a080f76c:	afc40010 	sw	a0,16(s8)
a080f770:	afc00000 	sw	zero,0(s8)
a080f774:	08203de2 	j	a080f788 <mini_strlen+0x28>
a080f778:	00000000 	nop
a080f77c:	8fc20000 	lw	v0,0(s8)
a080f780:	24420001 	addiu	v0,v0,1
a080f784:	afc20000 	sw	v0,0(s8)
a080f788:	8fc30010 	lw	v1,16(s8)
a080f78c:	8fc20000 	lw	v0,0(s8)
a080f790:	00621021 	addu	v0,v1,v0
a080f794:	80420000 	lb	v0,0(v0)
a080f798:	1440fff8 	bnez	v0,a080f77c <mini_strlen+0x1c>
a080f79c:	00000000 	nop
a080f7a0:	8fc20000 	lw	v0,0(s8)
a080f7a4:	03c0e821 	move	sp,s8
a080f7a8:	8fbe000c 	lw	s8,12(sp)
a080f7ac:	27bd0010 	addiu	sp,sp,16
a080f7b0:	03e00008 	jr	ra
a080f7b4:	00000000 	nop

a080f7b8 <mini_itoa>:
a080f7b8:	27bdffc8 	addiu	sp,sp,-56
a080f7bc:	afbe0034 	sw	s8,52(sp)
a080f7c0:	03a0f021 	move	s8,sp
a080f7c4:	afc40038 	sw	a0,56(s8)
a080f7c8:	afc5003c 	sw	a1,60(s8)
a080f7cc:	afc60040 	sw	a2,64(s8)
a080f7d0:	afc70044 	sw	a3,68(s8)
a080f7d4:	8fc20048 	lw	v0,72(s8)
a080f7d8:	afc20014 	sw	v0,20(s8)
a080f7dc:	afc00010 	sw	zero,16(s8)
a080f7e0:	8fc2003c 	lw	v0,60(s8)
a080f7e4:	2c420011 	sltiu	v0,v0,17
a080f7e8:	14400004 	bnez	v0,a080f7fc <mini_itoa+0x44>
a080f7ec:	00000000 	nop
a080f7f0:	afc00020 	sw	zero,32(s8)
a080f7f4:	08203e88 	j	a080fa20 <mini_itoa+0x268>
a080f7f8:	00000000 	nop
a080f7fc:	8fc20038 	lw	v0,56(s8)
a080f800:	04410009 	bgez	v0,a080f828 <mini_itoa+0x70>
a080f804:	00000000 	nop
a080f808:	8fc20044 	lw	v0,68(s8)
a080f80c:	14400006 	bnez	v0,a080f828 <mini_itoa+0x70>
a080f810:	00000000 	nop
a080f814:	24020001 	li	v0,1
a080f818:	afc20010 	sw	v0,16(s8)
a080f81c:	8fc20038 	lw	v0,56(s8)
a080f820:	00021023 	negu	v0,v0
a080f824:	afc20038 	sw	v0,56(s8)
a080f828:	8fc30038 	lw	v1,56(s8)
a080f82c:	8fc2003c 	lw	v0,60(s8)
a080f830:	0062001b 	divu	zero,v1,v0
a080f834:	004001f4 	teq	v0,zero,0x7
a080f838:	00001010 	mfhi	v0
a080f83c:	afc20004 	sw	v0,4(s8)
a080f840:	8fc20004 	lw	v0,4(s8)
a080f844:	2842000a 	slti	v0,v0,10
a080f848:	1040000a 	beqz	v0,a080f874 <mini_itoa+0xbc>
a080f84c:	00000000 	nop
a080f850:	8fc20004 	lw	v0,4(s8)
a080f854:	304200ff 	andi	v0,v0,0xff
a080f858:	24420030 	addiu	v0,v0,48
a080f85c:	304200ff 	andi	v0,v0,0xff
a080f860:	00021600 	sll	v0,v0,0x18
a080f864:	00021603 	sra	v0,v0,0x18
a080f868:	afc2001c 	sw	v0,28(s8)
a080f86c:	08203e30 	j	a080f8c0 <mini_itoa+0x108>
a080f870:	00000000 	nop
a080f874:	8fc20040 	lw	v0,64(s8)
a080f878:	10400005 	beqz	v0,a080f890 <mini_itoa+0xd8>
a080f87c:	00000000 	nop
a080f880:	24020041 	li	v0,65
a080f884:	afc20018 	sw	v0,24(s8)
a080f888:	08203e26 	j	a080f898 <mini_itoa+0xe0>
a080f88c:	00000000 	nop
a080f890:	24030061 	li	v1,97
a080f894:	afc30018 	sw	v1,24(s8)
a080f898:	8fc20004 	lw	v0,4(s8)
a080f89c:	304200ff 	andi	v0,v0,0xff
a080f8a0:	8fc40018 	lw	a0,24(s8)
a080f8a4:	00821021 	addu	v0,a0,v0
a080f8a8:	304200ff 	andi	v0,v0,0xff
a080f8ac:	2442fff6 	addiu	v0,v0,-10
a080f8b0:	304200ff 	andi	v0,v0,0xff
a080f8b4:	00021600 	sll	v0,v0,0x18
a080f8b8:	00021603 	sra	v0,v0,0x18
a080f8bc:	afc2001c 	sw	v0,28(s8)
a080f8c0:	8fc20014 	lw	v0,20(s8)
a080f8c4:	8fc3001c 	lw	v1,28(s8)
a080f8c8:	a0430000 	sb	v1,0(v0)
a080f8cc:	8fc20014 	lw	v0,20(s8)
a080f8d0:	24420001 	addiu	v0,v0,1
a080f8d4:	afc20014 	sw	v0,20(s8)
a080f8d8:	8fc30038 	lw	v1,56(s8)
a080f8dc:	8fc2003c 	lw	v0,60(s8)
a080f8e0:	0062001b 	divu	zero,v1,v0
a080f8e4:	004001f4 	teq	v0,zero,0x7
a080f8e8:	00001012 	mflo	v0
a080f8ec:	afc20038 	sw	v0,56(s8)
a080f8f0:	8fc20038 	lw	v0,56(s8)
a080f8f4:	1c40ffcc 	bgtz	v0,a080f828 <mini_itoa+0x70>
a080f8f8:	00000000 	nop
a080f8fc:	8fc20014 	lw	v0,20(s8)
a080f900:	8fc30048 	lw	v1,72(s8)
a080f904:	00431023 	subu	v0,v0,v1
a080f908:	afc2000c 	sw	v0,12(s8)
a080f90c:	08203e4e 	j	a080f938 <mini_itoa+0x180>
a080f910:	00000000 	nop
a080f914:	8fc30014 	lw	v1,20(s8)
a080f918:	24020030 	li	v0,48
a080f91c:	a0620000 	sb	v0,0(v1)
a080f920:	8fc20014 	lw	v0,20(s8)
a080f924:	24420001 	addiu	v0,v0,1
a080f928:	afc20014 	sw	v0,20(s8)
a080f92c:	8fc2000c 	lw	v0,12(s8)
a080f930:	24420001 	addiu	v0,v0,1
a080f934:	afc2000c 	sw	v0,12(s8)
a080f938:	8fc2000c 	lw	v0,12(s8)
a080f93c:	8fc3004c 	lw	v1,76(s8)
a080f940:	0043102b 	sltu	v0,v0,v1
a080f944:	1440fff3 	bnez	v0,a080f914 <mini_itoa+0x15c>
a080f948:	00000000 	nop
a080f94c:	8fc20010 	lw	v0,16(s8)
a080f950:	10400007 	beqz	v0,a080f970 <mini_itoa+0x1b8>
a080f954:	00000000 	nop
a080f958:	8fc30014 	lw	v1,20(s8)
a080f95c:	2402002d 	li	v0,45
a080f960:	a0620000 	sb	v0,0(v1)
a080f964:	8fc20014 	lw	v0,20(s8)
a080f968:	24420001 	addiu	v0,v0,1
a080f96c:	afc20014 	sw	v0,20(s8)
a080f970:	8fc20014 	lw	v0,20(s8)
a080f974:	a0400000 	sb	zero,0(v0)
a080f978:	8fc30014 	lw	v1,20(s8)
a080f97c:	8fc20048 	lw	v0,72(s8)
a080f980:	00621023 	subu	v0,v1,v0
a080f984:	afc20008 	sw	v0,8(s8)
a080f988:	afc0000c 	sw	zero,12(s8)
a080f98c:	08203e80 	j	a080fa00 <mini_itoa+0x248>
a080f990:	00000000 	nop
a080f994:	8fc30048 	lw	v1,72(s8)
a080f998:	8fc2000c 	lw	v0,12(s8)
a080f99c:	00621021 	addu	v0,v1,v0
a080f9a0:	90420000 	lbu	v0,0(v0)
a080f9a4:	a3c20000 	sb	v0,0(s8)
a080f9a8:	8fc30048 	lw	v1,72(s8)
a080f9ac:	8fc2000c 	lw	v0,12(s8)
a080f9b0:	00622021 	addu	a0,v1,v0
a080f9b4:	8fc30008 	lw	v1,8(s8)
a080f9b8:	8fc2000c 	lw	v0,12(s8)
a080f9bc:	00621023 	subu	v0,v1,v0
a080f9c0:	2443ffff 	addiu	v1,v0,-1
a080f9c4:	8fc20048 	lw	v0,72(s8)
a080f9c8:	00431021 	addu	v0,v0,v1
a080f9cc:	80420000 	lb	v0,0(v0)
a080f9d0:	a0820000 	sb	v0,0(a0)
a080f9d4:	8fc30008 	lw	v1,8(s8)
a080f9d8:	8fc2000c 	lw	v0,12(s8)
a080f9dc:	00621023 	subu	v0,v1,v0
a080f9e0:	2443ffff 	addiu	v1,v0,-1
a080f9e4:	8fc20048 	lw	v0,72(s8)
a080f9e8:	00431821 	addu	v1,v0,v1
a080f9ec:	93c20000 	lbu	v0,0(s8)
a080f9f0:	a0620000 	sb	v0,0(v1)
a080f9f4:	8fc2000c 	lw	v0,12(s8)
a080f9f8:	24420001 	addiu	v0,v0,1
a080f9fc:	afc2000c 	sw	v0,12(s8)
a080fa00:	8fc20008 	lw	v0,8(s8)
a080fa04:	00021842 	srl	v1,v0,0x1
a080fa08:	8fc2000c 	lw	v0,12(s8)
a080fa0c:	0043102b 	sltu	v0,v0,v1
a080fa10:	1440ffe0 	bnez	v0,a080f994 <mini_itoa+0x1dc>
a080fa14:	00000000 	nop
a080fa18:	8fc20008 	lw	v0,8(s8)
a080fa1c:	afc20020 	sw	v0,32(s8)
a080fa20:	8fc20020 	lw	v0,32(s8)
a080fa24:	03c0e821 	move	sp,s8
a080fa28:	8fbe0034 	lw	s8,52(sp)
a080fa2c:	27bd0038 	addiu	sp,sp,56
a080fa30:	03e00008 	jr	ra
a080fa34:	00000000 	nop

a080fa38 <_putc>:
a080fa38:	27bdfff0 	addiu	sp,sp,-16
a080fa3c:	afbe000c 	sw	s8,12(sp)
a080fa40:	03a0f021 	move	s8,sp
a080fa44:	afc40010 	sw	a0,16(s8)
a080fa48:	afc50014 	sw	a1,20(s8)
a080fa4c:	8fc20014 	lw	v0,20(s8)
a080fa50:	8c420004 	lw	v0,4(v0)
a080fa54:	00401821 	move	v1,v0
a080fa58:	8fc20014 	lw	v0,20(s8)
a080fa5c:	8c420000 	lw	v0,0(v0)
a080fa60:	00621023 	subu	v0,v1,v0
a080fa64:	24420001 	addiu	v0,v0,1
a080fa68:	00401821 	move	v1,v0
a080fa6c:	8fc20014 	lw	v0,20(s8)
a080fa70:	8c420008 	lw	v0,8(v0)
a080fa74:	0062102b 	sltu	v0,v1,v0
a080fa78:	14400004 	bnez	v0,a080fa8c <_putc+0x54>
a080fa7c:	00000000 	nop
a080fa80:	afc00000 	sw	zero,0(s8)
a080fa84:	08203eb1 	j	a080fac4 <_putc+0x8c>
a080fa88:	00000000 	nop
a080fa8c:	8fc20014 	lw	v0,20(s8)
a080fa90:	8c430004 	lw	v1,4(v0)
a080fa94:	8fc20010 	lw	v0,16(s8)
a080fa98:	00021600 	sll	v0,v0,0x18
a080fa9c:	00021603 	sra	v0,v0,0x18
a080faa0:	a0620000 	sb	v0,0(v1)
a080faa4:	24630001 	addiu	v1,v1,1
a080faa8:	8fc20014 	lw	v0,20(s8)
a080faac:	ac430004 	sw	v1,4(v0)
a080fab0:	8fc20014 	lw	v0,20(s8)
a080fab4:	8c420004 	lw	v0,4(v0)
a080fab8:	a0400000 	sb	zero,0(v0)
a080fabc:	24020001 	li	v0,1
a080fac0:	afc20000 	sw	v0,0(s8)
a080fac4:	8fc20000 	lw	v0,0(s8)
a080fac8:	03c0e821 	move	sp,s8
a080facc:	8fbe000c 	lw	s8,12(sp)
a080fad0:	27bd0010 	addiu	sp,sp,16
a080fad4:	03e00008 	jr	ra
a080fad8:	00000000 	nop

a080fadc <_puts>:
a080fadc:	27bdfff0 	addiu	sp,sp,-16
a080fae0:	afbe000c 	sw	s8,12(sp)
a080fae4:	03a0f021 	move	s8,sp
a080fae8:	afc40010 	sw	a0,16(s8)
a080faec:	afc50014 	sw	a1,20(s8)
a080faf0:	afc60018 	sw	a2,24(s8)
a080faf4:	8fc20018 	lw	v0,24(s8)
a080faf8:	8c440008 	lw	a0,8(v0)
a080fafc:	8fc20018 	lw	v0,24(s8)
a080fb00:	8c420000 	lw	v0,0(v0)
a080fb04:	00401821 	move	v1,v0
a080fb08:	8fc20018 	lw	v0,24(s8)
a080fb0c:	8c420004 	lw	v0,4(v0)
a080fb10:	00621023 	subu	v0,v1,v0
a080fb14:	00821021 	addu	v0,a0,v0
a080fb18:	2443ffff 	addiu	v1,v0,-1
a080fb1c:	8fc20014 	lw	v0,20(s8)
a080fb20:	0062102b 	sltu	v0,v1,v0
a080fb24:	1040000c 	beqz	v0,a080fb58 <_puts+0x7c>
a080fb28:	00000000 	nop
a080fb2c:	8fc20018 	lw	v0,24(s8)
a080fb30:	8c440008 	lw	a0,8(v0)
a080fb34:	8fc20018 	lw	v0,24(s8)
a080fb38:	8c420000 	lw	v0,0(v0)
a080fb3c:	00401821 	move	v1,v0
a080fb40:	8fc20018 	lw	v0,24(s8)
a080fb44:	8c420004 	lw	v0,4(v0)
a080fb48:	00621023 	subu	v0,v1,v0
a080fb4c:	00821021 	addu	v0,a0,v0
a080fb50:	2442ffff 	addiu	v0,v0,-1
a080fb54:	afc20014 	sw	v0,20(s8)
a080fb58:	afc00000 	sw	zero,0(s8)
a080fb5c:	08203ee6 	j	a080fb98 <_puts+0xbc>
a080fb60:	00000000 	nop
a080fb64:	8fc20018 	lw	v0,24(s8)
a080fb68:	8c440004 	lw	a0,4(v0)
a080fb6c:	8fc30010 	lw	v1,16(s8)
a080fb70:	8fc20000 	lw	v0,0(s8)
a080fb74:	00621021 	addu	v0,v1,v0
a080fb78:	80420000 	lb	v0,0(v0)
a080fb7c:	a0820000 	sb	v0,0(a0)
a080fb80:	24830001 	addiu	v1,a0,1
a080fb84:	8fc20018 	lw	v0,24(s8)
a080fb88:	ac430004 	sw	v1,4(v0)
a080fb8c:	8fc20000 	lw	v0,0(s8)
a080fb90:	24420001 	addiu	v0,v0,1
a080fb94:	afc20000 	sw	v0,0(s8)
a080fb98:	8fc20000 	lw	v0,0(s8)
a080fb9c:	8fc30014 	lw	v1,20(s8)
a080fba0:	0043102b 	sltu	v0,v0,v1
a080fba4:	1440ffef 	bnez	v0,a080fb64 <_puts+0x88>
a080fba8:	00000000 	nop
a080fbac:	8fc20018 	lw	v0,24(s8)
a080fbb0:	8c420004 	lw	v0,4(v0)
a080fbb4:	a0400000 	sb	zero,0(v0)
a080fbb8:	8fc20014 	lw	v0,20(s8)
a080fbbc:	03c0e821 	move	sp,s8
a080fbc0:	8fbe000c 	lw	s8,12(sp)
a080fbc4:	27bd0010 	addiu	sp,sp,16
a080fbc8:	03e00008 	jr	ra
a080fbcc:	00000000 	nop

a080fbd0 <mini_vsnprintf>:
a080fbd0:	27bdffa8 	addiu	sp,sp,-88
a080fbd4:	afbf0054 	sw	ra,84(sp)
a080fbd8:	afbe0050 	sw	s8,80(sp)
a080fbdc:	03a0f021 	move	s8,sp
a080fbe0:	afc40058 	sw	a0,88(s8)
a080fbe4:	afc5005c 	sw	a1,92(s8)
a080fbe8:	afc60060 	sw	a2,96(s8)
a080fbec:	afc70064 	sw	a3,100(s8)
a080fbf0:	8fc20058 	lw	v0,88(s8)
a080fbf4:	afc20024 	sw	v0,36(s8)
a080fbf8:	8fc20058 	lw	v0,88(s8)
a080fbfc:	afc20028 	sw	v0,40(s8)
a080fc00:	8fc2005c 	lw	v0,92(s8)
a080fc04:	afc2002c 	sw	v0,44(s8)
a080fc08:	08203fc0 	j	a080ff00 <mini_vsnprintf+0x330>
a080fc0c:	00000000 	nop
a080fc10:	8fc20028 	lw	v0,40(s8)
a080fc14:	00401821 	move	v1,v0
a080fc18:	8fc20024 	lw	v0,36(s8)
a080fc1c:	00621023 	subu	v0,v1,v0
a080fc20:	24420001 	addiu	v0,v0,1
a080fc24:	00401821 	move	v1,v0
a080fc28:	8fc2002c 	lw	v0,44(s8)
a080fc2c:	0062102b 	sltu	v0,v1,v0
a080fc30:	104000be 	beqz	v0,a080ff2c <mini_vsnprintf+0x35c>
a080fc34:	00000000 	nop
a080fc38:	83c30021 	lb	v1,33(s8)
a080fc3c:	24020025 	li	v0,37
a080fc40:	10620009 	beq	v1,v0,a080fc68 <mini_vsnprintf+0x98>
a080fc44:	00000000 	nop
a080fc48:	83c20021 	lb	v0,33(s8)
a080fc4c:	27c30024 	addiu	v1,s8,36
a080fc50:	00402021 	move	a0,v0
a080fc54:	00602821 	move	a1,v1
a080fc58:	0c203e8e 	jal	a080fa38 <_putc>
a080fc5c:	00000000 	nop
a080fc60:	08203fc0 	j	a080ff00 <mini_vsnprintf+0x330>
a080fc64:	00000000 	nop
a080fc68:	a3c00020 	sb	zero,32(s8)
a080fc6c:	8fc20060 	lw	v0,96(s8)
a080fc70:	90420000 	lbu	v0,0(v0)
a080fc74:	a3c20021 	sb	v0,33(s8)
a080fc78:	8fc20060 	lw	v0,96(s8)
a080fc7c:	24420001 	addiu	v0,v0,1
a080fc80:	afc20060 	sw	v0,96(s8)
a080fc84:	83c30021 	lb	v1,33(s8)
a080fc88:	24020030 	li	v0,48
a080fc8c:	1462001c 	bne	v1,v0,a080fd00 <mini_vsnprintf+0x130>
a080fc90:	00000000 	nop
a080fc94:	8fc20060 	lw	v0,96(s8)
a080fc98:	90420000 	lbu	v0,0(v0)
a080fc9c:	a3c20021 	sb	v0,33(s8)
a080fca0:	8fc20060 	lw	v0,96(s8)
a080fca4:	24420001 	addiu	v0,v0,1
a080fca8:	afc20060 	sw	v0,96(s8)
a080fcac:	83c20021 	lb	v0,33(s8)
a080fcb0:	1040009e 	beqz	v0,a080ff2c <mini_vsnprintf+0x35c>
a080fcb4:	00000000 	nop
a080fcb8:	83c20021 	lb	v0,33(s8)
a080fcbc:	28420030 	slti	v0,v0,48
a080fcc0:	14400009 	bnez	v0,a080fce8 <mini_vsnprintf+0x118>
a080fcc4:	00000000 	nop
a080fcc8:	83c20021 	lb	v0,33(s8)
a080fccc:	2842003a 	slti	v0,v0,58
a080fcd0:	10400005 	beqz	v0,a080fce8 <mini_vsnprintf+0x118>
a080fcd4:	00000000 	nop
a080fcd8:	93c20021 	lbu	v0,33(s8)
a080fcdc:	2442ffd0 	addiu	v0,v0,-48
a080fce0:	304200ff 	andi	v0,v0,0xff
a080fce4:	a3c20020 	sb	v0,32(s8)
a080fce8:	8fc20060 	lw	v0,96(s8)
a080fcec:	90420000 	lbu	v0,0(v0)
a080fcf0:	a3c20021 	sb	v0,33(s8)
a080fcf4:	8fc20060 	lw	v0,96(s8)
a080fcf8:	24420001 	addiu	v0,v0,1
a080fcfc:	afc20060 	sw	v0,96(s8)
a080fd00:	83c20021 	lb	v0,33(s8)
a080fd04:	afc20048 	sw	v0,72(s8)
a080fd08:	24020064 	li	v0,100
a080fd0c:	8fc30048 	lw	v1,72(s8)
a080fd10:	10620020 	beq	v1,v0,a080fd94 <mini_vsnprintf+0x1c4>
a080fd14:	00000000 	nop
a080fd18:	8fc30048 	lw	v1,72(s8)
a080fd1c:	28620065 	slti	v0,v1,101
a080fd20:	1040000e 	beqz	v0,a080fd5c <mini_vsnprintf+0x18c>
a080fd24:	00000000 	nop
a080fd28:	24020058 	li	v0,88
a080fd2c:	8fc30048 	lw	v1,72(s8)
a080fd30:	10620033 	beq	v1,v0,a080fe00 <mini_vsnprintf+0x230>
a080fd34:	00000000 	nop
a080fd38:	24020063 	li	v0,99
a080fd3c:	8fc30048 	lw	v1,72(s8)
a080fd40:	1062004a 	beq	v1,v0,a080fe6c <mini_vsnprintf+0x29c>
a080fd44:	00000000 	nop
a080fd48:	8fc20048 	lw	v0,72(s8)
a080fd4c:	10400077 	beqz	v0,a080ff2c <mini_vsnprintf+0x35c>
a080fd50:	00000000 	nop
a080fd54:	08203fba 	j	a080fee8 <mini_vsnprintf+0x318>
a080fd58:	00000000 	nop
a080fd5c:	24020075 	li	v0,117
a080fd60:	8fc30048 	lw	v1,72(s8)
a080fd64:	1062000b 	beq	v1,v0,a080fd94 <mini_vsnprintf+0x1c4>
a080fd68:	00000000 	nop
a080fd6c:	24020078 	li	v0,120
a080fd70:	8fc30048 	lw	v1,72(s8)
a080fd74:	10620022 	beq	v1,v0,a080fe00 <mini_vsnprintf+0x230>
a080fd78:	00000000 	nop
a080fd7c:	24020073 	li	v0,115
a080fd80:	8fc30048 	lw	v1,72(s8)
a080fd84:	10620047 	beq	v1,v0,a080fea4 <mini_vsnprintf+0x2d4>
a080fd88:	00000000 	nop
a080fd8c:	08203fba 	j	a080fee8 <mini_vsnprintf+0x318>
a080fd90:	00000000 	nop
a080fd94:	8fc30064 	lw	v1,100(s8)
a080fd98:	24620004 	addiu	v0,v1,4
a080fd9c:	afc20064 	sw	v0,100(s8)
a080fda0:	00601021 	move	v0,v1
a080fda4:	8c420000 	lw	v0,0(v0)
a080fda8:	00402021 	move	a0,v0
a080fdac:	83c20021 	lb	v0,33(s8)
a080fdb0:	38420075 	xori	v0,v0,0x75
a080fdb4:	2c470001 	sltiu	a3,v0,1
a080fdb8:	83c30020 	lb	v1,32(s8)
a080fdbc:	27c20030 	addiu	v0,s8,48
a080fdc0:	afa20010 	sw	v0,16(sp)
a080fdc4:	afa30014 	sw	v1,20(sp)
a080fdc8:	2405000a 	li	a1,10
a080fdcc:	00003021 	move	a2,zero
a080fdd0:	0c203dee 	jal	a080f7b8 <mini_itoa>
a080fdd4:	00000000 	nop
a080fdd8:	afc20018 	sw	v0,24(s8)
a080fddc:	27c20030 	addiu	v0,s8,48
a080fde0:	27c30024 	addiu	v1,s8,36
a080fde4:	00402021 	move	a0,v0
a080fde8:	8fc50018 	lw	a1,24(s8)
a080fdec:	00603021 	move	a2,v1
a080fdf0:	0c203eb7 	jal	a080fadc <_puts>
a080fdf4:	00000000 	nop
a080fdf8:	08203fc0 	j	a080ff00 <mini_vsnprintf+0x330>
a080fdfc:	00000000 	nop
a080fe00:	8fc30064 	lw	v1,100(s8)
a080fe04:	24620004 	addiu	v0,v1,4
a080fe08:	afc20064 	sw	v0,100(s8)
a080fe0c:	00601021 	move	v0,v1
a080fe10:	8c420000 	lw	v0,0(v0)
a080fe14:	00402021 	move	a0,v0
a080fe18:	83c20021 	lb	v0,33(s8)
a080fe1c:	38420058 	xori	v0,v0,0x58
a080fe20:	2c460001 	sltiu	a2,v0,1
a080fe24:	83c30020 	lb	v1,32(s8)
a080fe28:	27c20030 	addiu	v0,s8,48
a080fe2c:	afa20010 	sw	v0,16(sp)
a080fe30:	afa30014 	sw	v1,20(sp)
a080fe34:	24050010 	li	a1,16
a080fe38:	24070001 	li	a3,1
a080fe3c:	0c203dee 	jal	a080f7b8 <mini_itoa>
a080fe40:	00000000 	nop
a080fe44:	afc20018 	sw	v0,24(s8)
a080fe48:	27c20030 	addiu	v0,s8,48
a080fe4c:	27c30024 	addiu	v1,s8,36
a080fe50:	00402021 	move	a0,v0
a080fe54:	8fc50018 	lw	a1,24(s8)
a080fe58:	00603021 	move	a2,v1
a080fe5c:	0c203eb7 	jal	a080fadc <_puts>
a080fe60:	00000000 	nop
a080fe64:	08203fc0 	j	a080ff00 <mini_vsnprintf+0x330>
a080fe68:	00000000 	nop
a080fe6c:	8fc30064 	lw	v1,100(s8)
a080fe70:	24620004 	addiu	v0,v1,4
a080fe74:	afc20064 	sw	v0,100(s8)
a080fe78:	00601021 	move	v0,v1
a080fe7c:	8c420000 	lw	v0,0(v0)
a080fe80:	00021600 	sll	v0,v0,0x18
a080fe84:	00021603 	sra	v0,v0,0x18
a080fe88:	27c30024 	addiu	v1,s8,36
a080fe8c:	00402021 	move	a0,v0
a080fe90:	00602821 	move	a1,v1
a080fe94:	0c203e8e 	jal	a080fa38 <_putc>
a080fe98:	00000000 	nop
a080fe9c:	08203fc0 	j	a080ff00 <mini_vsnprintf+0x330>
a080fea0:	00000000 	nop
a080fea4:	8fc30064 	lw	v1,100(s8)
a080fea8:	24620004 	addiu	v0,v1,4
a080feac:	afc20064 	sw	v0,100(s8)
a080feb0:	00601021 	move	v0,v1
a080feb4:	8c420000 	lw	v0,0(v0)
a080feb8:	afc2001c 	sw	v0,28(s8)
a080febc:	8fc4001c 	lw	a0,28(s8)
a080fec0:	0c203dd8 	jal	a080f760 <mini_strlen>
a080fec4:	00000000 	nop
a080fec8:	27c30024 	addiu	v1,s8,36
a080fecc:	8fc4001c 	lw	a0,28(s8)
a080fed0:	00402821 	move	a1,v0
a080fed4:	00603021 	move	a2,v1
a080fed8:	0c203eb7 	jal	a080fadc <_puts>
a080fedc:	00000000 	nop
a080fee0:	08203fc0 	j	a080ff00 <mini_vsnprintf+0x330>
a080fee4:	00000000 	nop
a080fee8:	83c20021 	lb	v0,33(s8)
a080feec:	27c30024 	addiu	v1,s8,36
a080fef0:	00402021 	move	a0,v0
a080fef4:	00602821 	move	a1,v1
a080fef8:	0c203e8e 	jal	a080fa38 <_putc>
a080fefc:	00000000 	nop
a080ff00:	8fc20060 	lw	v0,96(s8)
a080ff04:	90420000 	lbu	v0,0(v0)
a080ff08:	a3c20021 	sb	v0,33(s8)
a080ff0c:	83c20021 	lb	v0,33(s8)
a080ff10:	0002102b 	sltu	v0,zero,v0
a080ff14:	304300ff 	andi	v1,v0,0xff
a080ff18:	8fc20060 	lw	v0,96(s8)
a080ff1c:	24420001 	addiu	v0,v0,1
a080ff20:	afc20060 	sw	v0,96(s8)
a080ff24:	1460ff3a 	bnez	v1,a080fc10 <mini_vsnprintf+0x40>
a080ff28:	00000000 	nop
a080ff2c:	8fc20028 	lw	v0,40(s8)
a080ff30:	00401821 	move	v1,v0
a080ff34:	8fc20024 	lw	v0,36(s8)
a080ff38:	00621023 	subu	v0,v1,v0
a080ff3c:	03c0e821 	move	sp,s8
a080ff40:	8fbf0054 	lw	ra,84(sp)
a080ff44:	8fbe0050 	lw	s8,80(sp)
a080ff48:	27bd0058 	addiu	sp,sp,88
a080ff4c:	03e00008 	jr	ra
a080ff50:	00000000 	nop

a080ff54 <printk>:
a080ff54:	27bdfee0 	addiu	sp,sp,-288
a080ff58:	afbf011c 	sw	ra,284(sp)
a080ff5c:	afbe0118 	sw	s8,280(sp)
a080ff60:	03a0f021 	move	s8,sp
a080ff64:	afc50124 	sw	a1,292(s8)
a080ff68:	afc60128 	sw	a2,296(s8)
a080ff6c:	afc7012c 	sw	a3,300(s8)
a080ff70:	afc40120 	sw	a0,288(s8)
a080ff74:	27c20124 	addiu	v0,s8,292
a080ff78:	afc20014 	sw	v0,20(s8)
a080ff7c:	8fc30014 	lw	v1,20(s8)
a080ff80:	27c20018 	addiu	v0,s8,24
a080ff84:	00402021 	move	a0,v0
a080ff88:	24050100 	li	a1,256
a080ff8c:	8fc60120 	lw	a2,288(s8)
a080ff90:	00603821 	move	a3,v1
a080ff94:	0c203ef4 	jal	a080fbd0 <mini_vsnprintf>
a080ff98:	00000000 	nop
a080ff9c:	afc20010 	sw	v0,16(s8)
a080ffa0:	8fc30010 	lw	v1,16(s8)
a080ffa4:	27c20010 	addiu	v0,s8,16
a080ffa8:	00431021 	addu	v0,v0,v1
a080ffac:	a0400008 	sb	zero,8(v0)
a080ffb0:	27c20018 	addiu	v0,s8,24
a080ffb4:	00402021 	move	a0,v0
a080ffb8:	0c2004c8 	jal	a0801320 <port_write>
a080ffbc:	00000000 	nop
a080ffc0:	8fc20010 	lw	v0,16(s8)
a080ffc4:	03c0e821 	move	sp,s8
a080ffc8:	8fbf011c 	lw	ra,284(sp)
a080ffcc:	8fbe0118 	lw	s8,280(sp)
a080ffd0:	27bd0120 	addiu	sp,sp,288
a080ffd4:	03e00008 	jr	ra
a080ffd8:	00000000 	nop

a080ffdc <printf>:
a080ffdc:	27bdfee0 	addiu	sp,sp,-288
a080ffe0:	afbf011c 	sw	ra,284(sp)
a080ffe4:	afbe0118 	sw	s8,280(sp)
a080ffe8:	03a0f021 	move	s8,sp
a080ffec:	afc50124 	sw	a1,292(s8)
a080fff0:	afc60128 	sw	a2,296(s8)
a080fff4:	afc7012c 	sw	a3,300(s8)
a080fff8:	afc40120 	sw	a0,288(s8)
a080fffc:	27c20124 	addiu	v0,s8,292
a0810000:	afc20014 	sw	v0,20(s8)
a0810004:	8fc30014 	lw	v1,20(s8)
a0810008:	27c20018 	addiu	v0,s8,24
a081000c:	00402021 	move	a0,v0
a0810010:	24050100 	li	a1,256
a0810014:	8fc60120 	lw	a2,288(s8)
a0810018:	00603821 	move	a3,v1
a081001c:	0c203ef4 	jal	a080fbd0 <mini_vsnprintf>
a0810020:	00000000 	nop
a0810024:	afc20010 	sw	v0,16(s8)
a0810028:	8fc30010 	lw	v1,16(s8)
a081002c:	27c20010 	addiu	v0,s8,16
a0810030:	00431021 	addu	v0,v0,v1
a0810034:	a0400008 	sb	zero,8(v0)
a0810038:	27c20018 	addiu	v0,s8,24
a081003c:	00402021 	move	a0,v0
a0810040:	0c20375d 	jal	a080dd74 <sys_write>
a0810044:	00000000 	nop
a0810048:	8fc20010 	lw	v0,16(s8)
a081004c:	03c0e821 	move	sp,s8
a0810050:	8fbf011c 	lw	ra,284(sp)
a0810054:	8fbe0118 	lw	s8,280(sp)
a0810058:	27bd0120 	addiu	sp,sp,288
a081005c:	03e00008 	jr	ra
a0810060:	00000000 	nop
	...

a0810070 <mbox_init>:
a0810070:	27bdffe0 	addiu	sp,sp,-32
a0810074:	afbf001c 	sw	ra,28(sp)
a0810078:	afbe0018 	sw	s8,24(sp)
a081007c:	03a0f021 	move	s8,sp
a0810080:	afc00010 	sw	zero,16(s8)
a0810084:	08204050 	j	a0810140 <mbox_init+0xd0>
a0810088:	00000000 	nop
a081008c:	8fc40010 	lw	a0,16(s8)
a0810090:	3c05a087 	lui	a1,0xa087
a0810094:	00801021 	move	v0,a0
a0810098:	000218c0 	sll	v1,v0,0x3
a081009c:	000310c0 	sll	v0,v1,0x3
a08100a0:	00431023 	subu	v0,v0,v1
a08100a4:	00441023 	subu	v0,v0,a0
a08100a8:	00021880 	sll	v1,v0,0x2
a08100ac:	00431021 	addu	v0,v0,v1
a08100b0:	00021880 	sll	v1,v0,0x2
a08100b4:	24a2becc 	addiu	v0,a1,-16692
a08100b8:	00621021 	addu	v0,v1,v0
a08100bc:	a0400000 	sb	zero,0(v0)
a08100c0:	8fc40010 	lw	a0,16(s8)
a08100c4:	3c05a087 	lui	a1,0xa087
a08100c8:	00801021 	move	v0,a0
a08100cc:	000218c0 	sll	v1,v0,0x3
a08100d0:	000310c0 	sll	v0,v1,0x3
a08100d4:	00431023 	subu	v0,v0,v1
a08100d8:	00441023 	subu	v0,v0,a0
a08100dc:	00021880 	sll	v1,v0,0x2
a08100e0:	00431021 	addu	v0,v0,v1
a08100e4:	00021880 	sll	v1,v0,0x2
a08100e8:	24a2becc 	addiu	v0,a1,-16692
a08100ec:	00621021 	addu	v0,v1,v0
a08100f0:	ac400020 	sw	zero,32(v0)
a08100f4:	8fc40010 	lw	a0,16(s8)
a08100f8:	00801021 	move	v0,a0
a08100fc:	000218c0 	sll	v1,v0,0x3
a0810100:	000310c0 	sll	v0,v1,0x3
a0810104:	00431023 	subu	v0,v0,v1
a0810108:	00441023 	subu	v0,v0,a0
a081010c:	00021880 	sll	v1,v0,0x2
a0810110:	00431021 	addu	v0,v0,v1
a0810114:	00021080 	sll	v0,v0,0x2
a0810118:	24430028 	addiu	v1,v0,40
a081011c:	3c02a087 	lui	v0,0xa087
a0810120:	2442becc 	addiu	v0,v0,-16692
a0810124:	00621021 	addu	v0,v1,v0
a0810128:	00402021 	move	a0,v0
a081012c:	0c2037aa 	jal	a080dea8 <mutex_lock_init>
a0810130:	00000000 	nop
a0810134:	8fc20010 	lw	v0,16(s8)
a0810138:	24420001 	addiu	v0,v0,1
a081013c:	afc20010 	sw	v0,16(s8)
a0810140:	8fc20010 	lw	v0,16(s8)
a0810144:	28420020 	slti	v0,v0,32
a0810148:	1440ffd0 	bnez	v0,a081008c <mbox_init+0x1c>
a081014c:	00000000 	nop
a0810150:	03c0e821 	move	sp,s8
a0810154:	8fbf001c 	lw	ra,28(sp)
a0810158:	8fbe0018 	lw	s8,24(sp)
a081015c:	27bd0020 	addiu	sp,sp,32
a0810160:	03e00008 	jr	ra
a0810164:	00000000 	nop

a0810168 <mbox_open>:
a0810168:	27bdffd0 	addiu	sp,sp,-48
a081016c:	afbf002c 	sw	ra,44(sp)
a0810170:	afbe0028 	sw	s8,40(sp)
a0810174:	afb10024 	sw	s1,36(sp)
a0810178:	afb00020 	sw	s0,32(sp)
a081017c:	03a0f021 	move	s8,sp
a0810180:	afc40030 	sw	a0,48(s8)
a0810184:	afc00010 	sw	zero,16(s8)
a0810188:	082040b2 	j	a08102c8 <mbox_open+0x160>
a081018c:	00000000 	nop
a0810190:	8fc40010 	lw	a0,16(s8)
a0810194:	00801021 	move	v0,a0
a0810198:	000218c0 	sll	v1,v0,0x3
a081019c:	000310c0 	sll	v0,v1,0x3
a08101a0:	00431023 	subu	v0,v0,v1
a08101a4:	00441023 	subu	v0,v0,a0
a08101a8:	00021880 	sll	v1,v0,0x2
a08101ac:	00431021 	addu	v0,v0,v1
a08101b0:	00021880 	sll	v1,v0,0x2
a08101b4:	3c02a087 	lui	v0,0xa087
a08101b8:	2442becc 	addiu	v0,v0,-16692
a08101bc:	00621021 	addu	v0,v1,v0
a08101c0:	8fc40030 	lw	a0,48(s8)
a08101c4:	00402821 	move	a1,v0
a08101c8:	0c203ae4 	jal	a080eb90 <strcmp>
a08101cc:	00000000 	nop
a08101d0:	1440003a 	bnez	v0,a08102bc <mbox_open+0x154>
a08101d4:	00000000 	nop
a08101d8:	8fc40010 	lw	a0,16(s8)
a08101dc:	3c05a087 	lui	a1,0xa087
a08101e0:	00801021 	move	v0,a0
a08101e4:	000218c0 	sll	v1,v0,0x3
a08101e8:	000310c0 	sll	v0,v1,0x3
a08101ec:	00431023 	subu	v0,v0,v1
a08101f0:	00441023 	subu	v0,v0,a0
a08101f4:	00021880 	sll	v1,v0,0x2
a08101f8:	00431021 	addu	v0,v0,v1
a08101fc:	00021880 	sll	v1,v0,0x2
a0810200:	24a2becc 	addiu	v0,a1,-16692
a0810204:	00621021 	addu	v0,v1,v0
a0810208:	8c420020 	lw	v0,32(v0)
a081020c:	1840002b 	blez	v0,a08102bc <mbox_open+0x154>
a0810210:	00000000 	nop
a0810214:	8fc40010 	lw	a0,16(s8)
a0810218:	3c05a087 	lui	a1,0xa087
a081021c:	00801021 	move	v0,a0
a0810220:	000218c0 	sll	v1,v0,0x3
a0810224:	000310c0 	sll	v0,v1,0x3
a0810228:	00431023 	subu	v0,v0,v1
a081022c:	00441023 	subu	v0,v0,a0
a0810230:	00021880 	sll	v1,v0,0x2
a0810234:	00431021 	addu	v0,v0,v1
a0810238:	00021880 	sll	v1,v0,0x2
a081023c:	24a2becc 	addiu	v0,a1,-16692
a0810240:	00621021 	addu	v0,v1,v0
a0810244:	8c420020 	lw	v0,32(v0)
a0810248:	24460001 	addiu	a2,v0,1
a081024c:	3c05a087 	lui	a1,0xa087
a0810250:	00801021 	move	v0,a0
a0810254:	000218c0 	sll	v1,v0,0x3
a0810258:	000310c0 	sll	v0,v1,0x3
a081025c:	00431023 	subu	v0,v0,v1
a0810260:	00441023 	subu	v0,v0,a0
a0810264:	00021880 	sll	v1,v0,0x2
a0810268:	00431021 	addu	v0,v0,v1
a081026c:	00021880 	sll	v1,v0,0x2
a0810270:	24a2becc 	addiu	v0,a1,-16692
a0810274:	00621021 	addu	v0,v1,v0
a0810278:	ac460020 	sw	a2,32(v0)
a081027c:	8fc40010 	lw	a0,16(s8)
a0810280:	00801021 	move	v0,a0
a0810284:	000218c0 	sll	v1,v0,0x3
a0810288:	000310c0 	sll	v0,v1,0x3
a081028c:	00431023 	subu	v0,v0,v1
a0810290:	00441023 	subu	v0,v0,a0
a0810294:	00021880 	sll	v1,v0,0x2
a0810298:	00431021 	addu	v0,v0,v1
a081029c:	00021080 	sll	v0,v0,0x2
a08102a0:	00401821 	move	v1,v0
a08102a4:	3c02a087 	lui	v0,0xa087
a08102a8:	2442becc 	addiu	v0,v0,-16692
a08102ac:	00621021 	addu	v0,v1,v0
a08102b0:	afc20018 	sw	v0,24(s8)
a08102b4:	08204152 	j	a0810548 <mbox_open+0x3e0>
a08102b8:	00000000 	nop
a08102bc:	8fc20010 	lw	v0,16(s8)
a08102c0:	24420001 	addiu	v0,v0,1
a08102c4:	afc20010 	sw	v0,16(s8)
a08102c8:	8fc20010 	lw	v0,16(s8)
a08102cc:	28420020 	slti	v0,v0,32
a08102d0:	1440ffaf 	bnez	v0,a0810190 <mbox_open+0x28>
a08102d4:	00000000 	nop
a08102d8:	afc00010 	sw	zero,16(s8)
a08102dc:	0820414c 	j	a0810530 <mbox_open+0x3c8>
a08102e0:	00000000 	nop
a08102e4:	8fc40010 	lw	a0,16(s8)
a08102e8:	3c05a087 	lui	a1,0xa087
a08102ec:	00801021 	move	v0,a0
a08102f0:	000218c0 	sll	v1,v0,0x3
a08102f4:	000310c0 	sll	v0,v1,0x3
a08102f8:	00431023 	subu	v0,v0,v1
a08102fc:	00441023 	subu	v0,v0,a0
a0810300:	00021880 	sll	v1,v0,0x2
a0810304:	00431021 	addu	v0,v0,v1
a0810308:	00021880 	sll	v1,v0,0x2
a081030c:	24a2becc 	addiu	v0,a1,-16692
a0810310:	00621021 	addu	v0,v1,v0
a0810314:	8c420020 	lw	v0,32(v0)
a0810318:	14400082 	bnez	v0,a0810524 <mbox_open+0x3bc>
a081031c:	00000000 	nop
a0810320:	8fc40010 	lw	a0,16(s8)
a0810324:	00801021 	move	v0,a0
a0810328:	000218c0 	sll	v1,v0,0x3
a081032c:	000310c0 	sll	v0,v1,0x3
a0810330:	00431023 	subu	v0,v0,v1
a0810334:	00441023 	subu	v0,v0,a0
a0810338:	00021880 	sll	v1,v0,0x2
a081033c:	00431021 	addu	v0,v0,v1
a0810340:	00021080 	sll	v0,v0,0x2
a0810344:	24430028 	addiu	v1,v0,40
a0810348:	3c02a087 	lui	v0,0xa087
a081034c:	2442becc 	addiu	v0,v0,-16692
a0810350:	00621021 	addu	v0,v1,v0
a0810354:	00402021 	move	a0,v0
a0810358:	0c2037aa 	jal	a080dea8 <mutex_lock_init>
a081035c:	00000000 	nop
a0810360:	8fc40010 	lw	a0,16(s8)
a0810364:	00801021 	move	v0,a0
a0810368:	000218c0 	sll	v1,v0,0x3
a081036c:	000310c0 	sll	v0,v1,0x3
a0810370:	00431023 	subu	v0,v0,v1
a0810374:	00441023 	subu	v0,v0,a0
a0810378:	00021880 	sll	v1,v0,0x2
a081037c:	00431021 	addu	v0,v0,v1
a0810380:	00021880 	sll	v1,v0,0x2
a0810384:	3c02a087 	lui	v0,0xa087
a0810388:	2442becc 	addiu	v0,v0,-16692
a081038c:	00621021 	addu	v0,v1,v0
a0810390:	00408021 	move	s0,v0
a0810394:	8fd10030 	lw	s1,48(s8)
a0810398:	8fc40030 	lw	a0,48(s8)
a081039c:	0c203a84 	jal	a080ea10 <strlen>
a08103a0:	00000000 	nop
a08103a4:	24420001 	addiu	v0,v0,1
a08103a8:	02002021 	move	a0,s0
a08103ac:	02202821 	move	a1,s1
a08103b0:	00403021 	move	a2,v0
a08103b4:	0c203a9a 	jal	a080ea68 <memcpy>
a08103b8:	00000000 	nop
a08103bc:	8fc40010 	lw	a0,16(s8)
a08103c0:	3c05a087 	lui	a1,0xa087
a08103c4:	00801021 	move	v0,a0
a08103c8:	000218c0 	sll	v1,v0,0x3
a08103cc:	000310c0 	sll	v0,v1,0x3
a08103d0:	00431023 	subu	v0,v0,v1
a08103d4:	00441023 	subu	v0,v0,a0
a08103d8:	00021880 	sll	v1,v0,0x2
a08103dc:	00431021 	addu	v0,v0,v1
a08103e0:	00021880 	sll	v1,v0,0x2
a08103e4:	24a2becc 	addiu	v0,a1,-16692
a08103e8:	00621021 	addu	v0,v1,v0
a08103ec:	8c420020 	lw	v0,32(v0)
a08103f0:	24460001 	addiu	a2,v0,1
a08103f4:	3c05a087 	lui	a1,0xa087
a08103f8:	00801021 	move	v0,a0
a08103fc:	000218c0 	sll	v1,v0,0x3
a0810400:	000310c0 	sll	v0,v1,0x3
a0810404:	00431023 	subu	v0,v0,v1
a0810408:	00441023 	subu	v0,v0,a0
a081040c:	00021880 	sll	v1,v0,0x2
a0810410:	00431021 	addu	v0,v0,v1
a0810414:	00021880 	sll	v1,v0,0x2
a0810418:	24a2becc 	addiu	v0,a1,-16692
a081041c:	00621021 	addu	v0,v1,v0
a0810420:	ac460020 	sw	a2,32(v0)
a0810424:	8fc40010 	lw	a0,16(s8)
a0810428:	3c02a087 	lui	v0,0xa087
a081042c:	2445becc 	addiu	a1,v0,-16692
a0810430:	00801021 	move	v0,a0
a0810434:	000218c0 	sll	v1,v0,0x3
a0810438:	000310c0 	sll	v0,v1,0x3
a081043c:	00431023 	subu	v0,v0,v1
a0810440:	00441023 	subu	v0,v0,a0
a0810444:	00021880 	sll	v1,v0,0x2
a0810448:	00431021 	addu	v0,v0,v1
a081044c:	00021080 	sll	v0,v0,0x2
a0810450:	00a21021 	addu	v0,a1,v0
a0810454:	ac400024 	sw	zero,36(v0)
a0810458:	8fc40010 	lw	a0,16(s8)
a081045c:	00801021 	move	v0,a0
a0810460:	000218c0 	sll	v1,v0,0x3
a0810464:	000310c0 	sll	v0,v1,0x3
a0810468:	00431023 	subu	v0,v0,v1
a081046c:	00441023 	subu	v0,v0,a0
a0810470:	00021880 	sll	v1,v0,0x2
a0810474:	00431021 	addu	v0,v0,v1
a0810478:	00021080 	sll	v0,v0,0x2
a081047c:	24430030 	addiu	v1,v0,48
a0810480:	3c02a087 	lui	v0,0xa087
a0810484:	2442becc 	addiu	v0,v0,-16692
a0810488:	00621021 	addu	v0,v1,v0
a081048c:	24420004 	addiu	v0,v0,4
a0810490:	00402021 	move	a0,v0
a0810494:	24050020 	li	a1,32
a0810498:	0c2037e0 	jal	a080df80 <semaphore_init>
a081049c:	00000000 	nop
a08104a0:	8fc40010 	lw	a0,16(s8)
a08104a4:	00801021 	move	v0,a0
a08104a8:	000218c0 	sll	v1,v0,0x3
a08104ac:	000310c0 	sll	v0,v1,0x3
a08104b0:	00431023 	subu	v0,v0,v1
a08104b4:	00441023 	subu	v0,v0,a0
a08104b8:	00021880 	sll	v1,v0,0x2
a08104bc:	00431021 	addu	v0,v0,v1
a08104c0:	00021080 	sll	v0,v0,0x2
a08104c4:	24430040 	addiu	v1,v0,64
a08104c8:	3c02a087 	lui	v0,0xa087
a08104cc:	2442becc 	addiu	v0,v0,-16692
a08104d0:	00621021 	addu	v0,v1,v0
a08104d4:	00402021 	move	a0,v0
a08104d8:	00002821 	move	a1,zero
a08104dc:	0c2037e0 	jal	a080df80 <semaphore_init>
a08104e0:	00000000 	nop
a08104e4:	8fc40010 	lw	a0,16(s8)
a08104e8:	00801021 	move	v0,a0
a08104ec:	000218c0 	sll	v1,v0,0x3
a08104f0:	000310c0 	sll	v0,v1,0x3
a08104f4:	00431023 	subu	v0,v0,v1
a08104f8:	00441023 	subu	v0,v0,a0
a08104fc:	00021880 	sll	v1,v0,0x2
a0810500:	00431021 	addu	v0,v0,v1
a0810504:	00021080 	sll	v0,v0,0x2
a0810508:	00401821 	move	v1,v0
a081050c:	3c02a087 	lui	v0,0xa087
a0810510:	2442becc 	addiu	v0,v0,-16692
a0810514:	00621021 	addu	v0,v1,v0
a0810518:	afc20018 	sw	v0,24(s8)
a081051c:	08204152 	j	a0810548 <mbox_open+0x3e0>
a0810520:	00000000 	nop
a0810524:	8fc20010 	lw	v0,16(s8)
a0810528:	24420001 	addiu	v0,v0,1
a081052c:	afc20010 	sw	v0,16(s8)
a0810530:	8fc20010 	lw	v0,16(s8)
a0810534:	28420020 	slti	v0,v0,32
a0810538:	1440ff6a 	bnez	v0,a08102e4 <mbox_open+0x17c>
a081053c:	00000000 	nop
a0810540:	08204154 	j	a0810550 <mbox_open+0x3e8>
a0810544:	00000000 	nop
a0810548:	8fc20018 	lw	v0,24(s8)
a081054c:	afc2001c 	sw	v0,28(s8)
a0810550:	8fc2001c 	lw	v0,28(s8)
a0810554:	03c0e821 	move	sp,s8
a0810558:	8fbf002c 	lw	ra,44(sp)
a081055c:	8fbe0028 	lw	s8,40(sp)
a0810560:	8fb10024 	lw	s1,36(sp)
a0810564:	8fb00020 	lw	s0,32(sp)
a0810568:	27bd0030 	addiu	sp,sp,48
a081056c:	03e00008 	jr	ra
a0810570:	00000000 	nop

a0810574 <mbox_close>:
a0810574:	27bdfff8 	addiu	sp,sp,-8
a0810578:	afbe0004 	sw	s8,4(sp)
a081057c:	03a0f021 	move	s8,sp
a0810580:	afc40008 	sw	a0,8(s8)
a0810584:	8fc20008 	lw	v0,8(s8)
a0810588:	8c420020 	lw	v0,32(v0)
a081058c:	2443ffff 	addiu	v1,v0,-1
a0810590:	8fc20008 	lw	v0,8(s8)
a0810594:	ac430020 	sw	v1,32(v0)
a0810598:	03c0e821 	move	sp,s8
a081059c:	8fbe0004 	lw	s8,4(sp)
a08105a0:	27bd0008 	addiu	sp,sp,8
a08105a4:	03e00008 	jr	ra
a08105a8:	00000000 	nop

a08105ac <mbox_send>:
a08105ac:	27bdffe8 	addiu	sp,sp,-24
a08105b0:	afbf0014 	sw	ra,20(sp)
a08105b4:	afbe0010 	sw	s8,16(sp)
a08105b8:	03a0f021 	move	s8,sp
a08105bc:	afc40018 	sw	a0,24(s8)
a08105c0:	afc5001c 	sw	a1,28(s8)
a08105c4:	afc60020 	sw	a2,32(s8)
a08105c8:	8fc20018 	lw	v0,24(s8)
a08105cc:	24420034 	addiu	v0,v0,52
a08105d0:	00402021 	move	a0,v0
a08105d4:	0c203805 	jal	a080e014 <semaphore_down>
a08105d8:	00000000 	nop
a08105dc:	8fc20018 	lw	v0,24(s8)
a08105e0:	24420028 	addiu	v0,v0,40
a08105e4:	00402021 	move	a0,v0
a08105e8:	0c2037bc 	jal	a080def0 <mutex_lock_acquire>
a08105ec:	00000000 	nop
a08105f0:	8fc20018 	lw	v0,24(s8)
a08105f4:	8c420024 	lw	v0,36(v0)
a08105f8:	24430001 	addiu	v1,v0,1
a08105fc:	000317c3 	sra	v0,v1,0x1f
a0810600:	000226c2 	srl	a0,v0,0x1b
a0810604:	00641021 	addu	v0,v1,a0
a0810608:	3042001f 	andi	v0,v0,0x1f
a081060c:	00441023 	subu	v0,v0,a0
a0810610:	00401821 	move	v1,v0
a0810614:	8fc20018 	lw	v0,24(s8)
a0810618:	ac430024 	sw	v1,36(v0)
a081061c:	8fc20018 	lw	v0,24(s8)
a0810620:	2442004c 	addiu	v0,v0,76
a0810624:	00401821 	move	v1,v0
a0810628:	8fc20018 	lw	v0,24(s8)
a081062c:	8c420024 	lw	v0,36(v0)
a0810630:	00021140 	sll	v0,v0,0x5
a0810634:	00621021 	addu	v0,v1,v0
a0810638:	8fc3001c 	lw	v1,28(s8)
a081063c:	8fc60020 	lw	a2,32(s8)
a0810640:	00402021 	move	a0,v0
a0810644:	00602821 	move	a1,v1
a0810648:	0c203a9a 	jal	a080ea68 <memcpy>
a081064c:	00000000 	nop
a0810650:	8fc20018 	lw	v0,24(s8)
a0810654:	24420028 	addiu	v0,v0,40
a0810658:	00402021 	move	a0,v0
a081065c:	0c2037ce 	jal	a080df38 <mutex_lock_release>
a0810660:	00000000 	nop
a0810664:	8fc20018 	lw	v0,24(s8)
a0810668:	24420040 	addiu	v0,v0,64
a081066c:	00402021 	move	a0,v0
a0810670:	0c2037f3 	jal	a080dfcc <semaphore_up>
a0810674:	00000000 	nop
a0810678:	03c0e821 	move	sp,s8
a081067c:	8fbf0014 	lw	ra,20(sp)
a0810680:	8fbe0010 	lw	s8,16(sp)
a0810684:	27bd0018 	addiu	sp,sp,24
a0810688:	03e00008 	jr	ra
a081068c:	00000000 	nop

a0810690 <mbox_recv>:
a0810690:	27bdffe8 	addiu	sp,sp,-24
a0810694:	afbf0014 	sw	ra,20(sp)
a0810698:	afbe0010 	sw	s8,16(sp)
a081069c:	03a0f021 	move	s8,sp
a08106a0:	afc40018 	sw	a0,24(s8)
a08106a4:	afc5001c 	sw	a1,28(s8)
a08106a8:	afc60020 	sw	a2,32(s8)
a08106ac:	8fc20018 	lw	v0,24(s8)
a08106b0:	24420040 	addiu	v0,v0,64
a08106b4:	00402021 	move	a0,v0
a08106b8:	0c203805 	jal	a080e014 <semaphore_down>
a08106bc:	00000000 	nop
a08106c0:	8fc20018 	lw	v0,24(s8)
a08106c4:	24420028 	addiu	v0,v0,40
a08106c8:	00402021 	move	a0,v0
a08106cc:	0c2037bc 	jal	a080def0 <mutex_lock_acquire>
a08106d0:	00000000 	nop
a08106d4:	8fc4001c 	lw	a0,28(s8)
a08106d8:	8fc20018 	lw	v0,24(s8)
a08106dc:	2442004c 	addiu	v0,v0,76
a08106e0:	00401821 	move	v1,v0
a08106e4:	8fc20018 	lw	v0,24(s8)
a08106e8:	8c420024 	lw	v0,36(v0)
a08106ec:	00021140 	sll	v0,v0,0x5
a08106f0:	00621021 	addu	v0,v1,v0
a08106f4:	8fc30020 	lw	v1,32(s8)
a08106f8:	00402821 	move	a1,v0
a08106fc:	00603021 	move	a2,v1
a0810700:	0c203a9a 	jal	a080ea68 <memcpy>
a0810704:	00000000 	nop
a0810708:	8fc20018 	lw	v0,24(s8)
a081070c:	8c420024 	lw	v0,36(v0)
a0810710:	2443001f 	addiu	v1,v0,31
a0810714:	000317c3 	sra	v0,v1,0x1f
a0810718:	000226c2 	srl	a0,v0,0x1b
a081071c:	00641021 	addu	v0,v1,a0
a0810720:	3042001f 	andi	v0,v0,0x1f
a0810724:	00441023 	subu	v0,v0,a0
a0810728:	00401821 	move	v1,v0
a081072c:	8fc20018 	lw	v0,24(s8)
a0810730:	ac430024 	sw	v1,36(v0)
a0810734:	8fc20018 	lw	v0,24(s8)
a0810738:	24420028 	addiu	v0,v0,40
a081073c:	00402021 	move	a0,v0
a0810740:	0c2037ce 	jal	a080df38 <mutex_lock_release>
a0810744:	00000000 	nop
a0810748:	8fc20018 	lw	v0,24(s8)
a081074c:	24420034 	addiu	v0,v0,52
a0810750:	00402021 	move	a0,v0
a0810754:	0c2037f3 	jal	a080dfcc <semaphore_up>
a0810758:	00000000 	nop
a081075c:	03c0e821 	move	sp,s8
a0810760:	8fbf0014 	lw	ra,20(sp)
a0810764:	8fbe0010 	lw	s8,16(sp)
a0810768:	27bd0018 	addiu	sp,sp,24
a081076c:	03e00008 	jr	ra
a0810770:	00000000 	nop
	...

a0810780 <read_uart_ch_s>:
a0810780:	27bdffe8 	addiu	sp,sp,-24
a0810784:	afbe0014 	sw	s8,20(sp)
a0810788:	03a0f021 	move	s8,sp
a081078c:	a3c00008 	sb	zero,8(s8)
a0810790:	3c02bfe4 	lui	v0,0xbfe4
a0810794:	34428000 	ori	v0,v0,0x8000
a0810798:	afc20004 	sw	v0,4(s8)
a081079c:	3c02bfe4 	lui	v0,0xbfe4
a08107a0:	34428005 	ori	v0,v0,0x8005
a08107a4:	afc20000 	sw	v0,0(s8)
a08107a8:	082041ef 	j	a08107bc <read_uart_ch_s+0x3c>
a08107ac:	00000000 	nop
a08107b0:	8fc20004 	lw	v0,4(s8)
a08107b4:	90420000 	lbu	v0,0(v0)
a08107b8:	a3c20008 	sb	v0,8(s8)
a08107bc:	8fc20000 	lw	v0,0(s8)
a08107c0:	90420000 	lbu	v0,0(v0)
a08107c4:	30420001 	andi	v0,v0,0x1
a08107c8:	304200ff 	andi	v0,v0,0xff
a08107cc:	1440fff8 	bnez	v0,a08107b0 <read_uart_ch_s+0x30>
a08107d0:	00000000 	nop
a08107d4:	83c20008 	lb	v0,8(s8)
a08107d8:	03c0e821 	move	sp,s8
a08107dc:	8fbe0014 	lw	s8,20(sp)
a08107e0:	27bd0018 	addiu	sp,sp,24
a08107e4:	03e00008 	jr	ra
a08107e8:	00000000 	nop

a08107ec <init_InputBuffer_s>:
a08107ec:	27bdfff8 	addiu	sp,sp,-8
a08107f0:	afbe0004 	sw	s8,4(sp)
a08107f4:	03a0f021 	move	s8,sp
a08107f8:	afc40008 	sw	a0,8(s8)
a08107fc:	8fc30008 	lw	v1,8(s8)
a0810800:	3c02a085 	lui	v0,0xa085
a0810804:	24429804 	addiu	v0,v0,-26620
a0810808:	ac620000 	sw	v0,0(v1)
a081080c:	8fc30008 	lw	v1,8(s8)
a0810810:	240203e8 	li	v0,1000
a0810814:	ac620004 	sw	v0,4(v1)
a0810818:	8fc20008 	lw	v0,8(s8)
a081081c:	ac400008 	sw	zero,8(v0)
a0810820:	8fc20008 	lw	v0,8(s8)
a0810824:	ac40000c 	sw	zero,12(v0)
a0810828:	03c0e821 	move	sp,s8
a081082c:	8fbe0004 	lw	s8,4(sp)
a0810830:	27bd0008 	addiu	sp,sp,8
a0810834:	03e00008 	jr	ra
a0810838:	00000000 	nop

a081083c <do_scanf>:
a081083c:	27bdffe0 	addiu	sp,sp,-32
a0810840:	afbf001c 	sw	ra,28(sp)
a0810844:	afbe0018 	sw	s8,24(sp)
a0810848:	03a0f021 	move	s8,sp
a081084c:	afc40020 	sw	a0,32(s8)
a0810850:	0c2041e0 	jal	a0810780 <read_uart_ch_s>
a0810854:	00000000 	nop
a0810858:	a3c20014 	sb	v0,20(s8)
a081085c:	afc00010 	sw	zero,16(s8)
a0810860:	83c20014 	lb	v0,20(s8)
a0810864:	1040fffa 	beqz	v0,a0810850 <do_scanf+0x14>
a0810868:	00000000 	nop
a081086c:	3c02a081 	lui	v0,0xa081
a0810870:	8c4272e0 	lw	v0,29408(v0)
a0810874:	8c430000 	lw	v1,0(v0)
a0810878:	3c02a085 	lui	v0,0xa085
a081087c:	8c429800 	lw	v0,-26624(v0)
a0810880:	00621821 	addu	v1,v1,v0
a0810884:	93c20014 	lbu	v0,20(s8)
a0810888:	a0620000 	sb	v0,0(v1)
a081088c:	3c02a081 	lui	v0,0xa081
a0810890:	8c4372e0 	lw	v1,29408(v0)
a0810894:	8c620008 	lw	v0,8(v1)
a0810898:	24420001 	addiu	v0,v0,1
a081089c:	ac620008 	sw	v0,8(v1)
a08108a0:	3c02a085 	lui	v0,0xa085
a08108a4:	8c429800 	lw	v0,-26624(v0)
a08108a8:	24430001 	addiu	v1,v0,1
a08108ac:	3c02a085 	lui	v0,0xa085
a08108b0:	ac439800 	sw	v1,-26624(v0)
a08108b4:	83c30014 	lb	v1,20(s8)
a08108b8:	2402000d 	li	v0,13
a08108bc:	14620035 	bne	v1,v0,a0810994 <do_scanf+0x158>
a08108c0:	00000000 	nop
a08108c4:	3c02a081 	lui	v0,0xa081
a08108c8:	8c4272e0 	lw	v0,29408(v0)
a08108cc:	8c430000 	lw	v1,0(v0)
a08108d0:	3c02a081 	lui	v0,0xa081
a08108d4:	8c4272e0 	lw	v0,29408(v0)
a08108d8:	8c42000c 	lw	v0,12(v0)
a08108dc:	00621021 	addu	v0,v1,v0
a08108e0:	80430000 	lb	v1,0(v0)
a08108e4:	24020030 	li	v0,48
a08108e8:	14620025 	bne	v1,v0,a0810980 <do_scanf+0x144>
a08108ec:	00000000 	nop
a08108f0:	3c02a081 	lui	v0,0xa081
a08108f4:	8c4272e0 	lw	v0,29408(v0)
a08108f8:	8c430000 	lw	v1,0(v0)
a08108fc:	3c02a081 	lui	v0,0xa081
a0810900:	8c4272e0 	lw	v0,29408(v0)
a0810904:	8c42000c 	lw	v0,12(v0)
a0810908:	24420001 	addiu	v0,v0,1
a081090c:	00621021 	addu	v0,v1,v0
a0810910:	80430000 	lb	v1,0(v0)
a0810914:	24020078 	li	v0,120
a0810918:	14620019 	bne	v1,v0,a0810980 <do_scanf+0x144>
a081091c:	00000000 	nop
a0810920:	3c02a081 	lui	v0,0xa081
a0810924:	8c4272e0 	lw	v0,29408(v0)
a0810928:	8c430000 	lw	v1,0(v0)
a081092c:	3c02a081 	lui	v0,0xa081
a0810930:	8c4272e0 	lw	v0,29408(v0)
a0810934:	8c42000c 	lw	v0,12(v0)
a0810938:	24420002 	addiu	v0,v0,2
a081093c:	00621021 	addu	v0,v1,v0
a0810940:	00402021 	move	a0,v0
a0810944:	0c203c09 	jal	a080f024 <atoh>
a0810948:	00000000 	nop
a081094c:	afc20010 	sw	v0,16(s8)
a0810950:	8fc20010 	lw	v0,16(s8)
a0810954:	0440000a 	bltz	v0,a0810980 <do_scanf+0x144>
a0810958:	00000000 	nop
a081095c:	8fc30010 	lw	v1,16(s8)
a0810960:	3c028000 	lui	v0,0x8000
a0810964:	34420001 	ori	v0,v0,0x1
a0810968:	0062102b 	sltu	v0,v1,v0
a081096c:	10400004 	beqz	v0,a0810980 <do_scanf+0x144>
a0810970:	00000000 	nop
a0810974:	8fc30020 	lw	v1,32(s8)
a0810978:	8fc20010 	lw	v0,16(s8)
a081097c:	ac620000 	sw	v0,0(v1)
a0810980:	3c02a081 	lui	v0,0xa081
a0810984:	8c4372e0 	lw	v1,29408(v0)
a0810988:	3c02a085 	lui	v0,0xa085
a081098c:	8c429800 	lw	v0,-26624(v0)
a0810990:	ac62000c 	sw	v0,12(v1)
a0810994:	83c20014 	lb	v0,20(s8)
a0810998:	03c0e821 	move	sp,s8
a081099c:	8fbf001c 	lw	ra,28(sp)
a08109a0:	8fbe0018 	lw	s8,24(sp)
a08109a4:	27bd0020 	addiu	sp,sp,32
a08109a8:	03e00008 	jr	ra
a08109ac:	00000000 	nop

a08109b0 <check_bitmap>:
a08109b0:	27bdfff0 	addiu	sp,sp,-16
a08109b4:	afbe000c 	sw	s8,12(sp)
a08109b8:	03a0f021 	move	s8,sp
a08109bc:	afc40010 	sw	a0,16(s8)
a08109c0:	afc50014 	sw	a1,20(s8)
a08109c4:	8fc20014 	lw	v0,20(s8)
a08109c8:	000210c2 	srl	v0,v0,0x3
a08109cc:	afc20004 	sw	v0,4(s8)
a08109d0:	8fc20014 	lw	v0,20(s8)
a08109d4:	304200ff 	andi	v0,v0,0xff
a08109d8:	30420007 	andi	v0,v0,0x7
a08109dc:	a3c20001 	sb	v0,1(s8)
a08109e0:	93c30001 	lbu	v1,1(s8)
a08109e4:	24020001 	li	v0,1
a08109e8:	00621004 	sllv	v0,v0,v1
a08109ec:	00022600 	sll	a0,v0,0x18
a08109f0:	00042603 	sra	a0,a0,0x18
a08109f4:	8fc30010 	lw	v1,16(s8)
a08109f8:	8fc20004 	lw	v0,4(s8)
a08109fc:	00621021 	addu	v0,v1,v0
a0810a00:	90420000 	lbu	v0,0(v0)
a0810a04:	00021600 	sll	v0,v0,0x18
a0810a08:	00021603 	sra	v0,v0,0x18
a0810a0c:	00821024 	and	v0,a0,v0
a0810a10:	00021600 	sll	v0,v0,0x18
a0810a14:	00021603 	sra	v0,v0,0x18
a0810a18:	a3c20000 	sb	v0,0(s8)
a0810a1c:	93c20000 	lbu	v0,0(s8)
a0810a20:	0002102b 	sltu	v0,zero,v0
a0810a24:	03c0e821 	move	sp,s8
a0810a28:	8fbe000c 	lw	s8,12(sp)
a0810a2c:	27bd0010 	addiu	sp,sp,16
a0810a30:	03e00008 	jr	ra
a0810a34:	00000000 	nop

a0810a38 <set_bitmap>:
a0810a38:	27bdfff0 	addiu	sp,sp,-16
a0810a3c:	afbe000c 	sw	s8,12(sp)
a0810a40:	03a0f021 	move	s8,sp
a0810a44:	afc40010 	sw	a0,16(s8)
a0810a48:	afc50014 	sw	a1,20(s8)
a0810a4c:	8fc20014 	lw	v0,20(s8)
a0810a50:	000210c2 	srl	v0,v0,0x3
a0810a54:	afc20004 	sw	v0,4(s8)
a0810a58:	8fc20014 	lw	v0,20(s8)
a0810a5c:	304200ff 	andi	v0,v0,0xff
a0810a60:	30420007 	andi	v0,v0,0x7
a0810a64:	a3c20000 	sb	v0,0(s8)
a0810a68:	8fc30010 	lw	v1,16(s8)
a0810a6c:	8fc20004 	lw	v0,4(s8)
a0810a70:	00622821 	addu	a1,v1,v0
a0810a74:	8fc30010 	lw	v1,16(s8)
a0810a78:	8fc20004 	lw	v0,4(s8)
a0810a7c:	00621021 	addu	v0,v1,v0
a0810a80:	90420000 	lbu	v0,0(v0)
a0810a84:	00022600 	sll	a0,v0,0x18
a0810a88:	00042603 	sra	a0,a0,0x18
a0810a8c:	93c30000 	lbu	v1,0(s8)
a0810a90:	24020001 	li	v0,1
a0810a94:	00621004 	sllv	v0,v0,v1
a0810a98:	00021600 	sll	v0,v0,0x18
a0810a9c:	00021603 	sra	v0,v0,0x18
a0810aa0:	00821025 	or	v0,a0,v0
a0810aa4:	00021600 	sll	v0,v0,0x18
a0810aa8:	00021603 	sra	v0,v0,0x18
a0810aac:	304200ff 	andi	v0,v0,0xff
a0810ab0:	a0a20000 	sb	v0,0(a1)
a0810ab4:	00001021 	move	v0,zero
a0810ab8:	03c0e821 	move	sp,s8
a0810abc:	8fbe000c 	lw	s8,12(sp)
a0810ac0:	27bd0010 	addiu	sp,sp,16
a0810ac4:	03e00008 	jr	ra
a0810ac8:	00000000 	nop

a0810acc <unset_bitmap>:
a0810acc:	27bdfff0 	addiu	sp,sp,-16
a0810ad0:	afbe000c 	sw	s8,12(sp)
a0810ad4:	03a0f021 	move	s8,sp
a0810ad8:	afc40010 	sw	a0,16(s8)
a0810adc:	afc50014 	sw	a1,20(s8)
a0810ae0:	8fc20014 	lw	v0,20(s8)
a0810ae4:	000210c2 	srl	v0,v0,0x3
a0810ae8:	afc20004 	sw	v0,4(s8)
a0810aec:	8fc20014 	lw	v0,20(s8)
a0810af0:	304200ff 	andi	v0,v0,0xff
a0810af4:	30420007 	andi	v0,v0,0x7
a0810af8:	a3c20000 	sb	v0,0(s8)
a0810afc:	8fc30010 	lw	v1,16(s8)
a0810b00:	8fc20004 	lw	v0,4(s8)
a0810b04:	00622821 	addu	a1,v1,v0
a0810b08:	8fc30010 	lw	v1,16(s8)
a0810b0c:	8fc20004 	lw	v0,4(s8)
a0810b10:	00621021 	addu	v0,v1,v0
a0810b14:	90420000 	lbu	v0,0(v0)
a0810b18:	00022600 	sll	a0,v0,0x18
a0810b1c:	00042603 	sra	a0,a0,0x18
a0810b20:	93c30000 	lbu	v1,0(s8)
a0810b24:	24020001 	li	v0,1
a0810b28:	00621004 	sllv	v0,v0,v1
a0810b2c:	00021600 	sll	v0,v0,0x18
a0810b30:	00021603 	sra	v0,v0,0x18
a0810b34:	00021027 	nor	v0,zero,v0
a0810b38:	00021600 	sll	v0,v0,0x18
a0810b3c:	00021603 	sra	v0,v0,0x18
a0810b40:	00821024 	and	v0,a0,v0
a0810b44:	00021600 	sll	v0,v0,0x18
a0810b48:	00021603 	sra	v0,v0,0x18
a0810b4c:	304200ff 	andi	v0,v0,0xff
a0810b50:	a0a20000 	sb	v0,0(a1)
a0810b54:	00001021 	move	v0,zero
a0810b58:	03c0e821 	move	sp,s8
a0810b5c:	8fbe000c 	lw	s8,12(sp)
a0810b60:	27bd0010 	addiu	sp,sp,16
a0810b64:	03e00008 	jr	ra
a0810b68:	00000000 	nop
a0810b6c:	00000000 	nop

a0810b70 <disable_interrupt>:
a0810b70:	27bdffe0 	addiu	sp,sp,-32
a0810b74:	afbf001c 	sw	ra,28(sp)
a0810b78:	afbe0018 	sw	s8,24(sp)
a0810b7c:	03a0f021 	move	s8,sp
a0810b80:	0c20034e 	jal	a0800d38 <get_cp0_status>
a0810b84:	00000000 	nop
a0810b88:	afc20010 	sw	v0,16(s8)
a0810b8c:	8fc30010 	lw	v1,16(s8)
a0810b90:	2402fffe 	li	v0,-2
a0810b94:	00621024 	and	v0,v1,v0
a0810b98:	afc20010 	sw	v0,16(s8)
a0810b9c:	8fc40010 	lw	a0,16(s8)
a0810ba0:	0c200352 	jal	a0800d48 <set_cp0_status>
a0810ba4:	00000000 	nop
a0810ba8:	03c0e821 	move	sp,s8
a0810bac:	8fbf001c 	lw	ra,28(sp)
a0810bb0:	8fbe0018 	lw	s8,24(sp)
a0810bb4:	27bd0020 	addiu	sp,sp,32
a0810bb8:	03e00008 	jr	ra
a0810bbc:	00000000 	nop

a0810bc0 <enable_interrupt>:
a0810bc0:	27bdffe0 	addiu	sp,sp,-32
a0810bc4:	afbf001c 	sw	ra,28(sp)
a0810bc8:	afbe0018 	sw	s8,24(sp)
a0810bcc:	03a0f021 	move	s8,sp
a0810bd0:	0c20034e 	jal	a0800d38 <get_cp0_status>
a0810bd4:	00000000 	nop
a0810bd8:	afc20010 	sw	v0,16(s8)
a0810bdc:	8fc20010 	lw	v0,16(s8)
a0810be0:	34420001 	ori	v0,v0,0x1
a0810be4:	afc20010 	sw	v0,16(s8)
a0810be8:	8fc40010 	lw	a0,16(s8)
a0810bec:	0c200352 	jal	a0800d48 <set_cp0_status>
a0810bf0:	00000000 	nop
a0810bf4:	03c0e821 	move	sp,s8
a0810bf8:	8fbf001c 	lw	ra,28(sp)
a0810bfc:	8fbe0018 	lw	s8,24(sp)
a0810c00:	27bd0020 	addiu	sp,sp,32
a0810c04:	03e00008 	jr	ra
a0810c08:	00000000 	nop

a0810c0c <read_uart_ch>:
a0810c0c:	27bdffe8 	addiu	sp,sp,-24
a0810c10:	afbe0014 	sw	s8,20(sp)
a0810c14:	03a0f021 	move	s8,sp
a0810c18:	a3c00008 	sb	zero,8(s8)
a0810c1c:	3c02bfe4 	lui	v0,0xbfe4
a0810c20:	34428000 	ori	v0,v0,0x8000
a0810c24:	afc20004 	sw	v0,4(s8)
a0810c28:	3c02bfe4 	lui	v0,0xbfe4
a0810c2c:	34428005 	ori	v0,v0,0x8005
a0810c30:	afc20000 	sw	v0,0(s8)
a0810c34:	08204312 	j	a0810c48 <read_uart_ch+0x3c>
a0810c38:	00000000 	nop
a0810c3c:	8fc20004 	lw	v0,4(s8)
a0810c40:	90420000 	lbu	v0,0(v0)
a0810c44:	a3c20008 	sb	v0,8(s8)
a0810c48:	8fc20000 	lw	v0,0(s8)
a0810c4c:	90420000 	lbu	v0,0(v0)
a0810c50:	30420001 	andi	v0,v0,0x1
a0810c54:	304200ff 	andi	v0,v0,0xff
a0810c58:	1440fff8 	bnez	v0,a0810c3c <read_uart_ch+0x30>
a0810c5c:	00000000 	nop
a0810c60:	83c20008 	lb	v0,8(s8)
a0810c64:	03c0e821 	move	sp,s8
a0810c68:	8fbe0014 	lw	s8,20(sp)
a0810c6c:	27bd0018 	addiu	sp,sp,24
a0810c70:	03e00008 	jr	ra
a0810c74:	00000000 	nop

a0810c78 <init_InputBuffer>:
a0810c78:	27bdfff8 	addiu	sp,sp,-8
a0810c7c:	afbe0004 	sw	s8,4(sp)
a0810c80:	03a0f021 	move	s8,sp
a0810c84:	afc40008 	sw	a0,8(s8)
a0810c88:	8fc30008 	lw	v1,8(s8)
a0810c8c:	3c02a085 	lui	v0,0xa085
a0810c90:	24429bf0 	addiu	v0,v0,-25616
a0810c94:	ac620000 	sw	v0,0(v1)
a0810c98:	8fc30008 	lw	v1,8(s8)
a0810c9c:	240203e8 	li	v0,1000
a0810ca0:	ac620004 	sw	v0,4(v1)
a0810ca4:	8fc20008 	lw	v0,8(s8)
a0810ca8:	ac400008 	sw	zero,8(v0)
a0810cac:	8fc20008 	lw	v0,8(s8)
a0810cb0:	ac40000c 	sw	zero,12(v0)
a0810cb4:	03c0e821 	move	sp,s8
a0810cb8:	8fbe0004 	lw	s8,4(sp)
a0810cbc:	27bd0008 	addiu	sp,sp,8
a0810cc0:	03e00008 	jr	ra
a0810cc4:	00000000 	nop

a0810cc8 <init_ProcessShow>:
a0810cc8:	27bdfff0 	addiu	sp,sp,-16
a0810ccc:	afbe000c 	sw	s8,12(sp)
a0810cd0:	03a0f021 	move	s8,sp
a0810cd4:	afc00000 	sw	zero,0(s8)
a0810cd8:	08204343 	j	a0810d0c <init_ProcessShow+0x44>
a0810cdc:	00000000 	nop
a0810ce0:	8fc20000 	lw	v0,0(s8)
a0810ce4:	3c04a087 	lui	a0,0xa087
a0810ce8:	00021880 	sll	v1,v0,0x2
a0810cec:	00031080 	sll	v0,v1,0x2
a0810cf0:	00431023 	subu	v0,v0,v1
a0810cf4:	24834924 	addiu	v1,a0,18724
a0810cf8:	00431021 	addu	v0,v0,v1
a0810cfc:	ac400000 	sw	zero,0(v0)
a0810d00:	8fc20000 	lw	v0,0(s8)
a0810d04:	24420001 	addiu	v0,v0,1
a0810d08:	afc20000 	sw	v0,0(s8)
a0810d0c:	8fc20000 	lw	v0,0(s8)
a0810d10:	28420014 	slti	v0,v0,20
a0810d14:	1440fff2 	bnez	v0,a0810ce0 <init_ProcessShow+0x18>
a0810d18:	00000000 	nop
a0810d1c:	03c0e821 	move	sp,s8
a0810d20:	8fbe000c 	lw	s8,12(sp)
a0810d24:	27bd0010 	addiu	sp,sp,16
a0810d28:	03e00008 	jr	ra
a0810d2c:	00000000 	nop

a0810d30 <handle_input>:
a0810d30:	27bdfff0 	addiu	sp,sp,-16
a0810d34:	afbe000c 	sw	s8,12(sp)
a0810d38:	03a0f021 	move	s8,sp
a0810d3c:	afc40010 	sw	a0,16(s8)
a0810d40:	afc00000 	sw	zero,0(s8)
a0810d44:	08204363 	j	a0810d8c <handle_input+0x5c>
a0810d48:	00000000 	nop
a0810d4c:	8fc30000 	lw	v1,0(s8)
a0810d50:	8fc20010 	lw	v0,16(s8)
a0810d54:	00431021 	addu	v0,v0,v1
a0810d58:	80430000 	lb	v1,0(v0)
a0810d5c:	2402000d 	li	v0,13
a0810d60:	14620007 	bne	v1,v0,a0810d80 <handle_input+0x50>
a0810d64:	00000000 	nop
a0810d68:	8fc20000 	lw	v0,0(s8)
a0810d6c:	8fc30010 	lw	v1,16(s8)
a0810d70:	00621021 	addu	v0,v1,v0
a0810d74:	a0400000 	sb	zero,0(v0)
a0810d78:	08204367 	j	a0810d9c <handle_input+0x6c>
a0810d7c:	00000000 	nop
a0810d80:	8fc20000 	lw	v0,0(s8)
a0810d84:	24420001 	addiu	v0,v0,1
a0810d88:	afc20000 	sw	v0,0(s8)
a0810d8c:	8fc20000 	lw	v0,0(s8)
a0810d90:	28420200 	slti	v0,v0,512
a0810d94:	1440ffed 	bnez	v0,a0810d4c <handle_input+0x1c>
a0810d98:	00000000 	nop
a0810d9c:	03c0e821 	move	sp,s8
a0810da0:	8fbe000c 	lw	s8,12(sp)
a0810da4:	27bd0010 	addiu	sp,sp,16
a0810da8:	03e00008 	jr	ra
a0810dac:	00000000 	nop

a0810db0 <separate_params>:
a0810db0:	27bdffd8 	addiu	sp,sp,-40
a0810db4:	afbf0024 	sw	ra,36(sp)
a0810db8:	afbe0020 	sw	s8,32(sp)
a0810dbc:	03a0f021 	move	s8,sp
a0810dc0:	afc40028 	sw	a0,40(s8)
a0810dc4:	afc00014 	sw	zero,20(s8)
a0810dc8:	afc00010 	sw	zero,16(s8)
a0810dcc:	3c02a087 	lui	v0,0xa087
a0810dd0:	2444485c 	addiu	a0,v0,18524
a0810dd4:	240500c8 	li	a1,200
a0810dd8:	0c203ad3 	jal	a080eb4c <bzero>
a0810ddc:	00000000 	nop
a0810de0:	afc00018 	sw	zero,24(s8)
a0810de4:	082043b9 	j	a0810ee4 <separate_params+0x134>
a0810de8:	00000000 	nop
a0810dec:	8fc30018 	lw	v1,24(s8)
a0810df0:	8fc20028 	lw	v0,40(s8)
a0810df4:	00431021 	addu	v0,v0,v1
a0810df8:	80420000 	lb	v0,0(v0)
a0810dfc:	1440000d 	bnez	v0,a0810e34 <separate_params+0x84>
a0810e00:	00000000 	nop
a0810e04:	8fc20014 	lw	v0,20(s8)
a0810e08:	8fc40010 	lw	a0,16(s8)
a0810e0c:	3c05a087 	lui	a1,0xa087
a0810e10:	00021080 	sll	v0,v0,0x2
a0810e14:	00021880 	sll	v1,v0,0x2
a0810e18:	00431021 	addu	v0,v0,v1
a0810e1c:	00441821 	addu	v1,v0,a0
a0810e20:	24a2485c 	addiu	v0,a1,18524
a0810e24:	00621021 	addu	v0,v1,v0
a0810e28:	a0400000 	sb	zero,0(v0)
a0810e2c:	082043bd 	j	a0810ef4 <separate_params+0x144>
a0810e30:	00000000 	nop
a0810e34:	8fc30018 	lw	v1,24(s8)
a0810e38:	8fc20028 	lw	v0,40(s8)
a0810e3c:	00431021 	addu	v0,v0,v1
a0810e40:	80430000 	lb	v1,0(v0)
a0810e44:	24020020 	li	v0,32
a0810e48:	14620011 	bne	v1,v0,a0810e90 <separate_params+0xe0>
a0810e4c:	00000000 	nop
a0810e50:	8fc20014 	lw	v0,20(s8)
a0810e54:	8fc40010 	lw	a0,16(s8)
a0810e58:	3c05a087 	lui	a1,0xa087
a0810e5c:	00021080 	sll	v0,v0,0x2
a0810e60:	00021880 	sll	v1,v0,0x2
a0810e64:	00431021 	addu	v0,v0,v1
a0810e68:	00441821 	addu	v1,v0,a0
a0810e6c:	24a2485c 	addiu	v0,a1,18524
a0810e70:	00621021 	addu	v0,v1,v0
a0810e74:	a0400000 	sb	zero,0(v0)
a0810e78:	8fc20014 	lw	v0,20(s8)
a0810e7c:	24420001 	addiu	v0,v0,1
a0810e80:	afc20014 	sw	v0,20(s8)
a0810e84:	afc00010 	sw	zero,16(s8)
a0810e88:	082043b6 	j	a0810ed8 <separate_params+0x128>
a0810e8c:	00000000 	nop
a0810e90:	8fc40014 	lw	a0,20(s8)
a0810e94:	8fc50010 	lw	a1,16(s8)
a0810e98:	8fc30018 	lw	v1,24(s8)
a0810e9c:	8fc20028 	lw	v0,40(s8)
a0810ea0:	00431021 	addu	v0,v0,v1
a0810ea4:	80460000 	lb	a2,0(v0)
a0810ea8:	3c07a087 	lui	a3,0xa087
a0810eac:	00801021 	move	v0,a0
a0810eb0:	00021080 	sll	v0,v0,0x2
a0810eb4:	00021880 	sll	v1,v0,0x2
a0810eb8:	00431021 	addu	v0,v0,v1
a0810ebc:	00451821 	addu	v1,v0,a1
a0810ec0:	24e2485c 	addiu	v0,a3,18524
a0810ec4:	00621021 	addu	v0,v1,v0
a0810ec8:	a0460000 	sb	a2,0(v0)
a0810ecc:	8fc20010 	lw	v0,16(s8)
a0810ed0:	24420001 	addiu	v0,v0,1
a0810ed4:	afc20010 	sw	v0,16(s8)
a0810ed8:	8fc20018 	lw	v0,24(s8)
a0810edc:	24420001 	addiu	v0,v0,1
a0810ee0:	afc20018 	sw	v0,24(s8)
a0810ee4:	8fc20018 	lw	v0,24(s8)
a0810ee8:	284203e8 	slti	v0,v0,1000
a0810eec:	1440ffbf 	bnez	v0,a0810dec <separate_params+0x3c>
a0810ef0:	00000000 	nop
a0810ef4:	03c0e821 	move	sp,s8
a0810ef8:	8fbf0024 	lw	ra,36(sp)
a0810efc:	8fbe0020 	lw	s8,32(sp)
a0810f00:	27bd0028 	addiu	sp,sp,40
a0810f04:	03e00008 	jr	ra
a0810f08:	00000000 	nop

a0810f0c <test_shell>:
a0810f0c:	27bdffc0 	addiu	sp,sp,-64
a0810f10:	afbf003c 	sw	ra,60(sp)
a0810f14:	afbe0038 	sw	s8,56(sp)
a0810f18:	afb10034 	sw	s1,52(sp)
a0810f1c:	afb00030 	sw	s0,48(sp)
a0810f20:	03a0f021 	move	s8,sp
a0810f24:	24040001 	li	a0,1
a0810f28:	24050032 	li	a1,50
a0810f2c:	0c203788 	jal	a080de20 <sys_move_cursor>
a0810f30:	00000000 	nop
a0810f34:	3c02a081 	lui	v0,0xa081
a0810f38:	244467c4 	addiu	a0,v0,26564
a0810f3c:	0c203ff7 	jal	a080ffdc <printf>
a0810f40:	00000000 	nop
a0810f44:	3c02a081 	lui	v0,0xa081
a0810f48:	244467f4 	addiu	a0,v0,26612
a0810f4c:	0c203ff7 	jal	a080ffdc <printf>
a0810f50:	00000000 	nop
a0810f54:	afc00028 	sw	zero,40(s8)
a0810f58:	afc00024 	sw	zero,36(s8)
a0810f5c:	3c02a085 	lui	v0,0xa085
a0810f60:	24429fd8 	addiu	v0,v0,-24616
a0810f64:	afc20020 	sw	v0,32(s8)
a0810f68:	8fc40020 	lw	a0,32(s8)
a0810f6c:	0c20431e 	jal	a0810c78 <init_InputBuffer>
a0810f70:	00000000 	nop
a0810f74:	0c204332 	jal	a0810cc8 <init_ProcessShow>
a0810f78:	00000000 	nop
a0810f7c:	0c2042dc 	jal	a0810b70 <disable_interrupt>
a0810f80:	00000000 	nop
a0810f84:	0c204303 	jal	a0810c0c <read_uart_ch>
a0810f88:	00000000 	nop
a0810f8c:	a3c2001c 	sb	v0,28(s8)
a0810f90:	0c2042f0 	jal	a0810bc0 <enable_interrupt>
a0810f94:	00000000 	nop
a0810f98:	83c2001c 	lb	v0,28(s8)
a0810f9c:	1040fff7 	beqz	v0,a0810f7c <test_shell+0x70>
a0810fa0:	00000000 	nop
a0810fa4:	83c3001c 	lb	v1,28(s8)
a0810fa8:	3c02a081 	lui	v0,0xa081
a0810fac:	24446808 	addiu	a0,v0,26632
a0810fb0:	00602821 	move	a1,v1
a0810fb4:	0c203ff7 	jal	a080ffdc <printf>
a0810fb8:	00000000 	nop
a0810fbc:	8fc20020 	lw	v0,32(s8)
a0810fc0:	8c430000 	lw	v1,0(v0)
a0810fc4:	8fc20028 	lw	v0,40(s8)
a0810fc8:	00621821 	addu	v1,v1,v0
a0810fcc:	93c2001c 	lbu	v0,28(s8)
a0810fd0:	a0620000 	sb	v0,0(v1)
a0810fd4:	8fc20020 	lw	v0,32(s8)
a0810fd8:	8c420008 	lw	v0,8(v0)
a0810fdc:	24430001 	addiu	v1,v0,1
a0810fe0:	8fc20020 	lw	v0,32(s8)
a0810fe4:	ac430008 	sw	v1,8(v0)
a0810fe8:	8fc20028 	lw	v0,40(s8)
a0810fec:	24420001 	addiu	v0,v0,1
a0810ff0:	afc20028 	sw	v0,40(s8)
a0810ff4:	83c3001c 	lb	v1,28(s8)
a0810ff8:	2402000d 	li	v0,13
a0810ffc:	1462ffdf 	bne	v1,v0,a0810f7c <test_shell+0x70>
a0811000:	00000000 	nop
a0811004:	8fc20020 	lw	v0,32(s8)
a0811008:	8c430000 	lw	v1,0(v0)
a081100c:	8fc20020 	lw	v0,32(s8)
a0811010:	8c42000c 	lw	v0,12(v0)
a0811014:	00621021 	addu	v0,v1,v0
a0811018:	80430000 	lb	v1,0(v0)
a081101c:	24020070 	li	v0,112
a0811020:	1462004b 	bne	v1,v0,a0811150 <test_shell+0x244>
a0811024:	00000000 	nop
a0811028:	8fc20020 	lw	v0,32(s8)
a081102c:	8c430000 	lw	v1,0(v0)
a0811030:	8fc20020 	lw	v0,32(s8)
a0811034:	8c42000c 	lw	v0,12(v0)
a0811038:	24420001 	addiu	v0,v0,1
a081103c:	00621021 	addu	v0,v1,v0
a0811040:	80430000 	lb	v1,0(v0)
a0811044:	24020073 	li	v0,115
a0811048:	14620041 	bne	v1,v0,a0811150 <test_shell+0x244>
a081104c:	00000000 	nop
a0811050:	0c2038da 	jal	a080e368 <sys_ps>
a0811054:	00000000 	nop
a0811058:	3c02a081 	lui	v0,0xa081
a081105c:	2444680c 	addiu	a0,v0,26636
a0811060:	0c203ff7 	jal	a080ffdc <printf>
a0811064:	00000000 	nop
a0811068:	afc00018 	sw	zero,24(s8)
a081106c:	08204444 	j	a0811110 <test_shell+0x204>
a0811070:	00000000 	nop
a0811074:	8fc20018 	lw	v0,24(s8)
a0811078:	3c04a087 	lui	a0,0xa087
a081107c:	00021880 	sll	v1,v0,0x2
a0811080:	00031080 	sll	v0,v1,0x2
a0811084:	00431023 	subu	v0,v0,v1
a0811088:	24834924 	addiu	v1,a0,18724
a081108c:	00431021 	addu	v0,v0,v1
a0811090:	8c500000 	lw	s0,0(v0)
a0811094:	8fc30018 	lw	v1,24(s8)
a0811098:	3c02a087 	lui	v0,0xa087
a081109c:	24444924 	addiu	a0,v0,18724
a08110a0:	00601021 	move	v0,v1
a08110a4:	00021880 	sll	v1,v0,0x2
a08110a8:	00031080 	sll	v0,v1,0x2
a08110ac:	00431023 	subu	v0,v0,v1
a08110b0:	00821021 	addu	v0,a0,v0
a08110b4:	8c510004 	lw	s1,4(v0)
a08110b8:	8fc20018 	lw	v0,24(s8)
a08110bc:	3c04a087 	lui	a0,0xa087
a08110c0:	00021880 	sll	v1,v0,0x2
a08110c4:	00031080 	sll	v0,v1,0x2
a08110c8:	00431023 	subu	v0,v0,v1
a08110cc:	24834924 	addiu	v1,a0,18724
a08110d0:	00431021 	addu	v0,v0,v1
a08110d4:	8c420008 	lw	v0,8(v0)
a08110d8:	00402021 	move	a0,v0
a08110dc:	0c204a74 	jal	a08129d0 <status_type_to_string>
a08110e0:	00000000 	nop
a08110e4:	00401821 	move	v1,v0
a08110e8:	3c02a081 	lui	v0,0xa081
a08110ec:	24446820 	addiu	a0,v0,26656
a08110f0:	02002821 	move	a1,s0
a08110f4:	02203021 	move	a2,s1
a08110f8:	00603821 	move	a3,v1
a08110fc:	0c203ff7 	jal	a080ffdc <printf>
a0811100:	00000000 	nop
a0811104:	8fc20018 	lw	v0,24(s8)
a0811108:	24420001 	addiu	v0,v0,1
a081110c:	afc20018 	sw	v0,24(s8)
a0811110:	8fc20018 	lw	v0,24(s8)
a0811114:	3c04a087 	lui	a0,0xa087
a0811118:	00021880 	sll	v1,v0,0x2
a081111c:	00031080 	sll	v0,v1,0x2
a0811120:	00431023 	subu	v0,v0,v1
a0811124:	24834924 	addiu	v1,a0,18724
a0811128:	00431021 	addu	v0,v0,v1
a081112c:	8c420000 	lw	v0,0(v0)
a0811130:	0441ffd0 	bgez	v0,a0811074 <test_shell+0x168>
a0811134:	00000000 	nop
a0811138:	3c02a081 	lui	v0,0xa081
a081113c:	244467f4 	addiu	a0,v0,26612
a0811140:	0c203ff7 	jal	a080ffdc <printf>
a0811144:	00000000 	nop
a0811148:	08204a6f 	j	a08129bc <test_shell+0x1ab0>
a081114c:	00000000 	nop
a0811150:	8fc20020 	lw	v0,32(s8)
a0811154:	8c430000 	lw	v1,0(v0)
a0811158:	8fc20020 	lw	v0,32(s8)
a081115c:	8c42000c 	lw	v0,12(v0)
a0811160:	00621021 	addu	v0,v1,v0
a0811164:	80430000 	lb	v1,0(v0)
a0811168:	24020063 	li	v0,99
a081116c:	14620039 	bne	v1,v0,a0811254 <test_shell+0x348>
a0811170:	00000000 	nop
a0811174:	8fc20020 	lw	v0,32(s8)
a0811178:	8c430000 	lw	v1,0(v0)
a081117c:	8fc20020 	lw	v0,32(s8)
a0811180:	8c42000c 	lw	v0,12(v0)
a0811184:	24420001 	addiu	v0,v0,1
a0811188:	00621021 	addu	v0,v1,v0
a081118c:	80430000 	lb	v1,0(v0)
a0811190:	2402006c 	li	v0,108
a0811194:	1462002f 	bne	v1,v0,a0811254 <test_shell+0x348>
a0811198:	00000000 	nop
a081119c:	8fc20020 	lw	v0,32(s8)
a08111a0:	8c430000 	lw	v1,0(v0)
a08111a4:	8fc20020 	lw	v0,32(s8)
a08111a8:	8c42000c 	lw	v0,12(v0)
a08111ac:	24420002 	addiu	v0,v0,2
a08111b0:	00621021 	addu	v0,v1,v0
a08111b4:	80430000 	lb	v1,0(v0)
a08111b8:	24020065 	li	v0,101
a08111bc:	14620025 	bne	v1,v0,a0811254 <test_shell+0x348>
a08111c0:	00000000 	nop
a08111c4:	8fc20020 	lw	v0,32(s8)
a08111c8:	8c430000 	lw	v1,0(v0)
a08111cc:	8fc20020 	lw	v0,32(s8)
a08111d0:	8c42000c 	lw	v0,12(v0)
a08111d4:	24420003 	addiu	v0,v0,3
a08111d8:	00621021 	addu	v0,v1,v0
a08111dc:	80430000 	lb	v1,0(v0)
a08111e0:	24020061 	li	v0,97
a08111e4:	1462001b 	bne	v1,v0,a0811254 <test_shell+0x348>
a08111e8:	00000000 	nop
a08111ec:	8fc20020 	lw	v0,32(s8)
a08111f0:	8c430000 	lw	v1,0(v0)
a08111f4:	8fc20020 	lw	v0,32(s8)
a08111f8:	8c42000c 	lw	v0,12(v0)
a08111fc:	24420004 	addiu	v0,v0,4
a0811200:	00621021 	addu	v0,v1,v0
a0811204:	80430000 	lb	v1,0(v0)
a0811208:	24020072 	li	v0,114
a081120c:	14620011 	bne	v1,v0,a0811254 <test_shell+0x348>
a0811210:	00000000 	nop
a0811214:	0c20379a 	jal	a080de68 <sys_screen_clear>
a0811218:	00000000 	nop
a081121c:	24040001 	li	a0,1
a0811220:	2405000f 	li	a1,15
a0811224:	0c203788 	jal	a080de20 <sys_move_cursor>
a0811228:	00000000 	nop
a081122c:	3c02a081 	lui	v0,0xa081
a0811230:	244467c4 	addiu	a0,v0,26564
a0811234:	0c203ff7 	jal	a080ffdc <printf>
a0811238:	00000000 	nop
a081123c:	3c02a081 	lui	v0,0xa081
a0811240:	244467f4 	addiu	a0,v0,26612
a0811244:	0c203ff7 	jal	a080ffdc <printf>
a0811248:	00000000 	nop
a081124c:	08204a6f 	j	a08129bc <test_shell+0x1ab0>
a0811250:	00000000 	nop
a0811254:	8fc20020 	lw	v0,32(s8)
a0811258:	8c430000 	lw	v1,0(v0)
a081125c:	8fc20020 	lw	v0,32(s8)
a0811260:	8c42000c 	lw	v0,12(v0)
a0811264:	00621021 	addu	v0,v1,v0
a0811268:	80430000 	lb	v1,0(v0)
a081126c:	24020065 	li	v0,101
a0811270:	14620051 	bne	v1,v0,a08113b8 <test_shell+0x4ac>
a0811274:	00000000 	nop
a0811278:	8fc20020 	lw	v0,32(s8)
a081127c:	8c430000 	lw	v1,0(v0)
a0811280:	8fc20020 	lw	v0,32(s8)
a0811284:	8c42000c 	lw	v0,12(v0)
a0811288:	24420001 	addiu	v0,v0,1
a081128c:	00621021 	addu	v0,v1,v0
a0811290:	80430000 	lb	v1,0(v0)
a0811294:	24020078 	li	v0,120
a0811298:	14620047 	bne	v1,v0,a08113b8 <test_shell+0x4ac>
a081129c:	00000000 	nop
a08112a0:	8fc20020 	lw	v0,32(s8)
a08112a4:	8c430000 	lw	v1,0(v0)
a08112a8:	8fc20020 	lw	v0,32(s8)
a08112ac:	8c42000c 	lw	v0,12(v0)
a08112b0:	24420002 	addiu	v0,v0,2
a08112b4:	00621021 	addu	v0,v1,v0
a08112b8:	80430000 	lb	v1,0(v0)
a08112bc:	24020065 	li	v0,101
a08112c0:	1462003d 	bne	v1,v0,a08113b8 <test_shell+0x4ac>
a08112c4:	00000000 	nop
a08112c8:	8fc20020 	lw	v0,32(s8)
a08112cc:	8c430000 	lw	v1,0(v0)
a08112d0:	8fc20020 	lw	v0,32(s8)
a08112d4:	8c42000c 	lw	v0,12(v0)
a08112d8:	24420003 	addiu	v0,v0,3
a08112dc:	00621021 	addu	v0,v1,v0
a08112e0:	80430000 	lb	v1,0(v0)
a08112e4:	24020063 	li	v0,99
a08112e8:	14620033 	bne	v1,v0,a08113b8 <test_shell+0x4ac>
a08112ec:	00000000 	nop
a08112f0:	8fc20020 	lw	v0,32(s8)
a08112f4:	8c430000 	lw	v1,0(v0)
a08112f8:	8fc20020 	lw	v0,32(s8)
a08112fc:	8c42000c 	lw	v0,12(v0)
a0811300:	24420004 	addiu	v0,v0,4
a0811304:	00621021 	addu	v0,v1,v0
a0811308:	80430000 	lb	v1,0(v0)
a081130c:	24020020 	li	v0,32
a0811310:	14620029 	bne	v1,v0,a08113b8 <test_shell+0x4ac>
a0811314:	00000000 	nop
a0811318:	8fc20020 	lw	v0,32(s8)
a081131c:	8c430000 	lw	v1,0(v0)
a0811320:	8fc20020 	lw	v0,32(s8)
a0811324:	8c42000c 	lw	v0,12(v0)
a0811328:	24420005 	addiu	v0,v0,5
a081132c:	00621021 	addu	v0,v1,v0
a0811330:	00402021 	move	a0,v0
a0811334:	0c203be6 	jal	a080ef98 <atoi>
a0811338:	00000000 	nop
a081133c:	afc20024 	sw	v0,36(s8)
a0811340:	8fc20024 	lw	v0,36(s8)
a0811344:	0440001c 	bltz	v0,a08113b8 <test_shell+0x4ac>
a0811348:	00000000 	nop
a081134c:	8fc30024 	lw	v1,36(s8)
a0811350:	3c02a081 	lui	v0,0xa081
a0811354:	8c42741c 	lw	v0,29724(v0)
a0811358:	2442ffff 	addiu	v0,v0,-1
a081135c:	0043102b 	sltu	v0,v0,v1
a0811360:	14400015 	bnez	v0,a08113b8 <test_shell+0x4ac>
a0811364:	00000000 	nop
a0811368:	3c02a081 	lui	v0,0xa081
a081136c:	2444683c 	addiu	a0,v0,26684
a0811370:	8fc50024 	lw	a1,36(s8)
a0811374:	0c203ff7 	jal	a080ffdc <printf>
a0811378:	00000000 	nop
a081137c:	8fc20024 	lw	v0,36(s8)
a0811380:	3c03a081 	lui	v1,0xa081
a0811384:	00022080 	sll	a0,v0,0x2
a0811388:	24627420 	addiu	v0,v1,29728
a081138c:	00821021 	addu	v0,a0,v0
a0811390:	8c420000 	lw	v0,0(v0)
a0811394:	00402021 	move	a0,v0
a0811398:	0c203886 	jal	a080e218 <sys_spawn>
a081139c:	00000000 	nop
a08113a0:	3c02a081 	lui	v0,0xa081
a08113a4:	244467f4 	addiu	a0,v0,26612
a08113a8:	0c203ff7 	jal	a080ffdc <printf>
a08113ac:	00000000 	nop
a08113b0:	08204a6f 	j	a08129bc <test_shell+0x1ab0>
a08113b4:	00000000 	nop
a08113b8:	8fc20020 	lw	v0,32(s8)
a08113bc:	8c430000 	lw	v1,0(v0)
a08113c0:	8fc20020 	lw	v0,32(s8)
a08113c4:	8c42000c 	lw	v0,12(v0)
a08113c8:	00621021 	addu	v0,v1,v0
a08113cc:	80430000 	lb	v1,0(v0)
a08113d0:	2402006b 	li	v0,107
a08113d4:	1462004b 	bne	v1,v0,a0811504 <test_shell+0x5f8>
a08113d8:	00000000 	nop
a08113dc:	8fc20020 	lw	v0,32(s8)
a08113e0:	8c430000 	lw	v1,0(v0)
a08113e4:	8fc20020 	lw	v0,32(s8)
a08113e8:	8c42000c 	lw	v0,12(v0)
a08113ec:	24420001 	addiu	v0,v0,1
a08113f0:	00621021 	addu	v0,v1,v0
a08113f4:	80430000 	lb	v1,0(v0)
a08113f8:	24020069 	li	v0,105
a08113fc:	14620041 	bne	v1,v0,a0811504 <test_shell+0x5f8>
a0811400:	00000000 	nop
a0811404:	8fc20020 	lw	v0,32(s8)
a0811408:	8c430000 	lw	v1,0(v0)
a081140c:	8fc20020 	lw	v0,32(s8)
a0811410:	8c42000c 	lw	v0,12(v0)
a0811414:	24420002 	addiu	v0,v0,2
a0811418:	00621021 	addu	v0,v1,v0
a081141c:	80430000 	lb	v1,0(v0)
a0811420:	2402006c 	li	v0,108
a0811424:	14620037 	bne	v1,v0,a0811504 <test_shell+0x5f8>
a0811428:	00000000 	nop
a081142c:	8fc20020 	lw	v0,32(s8)
a0811430:	8c430000 	lw	v1,0(v0)
a0811434:	8fc20020 	lw	v0,32(s8)
a0811438:	8c42000c 	lw	v0,12(v0)
a081143c:	24420003 	addiu	v0,v0,3
a0811440:	00621021 	addu	v0,v1,v0
a0811444:	80430000 	lb	v1,0(v0)
a0811448:	2402006c 	li	v0,108
a081144c:	1462002d 	bne	v1,v0,a0811504 <test_shell+0x5f8>
a0811450:	00000000 	nop
a0811454:	8fc20020 	lw	v0,32(s8)
a0811458:	8c430000 	lw	v1,0(v0)
a081145c:	8fc20020 	lw	v0,32(s8)
a0811460:	8c42000c 	lw	v0,12(v0)
a0811464:	24420004 	addiu	v0,v0,4
a0811468:	00621021 	addu	v0,v1,v0
a081146c:	80430000 	lb	v1,0(v0)
a0811470:	24020020 	li	v0,32
a0811474:	14620023 	bne	v1,v0,a0811504 <test_shell+0x5f8>
a0811478:	00000000 	nop
a081147c:	8fc20020 	lw	v0,32(s8)
a0811480:	8c430000 	lw	v1,0(v0)
a0811484:	8fc20020 	lw	v0,32(s8)
a0811488:	8c42000c 	lw	v0,12(v0)
a081148c:	24420005 	addiu	v0,v0,5
a0811490:	00621021 	addu	v0,v1,v0
a0811494:	00402021 	move	a0,v0
a0811498:	0c203be6 	jal	a080ef98 <atoi>
a081149c:	00000000 	nop
a08114a0:	afc20024 	sw	v0,36(s8)
a08114a4:	8fc20024 	lw	v0,36(s8)
a08114a8:	04400016 	bltz	v0,a0811504 <test_shell+0x5f8>
a08114ac:	00000000 	nop
a08114b0:	8fc30024 	lw	v1,36(s8)
a08114b4:	3c02a081 	lui	v0,0xa081
a08114b8:	8c42741c 	lw	v0,29724(v0)
a08114bc:	2442ffff 	addiu	v0,v0,-1
a08114c0:	0043102b 	sltu	v0,v0,v1
a08114c4:	1440000f 	bnez	v0,a0811504 <test_shell+0x5f8>
a08114c8:	00000000 	nop
a08114cc:	3c02a081 	lui	v0,0xa081
a08114d0:	24446854 	addiu	a0,v0,26708
a08114d4:	8fc50024 	lw	a1,36(s8)
a08114d8:	0c203ff7 	jal	a080ffdc <printf>
a08114dc:	00000000 	nop
a08114e0:	8fc40024 	lw	a0,36(s8)
a08114e4:	0c2038c9 	jal	a080e324 <sys_kill>
a08114e8:	00000000 	nop
a08114ec:	3c02a081 	lui	v0,0xa081
a08114f0:	244467f4 	addiu	a0,v0,26612
a08114f4:	0c203ff7 	jal	a080ffdc <printf>
a08114f8:	00000000 	nop
a08114fc:	08204a6f 	j	a08129bc <test_shell+0x1ab0>
a0811500:	00000000 	nop
a0811504:	8fc20020 	lw	v0,32(s8)
a0811508:	8c430000 	lw	v1,0(v0)
a081150c:	8fc20020 	lw	v0,32(s8)
a0811510:	8c42000c 	lw	v0,12(v0)
a0811514:	00621021 	addu	v0,v1,v0
a0811518:	80430000 	lb	v1,0(v0)
a081151c:	2402006d 	li	v0,109
a0811520:	14620027 	bne	v1,v0,a08115c0 <test_shell+0x6b4>
a0811524:	00000000 	nop
a0811528:	8fc20020 	lw	v0,32(s8)
a081152c:	8c430000 	lw	v1,0(v0)
a0811530:	8fc20020 	lw	v0,32(s8)
a0811534:	8c42000c 	lw	v0,12(v0)
a0811538:	24420001 	addiu	v0,v0,1
a081153c:	00621021 	addu	v0,v1,v0
a0811540:	80430000 	lb	v1,0(v0)
a0811544:	2402006b 	li	v0,107
a0811548:	1462001d 	bne	v1,v0,a08115c0 <test_shell+0x6b4>
a081154c:	00000000 	nop
a0811550:	8fc20020 	lw	v0,32(s8)
a0811554:	8c430000 	lw	v1,0(v0)
a0811558:	8fc20020 	lw	v0,32(s8)
a081155c:	8c42000c 	lw	v0,12(v0)
a0811560:	24420002 	addiu	v0,v0,2
a0811564:	00621021 	addu	v0,v1,v0
a0811568:	80430000 	lb	v1,0(v0)
a081156c:	24020066 	li	v0,102
a0811570:	14620013 	bne	v1,v0,a08115c0 <test_shell+0x6b4>
a0811574:	00000000 	nop
a0811578:	8fc20020 	lw	v0,32(s8)
a081157c:	8c430000 	lw	v1,0(v0)
a0811580:	8fc20020 	lw	v0,32(s8)
a0811584:	8c42000c 	lw	v0,12(v0)
a0811588:	24420003 	addiu	v0,v0,3
a081158c:	00621021 	addu	v0,v1,v0
a0811590:	80430000 	lb	v1,0(v0)
a0811594:	24020073 	li	v0,115
a0811598:	14620009 	bne	v1,v0,a08115c0 <test_shell+0x6b4>
a081159c:	00000000 	nop
a08115a0:	0c2039a7 	jal	a080e69c <sys_mkfs>
a08115a4:	00000000 	nop
a08115a8:	3c02a081 	lui	v0,0xa081
a08115ac:	244467f4 	addiu	a0,v0,26612
a08115b0:	0c203ff7 	jal	a080ffdc <printf>
a08115b4:	00000000 	nop
a08115b8:	08204a6f 	j	a08129bc <test_shell+0x1ab0>
a08115bc:	00000000 	nop
a08115c0:	8fc20020 	lw	v0,32(s8)
a08115c4:	8c430000 	lw	v1,0(v0)
a08115c8:	8fc20020 	lw	v0,32(s8)
a08115cc:	8c42000c 	lw	v0,12(v0)
a08115d0:	00621021 	addu	v0,v1,v0
a08115d4:	80430000 	lb	v1,0(v0)
a08115d8:	24020073 	li	v0,115
a08115dc:	1462003b 	bne	v1,v0,a08116cc <test_shell+0x7c0>
a08115e0:	00000000 	nop
a08115e4:	8fc20020 	lw	v0,32(s8)
a08115e8:	8c430000 	lw	v1,0(v0)
a08115ec:	8fc20020 	lw	v0,32(s8)
a08115f0:	8c42000c 	lw	v0,12(v0)
a08115f4:	24420001 	addiu	v0,v0,1
a08115f8:	00621021 	addu	v0,v1,v0
a08115fc:	80430000 	lb	v1,0(v0)
a0811600:	24020074 	li	v0,116
a0811604:	14620031 	bne	v1,v0,a08116cc <test_shell+0x7c0>
a0811608:	00000000 	nop
a081160c:	8fc20020 	lw	v0,32(s8)
a0811610:	8c430000 	lw	v1,0(v0)
a0811614:	8fc20020 	lw	v0,32(s8)
a0811618:	8c42000c 	lw	v0,12(v0)
a081161c:	24420002 	addiu	v0,v0,2
a0811620:	00621021 	addu	v0,v1,v0
a0811624:	80430000 	lb	v1,0(v0)
a0811628:	24020061 	li	v0,97
a081162c:	14620027 	bne	v1,v0,a08116cc <test_shell+0x7c0>
a0811630:	00000000 	nop
a0811634:	8fc20020 	lw	v0,32(s8)
a0811638:	8c430000 	lw	v1,0(v0)
a081163c:	8fc20020 	lw	v0,32(s8)
a0811640:	8c42000c 	lw	v0,12(v0)
a0811644:	24420003 	addiu	v0,v0,3
a0811648:	00621021 	addu	v0,v1,v0
a081164c:	80430000 	lb	v1,0(v0)
a0811650:	24020074 	li	v0,116
a0811654:	1462001d 	bne	v1,v0,a08116cc <test_shell+0x7c0>
a0811658:	00000000 	nop
a081165c:	8fc20020 	lw	v0,32(s8)
a0811660:	8c430000 	lw	v1,0(v0)
a0811664:	8fc20020 	lw	v0,32(s8)
a0811668:	8c42000c 	lw	v0,12(v0)
a081166c:	24420004 	addiu	v0,v0,4
a0811670:	00621021 	addu	v0,v1,v0
a0811674:	80430000 	lb	v1,0(v0)
a0811678:	24020066 	li	v0,102
a081167c:	14620013 	bne	v1,v0,a08116cc <test_shell+0x7c0>
a0811680:	00000000 	nop
a0811684:	8fc20020 	lw	v0,32(s8)
a0811688:	8c430000 	lw	v1,0(v0)
a081168c:	8fc20020 	lw	v0,32(s8)
a0811690:	8c42000c 	lw	v0,12(v0)
a0811694:	24420005 	addiu	v0,v0,5
a0811698:	00621021 	addu	v0,v1,v0
a081169c:	80430000 	lb	v1,0(v0)
a08116a0:	24020073 	li	v0,115
a08116a4:	14620009 	bne	v1,v0,a08116cc <test_shell+0x7c0>
a08116a8:	00000000 	nop
a08116ac:	0c2039b7 	jal	a080e6dc <sys_statfs>
a08116b0:	00000000 	nop
a08116b4:	3c02a081 	lui	v0,0xa081
a08116b8:	244467f4 	addiu	a0,v0,26612
a08116bc:	0c203ff7 	jal	a080ffdc <printf>
a08116c0:	00000000 	nop
a08116c4:	08204a6f 	j	a08129bc <test_shell+0x1ab0>
a08116c8:	00000000 	nop
a08116cc:	8fc20020 	lw	v0,32(s8)
a08116d0:	8c430000 	lw	v1,0(v0)
a08116d4:	8fc20020 	lw	v0,32(s8)
a08116d8:	8c42000c 	lw	v0,12(v0)
a08116dc:	00621021 	addu	v0,v1,v0
a08116e0:	80430000 	lb	v1,0(v0)
a08116e4:	24020063 	li	v0,99
a08116e8:	1462002d 	bne	v1,v0,a08117a0 <test_shell+0x894>
a08116ec:	00000000 	nop
a08116f0:	8fc20020 	lw	v0,32(s8)
a08116f4:	8c430000 	lw	v1,0(v0)
a08116f8:	8fc20020 	lw	v0,32(s8)
a08116fc:	8c42000c 	lw	v0,12(v0)
a0811700:	24420001 	addiu	v0,v0,1
a0811704:	00621021 	addu	v0,v1,v0
a0811708:	80430000 	lb	v1,0(v0)
a081170c:	24020064 	li	v0,100
a0811710:	14620023 	bne	v1,v0,a08117a0 <test_shell+0x894>
a0811714:	00000000 	nop
a0811718:	8fc20020 	lw	v0,32(s8)
a081171c:	8c430000 	lw	v1,0(v0)
a0811720:	8fc20020 	lw	v0,32(s8)
a0811724:	8c42000c 	lw	v0,12(v0)
a0811728:	24420002 	addiu	v0,v0,2
a081172c:	00621021 	addu	v0,v1,v0
a0811730:	80430000 	lb	v1,0(v0)
a0811734:	24020020 	li	v0,32
a0811738:	14620019 	bne	v1,v0,a08117a0 <test_shell+0x894>
a081173c:	00000000 	nop
a0811740:	8fc20020 	lw	v0,32(s8)
a0811744:	8c430000 	lw	v1,0(v0)
a0811748:	8fc20020 	lw	v0,32(s8)
a081174c:	8c42000c 	lw	v0,12(v0)
a0811750:	24420003 	addiu	v0,v0,3
a0811754:	00621021 	addu	v0,v1,v0
a0811758:	00402021 	move	a0,v0
a081175c:	0c20434c 	jal	a0810d30 <handle_input>
a0811760:	00000000 	nop
a0811764:	8fc20020 	lw	v0,32(s8)
a0811768:	8c430000 	lw	v1,0(v0)
a081176c:	8fc20020 	lw	v0,32(s8)
a0811770:	8c42000c 	lw	v0,12(v0)
a0811774:	24420003 	addiu	v0,v0,3
a0811778:	00621021 	addu	v0,v1,v0
a081177c:	00402021 	move	a0,v0
a0811780:	0c2039ec 	jal	a080e7b0 <sys_cd>
a0811784:	00000000 	nop
a0811788:	3c02a081 	lui	v0,0xa081
a081178c:	244467f4 	addiu	a0,v0,26612
a0811790:	0c203ff7 	jal	a080ffdc <printf>
a0811794:	00000000 	nop
a0811798:	08204a6f 	j	a08129bc <test_shell+0x1ab0>
a081179c:	00000000 	nop
a08117a0:	8fc20020 	lw	v0,32(s8)
a08117a4:	8c430000 	lw	v1,0(v0)
a08117a8:	8fc20020 	lw	v0,32(s8)
a08117ac:	8c42000c 	lw	v0,12(v0)
a08117b0:	00621021 	addu	v0,v1,v0
a08117b4:	80430000 	lb	v1,0(v0)
a08117b8:	2402006d 	li	v0,109
a08117bc:	1462004b 	bne	v1,v0,a08118ec <test_shell+0x9e0>
a08117c0:	00000000 	nop
a08117c4:	8fc20020 	lw	v0,32(s8)
a08117c8:	8c430000 	lw	v1,0(v0)
a08117cc:	8fc20020 	lw	v0,32(s8)
a08117d0:	8c42000c 	lw	v0,12(v0)
a08117d4:	24420001 	addiu	v0,v0,1
a08117d8:	00621021 	addu	v0,v1,v0
a08117dc:	80430000 	lb	v1,0(v0)
a08117e0:	2402006b 	li	v0,107
a08117e4:	14620041 	bne	v1,v0,a08118ec <test_shell+0x9e0>
a08117e8:	00000000 	nop
a08117ec:	8fc20020 	lw	v0,32(s8)
a08117f0:	8c430000 	lw	v1,0(v0)
a08117f4:	8fc20020 	lw	v0,32(s8)
a08117f8:	8c42000c 	lw	v0,12(v0)
a08117fc:	24420002 	addiu	v0,v0,2
a0811800:	00621021 	addu	v0,v1,v0
a0811804:	80430000 	lb	v1,0(v0)
a0811808:	24020064 	li	v0,100
a081180c:	14620037 	bne	v1,v0,a08118ec <test_shell+0x9e0>
a0811810:	00000000 	nop
a0811814:	8fc20020 	lw	v0,32(s8)
a0811818:	8c430000 	lw	v1,0(v0)
a081181c:	8fc20020 	lw	v0,32(s8)
a0811820:	8c42000c 	lw	v0,12(v0)
a0811824:	24420003 	addiu	v0,v0,3
a0811828:	00621021 	addu	v0,v1,v0
a081182c:	80430000 	lb	v1,0(v0)
a0811830:	24020069 	li	v0,105
a0811834:	1462002d 	bne	v1,v0,a08118ec <test_shell+0x9e0>
a0811838:	00000000 	nop
a081183c:	8fc20020 	lw	v0,32(s8)
a0811840:	8c430000 	lw	v1,0(v0)
a0811844:	8fc20020 	lw	v0,32(s8)
a0811848:	8c42000c 	lw	v0,12(v0)
a081184c:	24420004 	addiu	v0,v0,4
a0811850:	00621021 	addu	v0,v1,v0
a0811854:	80430000 	lb	v1,0(v0)
a0811858:	24020072 	li	v0,114
a081185c:	14620023 	bne	v1,v0,a08118ec <test_shell+0x9e0>
a0811860:	00000000 	nop
a0811864:	8fc20020 	lw	v0,32(s8)
a0811868:	8c430000 	lw	v1,0(v0)
a081186c:	8fc20020 	lw	v0,32(s8)
a0811870:	8c42000c 	lw	v0,12(v0)
a0811874:	24420005 	addiu	v0,v0,5
a0811878:	00621021 	addu	v0,v1,v0
a081187c:	80430000 	lb	v1,0(v0)
a0811880:	24020020 	li	v0,32
a0811884:	14620019 	bne	v1,v0,a08118ec <test_shell+0x9e0>
a0811888:	00000000 	nop
a081188c:	8fc20020 	lw	v0,32(s8)
a0811890:	8c430000 	lw	v1,0(v0)
a0811894:	8fc20020 	lw	v0,32(s8)
a0811898:	8c42000c 	lw	v0,12(v0)
a081189c:	24420006 	addiu	v0,v0,6
a08118a0:	00621021 	addu	v0,v1,v0
a08118a4:	00402021 	move	a0,v0
a08118a8:	0c20434c 	jal	a0810d30 <handle_input>
a08118ac:	00000000 	nop
a08118b0:	8fc20020 	lw	v0,32(s8)
a08118b4:	8c430000 	lw	v1,0(v0)
a08118b8:	8fc20020 	lw	v0,32(s8)
a08118bc:	8c42000c 	lw	v0,12(v0)
a08118c0:	24420006 	addiu	v0,v0,6
a08118c4:	00621021 	addu	v0,v1,v0
a08118c8:	00402021 	move	a0,v0
a08118cc:	0c2039c7 	jal	a080e71c <sys_mkdir>
a08118d0:	00000000 	nop
a08118d4:	3c02a081 	lui	v0,0xa081
a08118d8:	244467f4 	addiu	a0,v0,26612
a08118dc:	0c203ff7 	jal	a080ffdc <printf>
a08118e0:	00000000 	nop
a08118e4:	08204a6f 	j	a08129bc <test_shell+0x1ab0>
a08118e8:	00000000 	nop
a08118ec:	8fc20020 	lw	v0,32(s8)
a08118f0:	8c430000 	lw	v1,0(v0)
a08118f4:	8fc20020 	lw	v0,32(s8)
a08118f8:	8c42000c 	lw	v0,12(v0)
a08118fc:	00621021 	addu	v0,v1,v0
a0811900:	80430000 	lb	v1,0(v0)
a0811904:	24020072 	li	v0,114
a0811908:	1462004b 	bne	v1,v0,a0811a38 <test_shell+0xb2c>
a081190c:	00000000 	nop
a0811910:	8fc20020 	lw	v0,32(s8)
a0811914:	8c430000 	lw	v1,0(v0)
a0811918:	8fc20020 	lw	v0,32(s8)
a081191c:	8c42000c 	lw	v0,12(v0)
a0811920:	24420001 	addiu	v0,v0,1
a0811924:	00621021 	addu	v0,v1,v0
a0811928:	80430000 	lb	v1,0(v0)
a081192c:	2402006d 	li	v0,109
a0811930:	14620041 	bne	v1,v0,a0811a38 <test_shell+0xb2c>
a0811934:	00000000 	nop
a0811938:	8fc20020 	lw	v0,32(s8)
a081193c:	8c430000 	lw	v1,0(v0)
a0811940:	8fc20020 	lw	v0,32(s8)
a0811944:	8c42000c 	lw	v0,12(v0)
a0811948:	24420002 	addiu	v0,v0,2
a081194c:	00621021 	addu	v0,v1,v0
a0811950:	80430000 	lb	v1,0(v0)
a0811954:	24020064 	li	v0,100
a0811958:	14620037 	bne	v1,v0,a0811a38 <test_shell+0xb2c>
a081195c:	00000000 	nop
a0811960:	8fc20020 	lw	v0,32(s8)
a0811964:	8c430000 	lw	v1,0(v0)
a0811968:	8fc20020 	lw	v0,32(s8)
a081196c:	8c42000c 	lw	v0,12(v0)
a0811970:	24420003 	addiu	v0,v0,3
a0811974:	00621021 	addu	v0,v1,v0
a0811978:	80430000 	lb	v1,0(v0)
a081197c:	24020069 	li	v0,105
a0811980:	1462002d 	bne	v1,v0,a0811a38 <test_shell+0xb2c>
a0811984:	00000000 	nop
a0811988:	8fc20020 	lw	v0,32(s8)
a081198c:	8c430000 	lw	v1,0(v0)
a0811990:	8fc20020 	lw	v0,32(s8)
a0811994:	8c42000c 	lw	v0,12(v0)
a0811998:	24420004 	addiu	v0,v0,4
a081199c:	00621021 	addu	v0,v1,v0
a08119a0:	80430000 	lb	v1,0(v0)
a08119a4:	24020072 	li	v0,114
a08119a8:	14620023 	bne	v1,v0,a0811a38 <test_shell+0xb2c>
a08119ac:	00000000 	nop
a08119b0:	8fc20020 	lw	v0,32(s8)
a08119b4:	8c430000 	lw	v1,0(v0)
a08119b8:	8fc20020 	lw	v0,32(s8)
a08119bc:	8c42000c 	lw	v0,12(v0)
a08119c0:	24420005 	addiu	v0,v0,5
a08119c4:	00621021 	addu	v0,v1,v0
a08119c8:	80430000 	lb	v1,0(v0)
a08119cc:	24020020 	li	v0,32
a08119d0:	14620019 	bne	v1,v0,a0811a38 <test_shell+0xb2c>
a08119d4:	00000000 	nop
a08119d8:	8fc20020 	lw	v0,32(s8)
a08119dc:	8c430000 	lw	v1,0(v0)
a08119e0:	8fc20020 	lw	v0,32(s8)
a08119e4:	8c42000c 	lw	v0,12(v0)
a08119e8:	24420006 	addiu	v0,v0,6
a08119ec:	00621021 	addu	v0,v1,v0
a08119f0:	00402021 	move	a0,v0
a08119f4:	0c20434c 	jal	a0810d30 <handle_input>
a08119f8:	00000000 	nop
a08119fc:	8fc20020 	lw	v0,32(s8)
a0811a00:	8c430000 	lw	v1,0(v0)
a0811a04:	8fc20020 	lw	v0,32(s8)
a0811a08:	8c42000c 	lw	v0,12(v0)
a0811a0c:	24420006 	addiu	v0,v0,6
a0811a10:	00621021 	addu	v0,v1,v0
a0811a14:	00402021 	move	a0,v0
a0811a18:	0c2039da 	jal	a080e768 <sys_rmdir>
a0811a1c:	00000000 	nop
a0811a20:	3c02a081 	lui	v0,0xa081
a0811a24:	244467f4 	addiu	a0,v0,26612
a0811a28:	0c203ff7 	jal	a080ffdc <printf>
a0811a2c:	00000000 	nop
a0811a30:	08204a6f 	j	a08129bc <test_shell+0x1ab0>
a0811a34:	00000000 	nop
a0811a38:	8fc20020 	lw	v0,32(s8)
a0811a3c:	8c430000 	lw	v1,0(v0)
a0811a40:	8fc20020 	lw	v0,32(s8)
a0811a44:	8c42000c 	lw	v0,12(v0)
a0811a48:	00621021 	addu	v0,v1,v0
a0811a4c:	80430000 	lb	v1,0(v0)
a0811a50:	2402006c 	li	v0,108
a0811a54:	14620030 	bne	v1,v0,a0811b18 <test_shell+0xc0c>
a0811a58:	00000000 	nop
a0811a5c:	8fc20020 	lw	v0,32(s8)
a0811a60:	8c430000 	lw	v1,0(v0)
a0811a64:	8fc20020 	lw	v0,32(s8)
a0811a68:	8c42000c 	lw	v0,12(v0)
a0811a6c:	24420001 	addiu	v0,v0,1
a0811a70:	00621021 	addu	v0,v1,v0
a0811a74:	80430000 	lb	v1,0(v0)
a0811a78:	24020073 	li	v0,115
a0811a7c:	14620026 	bne	v1,v0,a0811b18 <test_shell+0xc0c>
a0811a80:	00000000 	nop
a0811a84:	0c2039fe 	jal	a080e7f8 <sys_ls>
a0811a88:	00000000 	nop
a0811a8c:	afc00014 	sw	zero,20(s8)
a0811a90:	082046b4 	j	a0811ad0 <test_shell+0xbc4>
a0811a94:	00000000 	nop
a0811a98:	8fc20014 	lw	v0,20(s8)
a0811a9c:	000219c0 	sll	v1,v0,0x7
a0811aa0:	3c02a085 	lui	v0,0xa085
a0811aa4:	244292f0 	addiu	v0,v0,-27920
a0811aa8:	00621021 	addu	v0,v1,v0
a0811aac:	24430004 	addiu	v1,v0,4
a0811ab0:	3c02a081 	lui	v0,0xa081
a0811ab4:	2444686c 	addiu	a0,v0,26732
a0811ab8:	00602821 	move	a1,v1
a0811abc:	0c203ff7 	jal	a080ffdc <printf>
a0811ac0:	00000000 	nop
a0811ac4:	8fc20014 	lw	v0,20(s8)
a0811ac8:	24420001 	addiu	v0,v0,1
a0811acc:	afc20014 	sw	v0,20(s8)
a0811ad0:	8fc20014 	lw	v0,20(s8)
a0811ad4:	3c03a085 	lui	v1,0xa085
a0811ad8:	000221c0 	sll	a0,v0,0x7
a0811adc:	246292f0 	addiu	v0,v1,-27920
a0811ae0:	00821021 	addu	v0,a0,v0
a0811ae4:	80420004 	lb	v0,4(v0)
a0811ae8:	1440ffeb 	bnez	v0,a0811a98 <test_shell+0xb8c>
a0811aec:	00000000 	nop
a0811af0:	3c02a081 	lui	v0,0xa081
a0811af4:	24446874 	addiu	a0,v0,26740
a0811af8:	0c203ff7 	jal	a080ffdc <printf>
a0811afc:	00000000 	nop
a0811b00:	3c02a081 	lui	v0,0xa081
a0811b04:	244467f4 	addiu	a0,v0,26612
a0811b08:	0c203ff7 	jal	a080ffdc <printf>
a0811b0c:	00000000 	nop
a0811b10:	08204a6f 	j	a08129bc <test_shell+0x1ab0>
a0811b14:	00000000 	nop
a0811b18:	8fc20020 	lw	v0,32(s8)
a0811b1c:	8c430000 	lw	v1,0(v0)
a0811b20:	8fc20020 	lw	v0,32(s8)
a0811b24:	8c42000c 	lw	v0,12(v0)
a0811b28:	00621021 	addu	v0,v1,v0
a0811b2c:	80430000 	lb	v1,0(v0)
a0811b30:	24020074 	li	v0,116
a0811b34:	1462004b 	bne	v1,v0,a0811c64 <test_shell+0xd58>
a0811b38:	00000000 	nop
a0811b3c:	8fc20020 	lw	v0,32(s8)
a0811b40:	8c430000 	lw	v1,0(v0)
a0811b44:	8fc20020 	lw	v0,32(s8)
a0811b48:	8c42000c 	lw	v0,12(v0)
a0811b4c:	24420001 	addiu	v0,v0,1
a0811b50:	00621021 	addu	v0,v1,v0
a0811b54:	80430000 	lb	v1,0(v0)
a0811b58:	2402006f 	li	v0,111
a0811b5c:	14620041 	bne	v1,v0,a0811c64 <test_shell+0xd58>
a0811b60:	00000000 	nop
a0811b64:	8fc20020 	lw	v0,32(s8)
a0811b68:	8c430000 	lw	v1,0(v0)
a0811b6c:	8fc20020 	lw	v0,32(s8)
a0811b70:	8c42000c 	lw	v0,12(v0)
a0811b74:	24420002 	addiu	v0,v0,2
a0811b78:	00621021 	addu	v0,v1,v0
a0811b7c:	80430000 	lb	v1,0(v0)
a0811b80:	24020075 	li	v0,117
a0811b84:	14620037 	bne	v1,v0,a0811c64 <test_shell+0xd58>
a0811b88:	00000000 	nop
a0811b8c:	8fc20020 	lw	v0,32(s8)
a0811b90:	8c430000 	lw	v1,0(v0)
a0811b94:	8fc20020 	lw	v0,32(s8)
a0811b98:	8c42000c 	lw	v0,12(v0)
a0811b9c:	24420003 	addiu	v0,v0,3
a0811ba0:	00621021 	addu	v0,v1,v0
a0811ba4:	80430000 	lb	v1,0(v0)
a0811ba8:	24020063 	li	v0,99
a0811bac:	1462002d 	bne	v1,v0,a0811c64 <test_shell+0xd58>
a0811bb0:	00000000 	nop
a0811bb4:	8fc20020 	lw	v0,32(s8)
a0811bb8:	8c430000 	lw	v1,0(v0)
a0811bbc:	8fc20020 	lw	v0,32(s8)
a0811bc0:	8c42000c 	lw	v0,12(v0)
a0811bc4:	24420004 	addiu	v0,v0,4
a0811bc8:	00621021 	addu	v0,v1,v0
a0811bcc:	80430000 	lb	v1,0(v0)
a0811bd0:	24020068 	li	v0,104
a0811bd4:	14620023 	bne	v1,v0,a0811c64 <test_shell+0xd58>
a0811bd8:	00000000 	nop
a0811bdc:	8fc20020 	lw	v0,32(s8)
a0811be0:	8c430000 	lw	v1,0(v0)
a0811be4:	8fc20020 	lw	v0,32(s8)
a0811be8:	8c42000c 	lw	v0,12(v0)
a0811bec:	24420005 	addiu	v0,v0,5
a0811bf0:	00621021 	addu	v0,v1,v0
a0811bf4:	80430000 	lb	v1,0(v0)
a0811bf8:	24020020 	li	v0,32
a0811bfc:	14620019 	bne	v1,v0,a0811c64 <test_shell+0xd58>
a0811c00:	00000000 	nop
a0811c04:	8fc20020 	lw	v0,32(s8)
a0811c08:	8c430000 	lw	v1,0(v0)
a0811c0c:	8fc20020 	lw	v0,32(s8)
a0811c10:	8c42000c 	lw	v0,12(v0)
a0811c14:	24420006 	addiu	v0,v0,6
a0811c18:	00621021 	addu	v0,v1,v0
a0811c1c:	00402021 	move	a0,v0
a0811c20:	0c20434c 	jal	a0810d30 <handle_input>
a0811c24:	00000000 	nop
a0811c28:	8fc20020 	lw	v0,32(s8)
a0811c2c:	8c430000 	lw	v1,0(v0)
a0811c30:	8fc20020 	lw	v0,32(s8)
a0811c34:	8c42000c 	lw	v0,12(v0)
a0811c38:	24420006 	addiu	v0,v0,6
a0811c3c:	00621021 	addu	v0,v1,v0
a0811c40:	00402021 	move	a0,v0
a0811c44:	0c203a0e 	jal	a080e838 <sys_touch>
a0811c48:	00000000 	nop
a0811c4c:	3c02a081 	lui	v0,0xa081
a0811c50:	244467f4 	addiu	a0,v0,26612
a0811c54:	0c203ff7 	jal	a080ffdc <printf>
a0811c58:	00000000 	nop
a0811c5c:	08204a6f 	j	a08129bc <test_shell+0x1ab0>
a0811c60:	00000000 	nop
a0811c64:	8fc20020 	lw	v0,32(s8)
a0811c68:	8c430000 	lw	v1,0(v0)
a0811c6c:	8fc20020 	lw	v0,32(s8)
a0811c70:	8c42000c 	lw	v0,12(v0)
a0811c74:	00621021 	addu	v0,v1,v0
a0811c78:	80430000 	lb	v1,0(v0)
a0811c7c:	24020063 	li	v0,99
a0811c80:	14620053 	bne	v1,v0,a0811dd0 <test_shell+0xec4>
a0811c84:	00000000 	nop
a0811c88:	8fc20020 	lw	v0,32(s8)
a0811c8c:	8c430000 	lw	v1,0(v0)
a0811c90:	8fc20020 	lw	v0,32(s8)
a0811c94:	8c42000c 	lw	v0,12(v0)
a0811c98:	24420001 	addiu	v0,v0,1
a0811c9c:	00621021 	addu	v0,v1,v0
a0811ca0:	80430000 	lb	v1,0(v0)
a0811ca4:	24020061 	li	v0,97
a0811ca8:	14620049 	bne	v1,v0,a0811dd0 <test_shell+0xec4>
a0811cac:	00000000 	nop
a0811cb0:	8fc20020 	lw	v0,32(s8)
a0811cb4:	8c430000 	lw	v1,0(v0)
a0811cb8:	8fc20020 	lw	v0,32(s8)
a0811cbc:	8c42000c 	lw	v0,12(v0)
a0811cc0:	24420002 	addiu	v0,v0,2
a0811cc4:	00621021 	addu	v0,v1,v0
a0811cc8:	80430000 	lb	v1,0(v0)
a0811ccc:	24020074 	li	v0,116
a0811cd0:	1462003f 	bne	v1,v0,a0811dd0 <test_shell+0xec4>
a0811cd4:	00000000 	nop
a0811cd8:	8fc20020 	lw	v0,32(s8)
a0811cdc:	8c430000 	lw	v1,0(v0)
a0811ce0:	8fc20020 	lw	v0,32(s8)
a0811ce4:	8c42000c 	lw	v0,12(v0)
a0811ce8:	24420003 	addiu	v0,v0,3
a0811cec:	00621021 	addu	v0,v1,v0
a0811cf0:	80430000 	lb	v1,0(v0)
a0811cf4:	24020020 	li	v0,32
a0811cf8:	14620035 	bne	v1,v0,a0811dd0 <test_shell+0xec4>
a0811cfc:	00000000 	nop
a0811d00:	8fc20020 	lw	v0,32(s8)
a0811d04:	8c430000 	lw	v1,0(v0)
a0811d08:	8fc20020 	lw	v0,32(s8)
a0811d0c:	8c42000c 	lw	v0,12(v0)
a0811d10:	24420004 	addiu	v0,v0,4
a0811d14:	00621021 	addu	v0,v1,v0
a0811d18:	00402021 	move	a0,v0
a0811d1c:	0c20434c 	jal	a0810d30 <handle_input>
a0811d20:	00000000 	nop
a0811d24:	8fc20020 	lw	v0,32(s8)
a0811d28:	8c430000 	lw	v1,0(v0)
a0811d2c:	8fc20020 	lw	v0,32(s8)
a0811d30:	8c42000c 	lw	v0,12(v0)
a0811d34:	24420004 	addiu	v0,v0,4
a0811d38:	00621021 	addu	v0,v1,v0
a0811d3c:	00402021 	move	a0,v0
a0811d40:	0c203a21 	jal	a080e884 <sys_cat>
a0811d44:	00000000 	nop
a0811d48:	afc00010 	sw	zero,16(s8)
a0811d4c:	3c02a081 	lui	v0,0xa081
a0811d50:	24446878 	addiu	a0,v0,26744
a0811d54:	0c203ff7 	jal	a080ffdc <printf>
a0811d58:	00000000 	nop
a0811d5c:	08204767 	j	a0811d9c <test_shell+0xe90>
a0811d60:	00000000 	nop
a0811d64:	8fc30010 	lw	v1,16(s8)
a0811d68:	3c02a084 	lui	v0,0xa084
a0811d6c:	244242f0 	addiu	v0,v0,17136
a0811d70:	00621021 	addu	v0,v1,v0
a0811d74:	90420000 	lbu	v0,0(v0)
a0811d78:	00401821 	move	v1,v0
a0811d7c:	3c02a081 	lui	v0,0xa081
a0811d80:	24446808 	addiu	a0,v0,26632
a0811d84:	00602821 	move	a1,v1
a0811d88:	0c203ff7 	jal	a080ffdc <printf>
a0811d8c:	00000000 	nop
a0811d90:	8fc20010 	lw	v0,16(s8)
a0811d94:	24420001 	addiu	v0,v0,1
a0811d98:	afc20010 	sw	v0,16(s8)
a0811d9c:	8fc30010 	lw	v1,16(s8)
a0811da0:	3c02a084 	lui	v0,0xa084
a0811da4:	244242f0 	addiu	v0,v0,17136
a0811da8:	00621021 	addu	v0,v1,v0
a0811dac:	90420000 	lbu	v0,0(v0)
a0811db0:	1440ffec 	bnez	v0,a0811d64 <test_shell+0xe58>
a0811db4:	00000000 	nop
a0811db8:	3c02a081 	lui	v0,0xa081
a0811dbc:	244467f4 	addiu	a0,v0,26612
a0811dc0:	0c203ff7 	jal	a080ffdc <printf>
a0811dc4:	00000000 	nop
a0811dc8:	08204a6f 	j	a08129bc <test_shell+0x1ab0>
a0811dcc:	00000000 	nop
a0811dd0:	8fc20020 	lw	v0,32(s8)
a0811dd4:	8c430000 	lw	v1,0(v0)
a0811dd8:	8fc20020 	lw	v0,32(s8)
a0811ddc:	8c42000c 	lw	v0,12(v0)
a0811de0:	00621021 	addu	v0,v1,v0
a0811de4:	80430000 	lb	v1,0(v0)
a0811de8:	24020066 	li	v0,102
a0811dec:	14620055 	bne	v1,v0,a0811f44 <test_shell+0x1038>
a0811df0:	00000000 	nop
a0811df4:	8fc20020 	lw	v0,32(s8)
a0811df8:	8c430000 	lw	v1,0(v0)
a0811dfc:	8fc20020 	lw	v0,32(s8)
a0811e00:	8c42000c 	lw	v0,12(v0)
a0811e04:	24420001 	addiu	v0,v0,1
a0811e08:	00621021 	addu	v0,v1,v0
a0811e0c:	80430000 	lb	v1,0(v0)
a0811e10:	24020069 	li	v0,105
a0811e14:	1462004b 	bne	v1,v0,a0811f44 <test_shell+0x1038>
a0811e18:	00000000 	nop
a0811e1c:	8fc20020 	lw	v0,32(s8)
a0811e20:	8c430000 	lw	v1,0(v0)
a0811e24:	8fc20020 	lw	v0,32(s8)
a0811e28:	8c42000c 	lw	v0,12(v0)
a0811e2c:	24420002 	addiu	v0,v0,2
a0811e30:	00621021 	addu	v0,v1,v0
a0811e34:	80430000 	lb	v1,0(v0)
a0811e38:	2402006e 	li	v0,110
a0811e3c:	14620041 	bne	v1,v0,a0811f44 <test_shell+0x1038>
a0811e40:	00000000 	nop
a0811e44:	8fc20020 	lw	v0,32(s8)
a0811e48:	8c430000 	lw	v1,0(v0)
a0811e4c:	8fc20020 	lw	v0,32(s8)
a0811e50:	8c42000c 	lw	v0,12(v0)
a0811e54:	24420003 	addiu	v0,v0,3
a0811e58:	00621021 	addu	v0,v1,v0
a0811e5c:	80430000 	lb	v1,0(v0)
a0811e60:	24020064 	li	v0,100
a0811e64:	14620037 	bne	v1,v0,a0811f44 <test_shell+0x1038>
a0811e68:	00000000 	nop
a0811e6c:	8fc20020 	lw	v0,32(s8)
a0811e70:	8c430000 	lw	v1,0(v0)
a0811e74:	8fc20020 	lw	v0,32(s8)
a0811e78:	8c42000c 	lw	v0,12(v0)
a0811e7c:	24420004 	addiu	v0,v0,4
a0811e80:	00621021 	addu	v0,v1,v0
a0811e84:	80430000 	lb	v1,0(v0)
a0811e88:	24020020 	li	v0,32
a0811e8c:	1462002d 	bne	v1,v0,a0811f44 <test_shell+0x1038>
a0811e90:	00000000 	nop
a0811e94:	8fc20020 	lw	v0,32(s8)
a0811e98:	8c430000 	lw	v1,0(v0)
a0811e9c:	8fc20020 	lw	v0,32(s8)
a0811ea0:	8c42000c 	lw	v0,12(v0)
a0811ea4:	24420005 	addiu	v0,v0,5
a0811ea8:	00621021 	addu	v0,v1,v0
a0811eac:	00402021 	move	a0,v0
a0811eb0:	0c20434c 	jal	a0810d30 <handle_input>
a0811eb4:	00000000 	nop
a0811eb8:	8fc20020 	lw	v0,32(s8)
a0811ebc:	8c430000 	lw	v1,0(v0)
a0811ec0:	8fc20020 	lw	v0,32(s8)
a0811ec4:	8c42000c 	lw	v0,12(v0)
a0811ec8:	24420005 	addiu	v0,v0,5
a0811ecc:	00621021 	addu	v0,v1,v0
a0811ed0:	00402021 	move	a0,v0
a0811ed4:	0c20436c 	jal	a0810db0 <separate_params>
a0811ed8:	00000000 	nop
a0811edc:	3c02a087 	lui	v0,0xa087
a0811ee0:	2444485c 	addiu	a0,v0,18524
a0811ee4:	3c02a087 	lui	v0,0xa087
a0811ee8:	24454870 	addiu	a1,v0,18544
a0811eec:	0c203a33 	jal	a080e8cc <sys_find>
a0811ef0:	00000000 	nop
a0811ef4:	00401821 	move	v1,v0
a0811ef8:	24020001 	li	v0,1
a0811efc:	14620007 	bne	v1,v0,a0811f1c <test_shell+0x1010>
a0811f00:	00000000 	nop
a0811f04:	3c02a081 	lui	v0,0xa081
a0811f08:	24446888 	addiu	a0,v0,26760
a0811f0c:	0c203ff7 	jal	a080ffdc <printf>
a0811f10:	00000000 	nop
a0811f14:	082047cb 	j	a0811f2c <test_shell+0x1020>
a0811f18:	00000000 	nop
a0811f1c:	3c02a081 	lui	v0,0xa081
a0811f20:	244468a0 	addiu	a0,v0,26784
a0811f24:	0c203ff7 	jal	a080ffdc <printf>
a0811f28:	00000000 	nop
a0811f2c:	3c02a081 	lui	v0,0xa081
a0811f30:	244467f4 	addiu	a0,v0,26612
a0811f34:	0c203ff7 	jal	a080ffdc <printf>
a0811f38:	00000000 	nop
a0811f3c:	08204a6f 	j	a08129bc <test_shell+0x1ab0>
a0811f40:	00000000 	nop
a0811f44:	8fc20020 	lw	v0,32(s8)
a0811f48:	8c430000 	lw	v1,0(v0)
a0811f4c:	8fc20020 	lw	v0,32(s8)
a0811f50:	8c42000c 	lw	v0,12(v0)
a0811f54:	00621021 	addu	v0,v1,v0
a0811f58:	80430000 	lb	v1,0(v0)
a0811f5c:	24020072 	li	v0,114
a0811f60:	1462005b 	bne	v1,v0,a08120d0 <test_shell+0x11c4>
a0811f64:	00000000 	nop
a0811f68:	8fc20020 	lw	v0,32(s8)
a0811f6c:	8c430000 	lw	v1,0(v0)
a0811f70:	8fc20020 	lw	v0,32(s8)
a0811f74:	8c42000c 	lw	v0,12(v0)
a0811f78:	24420001 	addiu	v0,v0,1
a0811f7c:	00621021 	addu	v0,v1,v0
a0811f80:	80430000 	lb	v1,0(v0)
a0811f84:	24020065 	li	v0,101
a0811f88:	14620051 	bne	v1,v0,a08120d0 <test_shell+0x11c4>
a0811f8c:	00000000 	nop
a0811f90:	8fc20020 	lw	v0,32(s8)
a0811f94:	8c430000 	lw	v1,0(v0)
a0811f98:	8fc20020 	lw	v0,32(s8)
a0811f9c:	8c42000c 	lw	v0,12(v0)
a0811fa0:	24420002 	addiu	v0,v0,2
a0811fa4:	00621021 	addu	v0,v1,v0
a0811fa8:	80430000 	lb	v1,0(v0)
a0811fac:	2402006e 	li	v0,110
a0811fb0:	14620047 	bne	v1,v0,a08120d0 <test_shell+0x11c4>
a0811fb4:	00000000 	nop
a0811fb8:	8fc20020 	lw	v0,32(s8)
a0811fbc:	8c430000 	lw	v1,0(v0)
a0811fc0:	8fc20020 	lw	v0,32(s8)
a0811fc4:	8c42000c 	lw	v0,12(v0)
a0811fc8:	24420003 	addiu	v0,v0,3
a0811fcc:	00621021 	addu	v0,v1,v0
a0811fd0:	80430000 	lb	v1,0(v0)
a0811fd4:	24020061 	li	v0,97
a0811fd8:	1462003d 	bne	v1,v0,a08120d0 <test_shell+0x11c4>
a0811fdc:	00000000 	nop
a0811fe0:	8fc20020 	lw	v0,32(s8)
a0811fe4:	8c430000 	lw	v1,0(v0)
a0811fe8:	8fc20020 	lw	v0,32(s8)
a0811fec:	8c42000c 	lw	v0,12(v0)
a0811ff0:	24420004 	addiu	v0,v0,4
a0811ff4:	00621021 	addu	v0,v1,v0
a0811ff8:	80430000 	lb	v1,0(v0)
a0811ffc:	2402006d 	li	v0,109
a0812000:	14620033 	bne	v1,v0,a08120d0 <test_shell+0x11c4>
a0812004:	00000000 	nop
a0812008:	8fc20020 	lw	v0,32(s8)
a081200c:	8c430000 	lw	v1,0(v0)
a0812010:	8fc20020 	lw	v0,32(s8)
a0812014:	8c42000c 	lw	v0,12(v0)
a0812018:	24420005 	addiu	v0,v0,5
a081201c:	00621021 	addu	v0,v1,v0
a0812020:	80430000 	lb	v1,0(v0)
a0812024:	24020065 	li	v0,101
a0812028:	14620029 	bne	v1,v0,a08120d0 <test_shell+0x11c4>
a081202c:	00000000 	nop
a0812030:	8fc20020 	lw	v0,32(s8)
a0812034:	8c430000 	lw	v1,0(v0)
a0812038:	8fc20020 	lw	v0,32(s8)
a081203c:	8c42000c 	lw	v0,12(v0)
a0812040:	24420006 	addiu	v0,v0,6
a0812044:	00621021 	addu	v0,v1,v0
a0812048:	80430000 	lb	v1,0(v0)
a081204c:	24020020 	li	v0,32
a0812050:	1462001f 	bne	v1,v0,a08120d0 <test_shell+0x11c4>
a0812054:	00000000 	nop
a0812058:	8fc20020 	lw	v0,32(s8)
a081205c:	8c430000 	lw	v1,0(v0)
a0812060:	8fc20020 	lw	v0,32(s8)
a0812064:	8c42000c 	lw	v0,12(v0)
a0812068:	24420007 	addiu	v0,v0,7
a081206c:	00621021 	addu	v0,v1,v0
a0812070:	00402021 	move	a0,v0
a0812074:	0c20434c 	jal	a0810d30 <handle_input>
a0812078:	00000000 	nop
a081207c:	8fc20020 	lw	v0,32(s8)
a0812080:	8c430000 	lw	v1,0(v0)
a0812084:	8fc20020 	lw	v0,32(s8)
a0812088:	8c42000c 	lw	v0,12(v0)
a081208c:	24420007 	addiu	v0,v0,7
a0812090:	00621021 	addu	v0,v1,v0
a0812094:	00402021 	move	a0,v0
a0812098:	0c20436c 	jal	a0810db0 <separate_params>
a081209c:	00000000 	nop
a08120a0:	3c02a087 	lui	v0,0xa087
a08120a4:	2444485c 	addiu	a0,v0,18524
a08120a8:	3c02a087 	lui	v0,0xa087
a08120ac:	24454870 	addiu	a1,v0,18544
a08120b0:	0c203a47 	jal	a080e91c <sys_rename>
a08120b4:	00000000 	nop
a08120b8:	3c02a081 	lui	v0,0xa081
a08120bc:	244467f4 	addiu	a0,v0,26612
a08120c0:	0c203ff7 	jal	a080ffdc <printf>
a08120c4:	00000000 	nop
a08120c8:	08204a6f 	j	a08129bc <test_shell+0x1ab0>
a08120cc:	00000000 	nop
a08120d0:	8fc20020 	lw	v0,32(s8)
a08120d4:	8c430000 	lw	v1,0(v0)
a08120d8:	8fc20020 	lw	v0,32(s8)
a08120dc:	8c42000c 	lw	v0,12(v0)
a08120e0:	00621021 	addu	v0,v1,v0
a08120e4:	80430000 	lb	v1,0(v0)
a08120e8:	2402006c 	li	v0,108
a08120ec:	14620051 	bne	v1,v0,a0812234 <test_shell+0x1328>
a08120f0:	00000000 	nop
a08120f4:	8fc20020 	lw	v0,32(s8)
a08120f8:	8c430000 	lw	v1,0(v0)
a08120fc:	8fc20020 	lw	v0,32(s8)
a0812100:	8c42000c 	lw	v0,12(v0)
a0812104:	24420001 	addiu	v0,v0,1
a0812108:	00621021 	addu	v0,v1,v0
a081210c:	80430000 	lb	v1,0(v0)
a0812110:	2402006e 	li	v0,110
a0812114:	14620047 	bne	v1,v0,a0812234 <test_shell+0x1328>
a0812118:	00000000 	nop
a081211c:	8fc20020 	lw	v0,32(s8)
a0812120:	8c430000 	lw	v1,0(v0)
a0812124:	8fc20020 	lw	v0,32(s8)
a0812128:	8c42000c 	lw	v0,12(v0)
a081212c:	24420002 	addiu	v0,v0,2
a0812130:	00621021 	addu	v0,v1,v0
a0812134:	80430000 	lb	v1,0(v0)
a0812138:	24020020 	li	v0,32
a081213c:	1462003d 	bne	v1,v0,a0812234 <test_shell+0x1328>
a0812140:	00000000 	nop
a0812144:	8fc20020 	lw	v0,32(s8)
a0812148:	8c430000 	lw	v1,0(v0)
a081214c:	8fc20020 	lw	v0,32(s8)
a0812150:	8c42000c 	lw	v0,12(v0)
a0812154:	24420003 	addiu	v0,v0,3
a0812158:	00621021 	addu	v0,v1,v0
a081215c:	80430000 	lb	v1,0(v0)
a0812160:	2402002d 	li	v0,45
a0812164:	14620033 	bne	v1,v0,a0812234 <test_shell+0x1328>
a0812168:	00000000 	nop
a081216c:	8fc20020 	lw	v0,32(s8)
a0812170:	8c430000 	lw	v1,0(v0)
a0812174:	8fc20020 	lw	v0,32(s8)
a0812178:	8c42000c 	lw	v0,12(v0)
a081217c:	24420004 	addiu	v0,v0,4
a0812180:	00621021 	addu	v0,v1,v0
a0812184:	80430000 	lb	v1,0(v0)
a0812188:	24020073 	li	v0,115
a081218c:	14620029 	bne	v1,v0,a0812234 <test_shell+0x1328>
a0812190:	00000000 	nop
a0812194:	8fc20020 	lw	v0,32(s8)
a0812198:	8c430000 	lw	v1,0(v0)
a081219c:	8fc20020 	lw	v0,32(s8)
a08121a0:	8c42000c 	lw	v0,12(v0)
a08121a4:	24420005 	addiu	v0,v0,5
a08121a8:	00621021 	addu	v0,v1,v0
a08121ac:	80430000 	lb	v1,0(v0)
a08121b0:	24020020 	li	v0,32
a08121b4:	1462001f 	bne	v1,v0,a0812234 <test_shell+0x1328>
a08121b8:	00000000 	nop
a08121bc:	8fc20020 	lw	v0,32(s8)
a08121c0:	8c430000 	lw	v1,0(v0)
a08121c4:	8fc20020 	lw	v0,32(s8)
a08121c8:	8c42000c 	lw	v0,12(v0)
a08121cc:	24420006 	addiu	v0,v0,6
a08121d0:	00621021 	addu	v0,v1,v0
a08121d4:	00402021 	move	a0,v0
a08121d8:	0c20434c 	jal	a0810d30 <handle_input>
a08121dc:	00000000 	nop
a08121e0:	8fc20020 	lw	v0,32(s8)
a08121e4:	8c430000 	lw	v1,0(v0)
a08121e8:	8fc20020 	lw	v0,32(s8)
a08121ec:	8c42000c 	lw	v0,12(v0)
a08121f0:	24420006 	addiu	v0,v0,6
a08121f4:	00621021 	addu	v0,v1,v0
a08121f8:	00402021 	move	a0,v0
a08121fc:	0c20436c 	jal	a0810db0 <separate_params>
a0812200:	00000000 	nop
a0812204:	3c02a087 	lui	v0,0xa087
a0812208:	2444485c 	addiu	a0,v0,18524
a081220c:	3c02a087 	lui	v0,0xa087
a0812210:	24454870 	addiu	a1,v0,18544
a0812214:	0c203a6f 	jal	a080e9bc <sys_symlink>
a0812218:	00000000 	nop
a081221c:	3c02a081 	lui	v0,0xa081
a0812220:	244467f4 	addiu	a0,v0,26612
a0812224:	0c203ff7 	jal	a080ffdc <printf>
a0812228:	00000000 	nop
a081222c:	08204a6f 	j	a08129bc <test_shell+0x1ab0>
a0812230:	00000000 	nop
a0812234:	8fc20020 	lw	v0,32(s8)
a0812238:	8c430000 	lw	v1,0(v0)
a081223c:	8fc20020 	lw	v0,32(s8)
a0812240:	8c42000c 	lw	v0,12(v0)
a0812244:	00621021 	addu	v0,v1,v0
a0812248:	80430000 	lb	v1,0(v0)
a081224c:	2402006c 	li	v0,108
a0812250:	14620033 	bne	v1,v0,a0812320 <test_shell+0x1414>
a0812254:	00000000 	nop
a0812258:	8fc20020 	lw	v0,32(s8)
a081225c:	8c430000 	lw	v1,0(v0)
a0812260:	8fc20020 	lw	v0,32(s8)
a0812264:	8c42000c 	lw	v0,12(v0)
a0812268:	24420001 	addiu	v0,v0,1
a081226c:	00621021 	addu	v0,v1,v0
a0812270:	80430000 	lb	v1,0(v0)
a0812274:	2402006e 	li	v0,110
a0812278:	14620029 	bne	v1,v0,a0812320 <test_shell+0x1414>
a081227c:	00000000 	nop
a0812280:	8fc20020 	lw	v0,32(s8)
a0812284:	8c430000 	lw	v1,0(v0)
a0812288:	8fc20020 	lw	v0,32(s8)
a081228c:	8c42000c 	lw	v0,12(v0)
a0812290:	24420002 	addiu	v0,v0,2
a0812294:	00621021 	addu	v0,v1,v0
a0812298:	80430000 	lb	v1,0(v0)
a081229c:	24020020 	li	v0,32
a08122a0:	1462001f 	bne	v1,v0,a0812320 <test_shell+0x1414>
a08122a4:	00000000 	nop
a08122a8:	8fc20020 	lw	v0,32(s8)
a08122ac:	8c430000 	lw	v1,0(v0)
a08122b0:	8fc20020 	lw	v0,32(s8)
a08122b4:	8c42000c 	lw	v0,12(v0)
a08122b8:	24420003 	addiu	v0,v0,3
a08122bc:	00621021 	addu	v0,v1,v0
a08122c0:	00402021 	move	a0,v0
a08122c4:	0c20434c 	jal	a0810d30 <handle_input>
a08122c8:	00000000 	nop
a08122cc:	8fc20020 	lw	v0,32(s8)
a08122d0:	8c430000 	lw	v1,0(v0)
a08122d4:	8fc20020 	lw	v0,32(s8)
a08122d8:	8c42000c 	lw	v0,12(v0)
a08122dc:	24420003 	addiu	v0,v0,3
a08122e0:	00621021 	addu	v0,v1,v0
a08122e4:	00402021 	move	a0,v0
a08122e8:	0c20436c 	jal	a0810db0 <separate_params>
a08122ec:	00000000 	nop
a08122f0:	3c02a087 	lui	v0,0xa087
a08122f4:	2444485c 	addiu	a0,v0,18524
a08122f8:	3c02a087 	lui	v0,0xa087
a08122fc:	24454870 	addiu	a1,v0,18544
a0812300:	0c203a5b 	jal	a080e96c <sys_link>
a0812304:	00000000 	nop
a0812308:	3c02a081 	lui	v0,0xa081
a081230c:	244467f4 	addiu	a0,v0,26612
a0812310:	0c203ff7 	jal	a080ffdc <printf>
a0812314:	00000000 	nop
a0812318:	08204a6f 	j	a08129bc <test_shell+0x1ab0>
a081231c:	00000000 	nop
a0812320:	8fc20020 	lw	v0,32(s8)
a0812324:	8c430000 	lw	v1,0(v0)
a0812328:	8fc20020 	lw	v0,32(s8)
a081232c:	8c42000c 	lw	v0,12(v0)
a0812330:	00621021 	addu	v0,v1,v0
a0812334:	80430000 	lb	v1,0(v0)
a0812338:	24020070 	li	v0,112
a081233c:	1462001b 	bne	v1,v0,a08123ac <test_shell+0x14a0>
a0812340:	00000000 	nop
a0812344:	8fc20020 	lw	v0,32(s8)
a0812348:	8c430000 	lw	v1,0(v0)
a081234c:	8fc20020 	lw	v0,32(s8)
a0812350:	8c42000c 	lw	v0,12(v0)
a0812354:	24420001 	addiu	v0,v0,1
a0812358:	00621021 	addu	v0,v1,v0
a081235c:	80430000 	lb	v1,0(v0)
a0812360:	24020077 	li	v0,119
a0812364:	14620011 	bne	v1,v0,a08123ac <test_shell+0x14a0>
a0812368:	00000000 	nop
a081236c:	8fc20020 	lw	v0,32(s8)
a0812370:	8c430000 	lw	v1,0(v0)
a0812374:	8fc20020 	lw	v0,32(s8)
a0812378:	8c42000c 	lw	v0,12(v0)
a081237c:	24420002 	addiu	v0,v0,2
a0812380:	00621021 	addu	v0,v1,v0
a0812384:	80430000 	lb	v1,0(v0)
a0812388:	24020064 	li	v0,100
a081238c:	14620007 	bne	v1,v0,a08123ac <test_shell+0x14a0>
a0812390:	00000000 	nop
a0812394:	3c02a081 	lui	v0,0xa081
a0812398:	244467f4 	addiu	a0,v0,26612
a081239c:	0c203ff7 	jal	a080ffdc <printf>
a08123a0:	00000000 	nop
a08123a4:	08204a6f 	j	a08129bc <test_shell+0x1ab0>
a08123a8:	00000000 	nop
a08123ac:	8fc20020 	lw	v0,32(s8)
a08123b0:	8c430000 	lw	v1,0(v0)
a08123b4:	8fc20020 	lw	v0,32(s8)
a08123b8:	8c42000c 	lw	v0,12(v0)
a08123bc:	00621021 	addu	v0,v1,v0
a08123c0:	80430000 	lb	v1,0(v0)
a08123c4:	24020064 	li	v0,100
a08123c8:	14620025 	bne	v1,v0,a0812460 <test_shell+0x1554>
a08123cc:	00000000 	nop
a08123d0:	8fc20020 	lw	v0,32(s8)
a08123d4:	8c430000 	lw	v1,0(v0)
a08123d8:	8fc20020 	lw	v0,32(s8)
a08123dc:	8c42000c 	lw	v0,12(v0)
a08123e0:	24420001 	addiu	v0,v0,1
a08123e4:	00621021 	addu	v0,v1,v0
a08123e8:	80430000 	lb	v1,0(v0)
a08123ec:	24020075 	li	v0,117
a08123f0:	1462001b 	bne	v1,v0,a0812460 <test_shell+0x1554>
a08123f4:	00000000 	nop
a08123f8:	8fc20020 	lw	v0,32(s8)
a08123fc:	8c430000 	lw	v1,0(v0)
a0812400:	8fc20020 	lw	v0,32(s8)
a0812404:	8c42000c 	lw	v0,12(v0)
a0812408:	24420002 	addiu	v0,v0,2
a081240c:	00621021 	addu	v0,v1,v0
a0812410:	80430000 	lb	v1,0(v0)
a0812414:	2402006d 	li	v0,109
a0812418:	14620011 	bne	v1,v0,a0812460 <test_shell+0x1554>
a081241c:	00000000 	nop
a0812420:	8fc20020 	lw	v0,32(s8)
a0812424:	8c430000 	lw	v1,0(v0)
a0812428:	8fc20020 	lw	v0,32(s8)
a081242c:	8c42000c 	lw	v0,12(v0)
a0812430:	24420003 	addiu	v0,v0,3
a0812434:	00621021 	addu	v0,v1,v0
a0812438:	80430000 	lb	v1,0(v0)
a081243c:	24020070 	li	v0,112
a0812440:	14620007 	bne	v1,v0,a0812460 <test_shell+0x1554>
a0812444:	00000000 	nop
a0812448:	3c02a081 	lui	v0,0xa081
a081244c:	244467f4 	addiu	a0,v0,26612
a0812450:	0c203ff7 	jal	a080ffdc <printf>
a0812454:	00000000 	nop
a0812458:	08204a6f 	j	a08129bc <test_shell+0x1ab0>
a081245c:	00000000 	nop
a0812460:	8fc20020 	lw	v0,32(s8)
a0812464:	8c430000 	lw	v1,0(v0)
a0812468:	8fc20020 	lw	v0,32(s8)
a081246c:	8c42000c 	lw	v0,12(v0)
a0812470:	00621021 	addu	v0,v1,v0
a0812474:	80430000 	lb	v1,0(v0)
a0812478:	24020064 	li	v0,100
a081247c:	14620011 	bne	v1,v0,a08124c4 <test_shell+0x15b8>
a0812480:	00000000 	nop
a0812484:	8fc20020 	lw	v0,32(s8)
a0812488:	8c430000 	lw	v1,0(v0)
a081248c:	8fc20020 	lw	v0,32(s8)
a0812490:	8c42000c 	lw	v0,12(v0)
a0812494:	24420001 	addiu	v0,v0,1
a0812498:	00621021 	addu	v0,v1,v0
a081249c:	80430000 	lb	v1,0(v0)
a08124a0:	24020075 	li	v0,117
a08124a4:	14620007 	bne	v1,v0,a08124c4 <test_shell+0x15b8>
a08124a8:	00000000 	nop
a08124ac:	3c02a081 	lui	v0,0xa081
a08124b0:	244467f4 	addiu	a0,v0,26612
a08124b4:	0c203ff7 	jal	a080ffdc <printf>
a08124b8:	00000000 	nop
a08124bc:	08204a6f 	j	a08129bc <test_shell+0x1ab0>
a08124c0:	00000000 	nop
a08124c4:	8fc20020 	lw	v0,32(s8)
a08124c8:	8c430000 	lw	v1,0(v0)
a08124cc:	8fc20020 	lw	v0,32(s8)
a08124d0:	8c42000c 	lw	v0,12(v0)
a08124d4:	00621021 	addu	v0,v1,v0
a08124d8:	80430000 	lb	v1,0(v0)
a08124dc:	24020064 	li	v0,100
a08124e0:	14620011 	bne	v1,v0,a0812528 <test_shell+0x161c>
a08124e4:	00000000 	nop
a08124e8:	8fc20020 	lw	v0,32(s8)
a08124ec:	8c430000 	lw	v1,0(v0)
a08124f0:	8fc20020 	lw	v0,32(s8)
a08124f4:	8c42000c 	lw	v0,12(v0)
a08124f8:	24420001 	addiu	v0,v0,1
a08124fc:	00621021 	addu	v0,v1,v0
a0812500:	80430000 	lb	v1,0(v0)
a0812504:	24020066 	li	v0,102
a0812508:	14620007 	bne	v1,v0,a0812528 <test_shell+0x161c>
a081250c:	00000000 	nop
a0812510:	3c02a081 	lui	v0,0xa081
a0812514:	244467f4 	addiu	a0,v0,26612
a0812518:	0c203ff7 	jal	a080ffdc <printf>
a081251c:	00000000 	nop
a0812520:	08204a6f 	j	a08129bc <test_shell+0x1ab0>
a0812524:	00000000 	nop
a0812528:	8fc20020 	lw	v0,32(s8)
a081252c:	8c430000 	lw	v1,0(v0)
a0812530:	8fc20020 	lw	v0,32(s8)
a0812534:	8c42000c 	lw	v0,12(v0)
a0812538:	00621021 	addu	v0,v1,v0
a081253c:	80430000 	lb	v1,0(v0)
a0812540:	24020064 	li	v0,100
a0812544:	1462002f 	bne	v1,v0,a0812604 <test_shell+0x16f8>
a0812548:	00000000 	nop
a081254c:	8fc20020 	lw	v0,32(s8)
a0812550:	8c430000 	lw	v1,0(v0)
a0812554:	8fc20020 	lw	v0,32(s8)
a0812558:	8c42000c 	lw	v0,12(v0)
a081255c:	24420001 	addiu	v0,v0,1
a0812560:	00621021 	addu	v0,v1,v0
a0812564:	80430000 	lb	v1,0(v0)
a0812568:	24020069 	li	v0,105
a081256c:	14620025 	bne	v1,v0,a0812604 <test_shell+0x16f8>
a0812570:	00000000 	nop
a0812574:	8fc20020 	lw	v0,32(s8)
a0812578:	8c430000 	lw	v1,0(v0)
a081257c:	8fc20020 	lw	v0,32(s8)
a0812580:	8c42000c 	lw	v0,12(v0)
a0812584:	24420002 	addiu	v0,v0,2
a0812588:	00621021 	addu	v0,v1,v0
a081258c:	80430000 	lb	v1,0(v0)
a0812590:	24020066 	li	v0,102
a0812594:	1462001b 	bne	v1,v0,a0812604 <test_shell+0x16f8>
a0812598:	00000000 	nop
a081259c:	8fc20020 	lw	v0,32(s8)
a08125a0:	8c430000 	lw	v1,0(v0)
a08125a4:	8fc20020 	lw	v0,32(s8)
a08125a8:	8c42000c 	lw	v0,12(v0)
a08125ac:	24420003 	addiu	v0,v0,3
a08125b0:	00621021 	addu	v0,v1,v0
a08125b4:	80430000 	lb	v1,0(v0)
a08125b8:	24020066 	li	v0,102
a08125bc:	14620011 	bne	v1,v0,a0812604 <test_shell+0x16f8>
a08125c0:	00000000 	nop
a08125c4:	8fc20020 	lw	v0,32(s8)
a08125c8:	8c430000 	lw	v1,0(v0)
a08125cc:	8fc20020 	lw	v0,32(s8)
a08125d0:	8c42000c 	lw	v0,12(v0)
a08125d4:	24420004 	addiu	v0,v0,4
a08125d8:	00621021 	addu	v0,v1,v0
a08125dc:	80430000 	lb	v1,0(v0)
a08125e0:	24020020 	li	v0,32
a08125e4:	14620007 	bne	v1,v0,a0812604 <test_shell+0x16f8>
a08125e8:	00000000 	nop
a08125ec:	3c02a081 	lui	v0,0xa081
a08125f0:	244467f4 	addiu	a0,v0,26612
a08125f4:	0c203ff7 	jal	a080ffdc <printf>
a08125f8:	00000000 	nop
a08125fc:	08204a6f 	j	a08129bc <test_shell+0x1ab0>
a0812600:	00000000 	nop
a0812604:	8fc20020 	lw	v0,32(s8)
a0812608:	8c430000 	lw	v1,0(v0)
a081260c:	8fc20020 	lw	v0,32(s8)
a0812610:	8c42000c 	lw	v0,12(v0)
a0812614:	00621021 	addu	v0,v1,v0
a0812618:	80430000 	lb	v1,0(v0)
a081261c:	24020077 	li	v0,119
a0812620:	14620011 	bne	v1,v0,a0812668 <test_shell+0x175c>
a0812624:	00000000 	nop
a0812628:	8fc20020 	lw	v0,32(s8)
a081262c:	8c430000 	lw	v1,0(v0)
a0812630:	8fc20020 	lw	v0,32(s8)
a0812634:	8c42000c 	lw	v0,12(v0)
a0812638:	24420001 	addiu	v0,v0,1
a081263c:	00621021 	addu	v0,v1,v0
a0812640:	80430000 	lb	v1,0(v0)
a0812644:	24020063 	li	v0,99
a0812648:	14620007 	bne	v1,v0,a0812668 <test_shell+0x175c>
a081264c:	00000000 	nop
a0812650:	3c02a081 	lui	v0,0xa081
a0812654:	244467f4 	addiu	a0,v0,26612
a0812658:	0c203ff7 	jal	a080ffdc <printf>
a081265c:	00000000 	nop
a0812660:	08204a6f 	j	a08129bc <test_shell+0x1ab0>
a0812664:	00000000 	nop
a0812668:	8fc20020 	lw	v0,32(s8)
a081266c:	8c430000 	lw	v1,0(v0)
a0812670:	8fc20020 	lw	v0,32(s8)
a0812674:	8c42000c 	lw	v0,12(v0)
a0812678:	00621021 	addu	v0,v1,v0
a081267c:	80430000 	lb	v1,0(v0)
a0812680:	24020072 	li	v0,114
a0812684:	1462001b 	bne	v1,v0,a08126f4 <test_shell+0x17e8>
a0812688:	00000000 	nop
a081268c:	8fc20020 	lw	v0,32(s8)
a0812690:	8c430000 	lw	v1,0(v0)
a0812694:	8fc20020 	lw	v0,32(s8)
a0812698:	8c42000c 	lw	v0,12(v0)
a081269c:	24420001 	addiu	v0,v0,1
a08126a0:	00621021 	addu	v0,v1,v0
a08126a4:	80430000 	lb	v1,0(v0)
a08126a8:	2402006d 	li	v0,109
a08126ac:	14620011 	bne	v1,v0,a08126f4 <test_shell+0x17e8>
a08126b0:	00000000 	nop
a08126b4:	8fc20020 	lw	v0,32(s8)
a08126b8:	8c430000 	lw	v1,0(v0)
a08126bc:	8fc20020 	lw	v0,32(s8)
a08126c0:	8c42000c 	lw	v0,12(v0)
a08126c4:	24420002 	addiu	v0,v0,2
a08126c8:	00621021 	addu	v0,v1,v0
a08126cc:	80430000 	lb	v1,0(v0)
a08126d0:	24020020 	li	v0,32
a08126d4:	14620007 	bne	v1,v0,a08126f4 <test_shell+0x17e8>
a08126d8:	00000000 	nop
a08126dc:	3c02a081 	lui	v0,0xa081
a08126e0:	244467f4 	addiu	a0,v0,26612
a08126e4:	0c203ff7 	jal	a080ffdc <printf>
a08126e8:	00000000 	nop
a08126ec:	08204a6f 	j	a08129bc <test_shell+0x1ab0>
a08126f0:	00000000 	nop
a08126f4:	8fc20020 	lw	v0,32(s8)
a08126f8:	8c430000 	lw	v1,0(v0)
a08126fc:	8fc20020 	lw	v0,32(s8)
a0812700:	8c42000c 	lw	v0,12(v0)
a0812704:	00621021 	addu	v0,v1,v0
a0812708:	80430000 	lb	v1,0(v0)
a081270c:	2402006d 	li	v0,109
a0812710:	1462001b 	bne	v1,v0,a0812780 <test_shell+0x1874>
a0812714:	00000000 	nop
a0812718:	8fc20020 	lw	v0,32(s8)
a081271c:	8c430000 	lw	v1,0(v0)
a0812720:	8fc20020 	lw	v0,32(s8)
a0812724:	8c42000c 	lw	v0,12(v0)
a0812728:	24420001 	addiu	v0,v0,1
a081272c:	00621021 	addu	v0,v1,v0
a0812730:	80430000 	lb	v1,0(v0)
a0812734:	24020076 	li	v0,118
a0812738:	14620011 	bne	v1,v0,a0812780 <test_shell+0x1874>
a081273c:	00000000 	nop
a0812740:	8fc20020 	lw	v0,32(s8)
a0812744:	8c430000 	lw	v1,0(v0)
a0812748:	8fc20020 	lw	v0,32(s8)
a081274c:	8c42000c 	lw	v0,12(v0)
a0812750:	24420002 	addiu	v0,v0,2
a0812754:	00621021 	addu	v0,v1,v0
a0812758:	80430000 	lb	v1,0(v0)
a081275c:	24020020 	li	v0,32
a0812760:	14620007 	bne	v1,v0,a0812780 <test_shell+0x1874>
a0812764:	00000000 	nop
a0812768:	3c02a081 	lui	v0,0xa081
a081276c:	244467f4 	addiu	a0,v0,26612
a0812770:	0c203ff7 	jal	a080ffdc <printf>
a0812774:	00000000 	nop
a0812778:	08204a6f 	j	a08129bc <test_shell+0x1ab0>
a081277c:	00000000 	nop
a0812780:	8fc20020 	lw	v0,32(s8)
a0812784:	8c430000 	lw	v1,0(v0)
a0812788:	8fc20020 	lw	v0,32(s8)
a081278c:	8c42000c 	lw	v0,12(v0)
a0812790:	00621021 	addu	v0,v1,v0
a0812794:	80430000 	lb	v1,0(v0)
a0812798:	24020063 	li	v0,99
a081279c:	1462001b 	bne	v1,v0,a081280c <test_shell+0x1900>
a08127a0:	00000000 	nop
a08127a4:	8fc20020 	lw	v0,32(s8)
a08127a8:	8c430000 	lw	v1,0(v0)
a08127ac:	8fc20020 	lw	v0,32(s8)
a08127b0:	8c42000c 	lw	v0,12(v0)
a08127b4:	24420001 	addiu	v0,v0,1
a08127b8:	00621021 	addu	v0,v1,v0
a08127bc:	80430000 	lb	v1,0(v0)
a08127c0:	24020070 	li	v0,112
a08127c4:	14620011 	bne	v1,v0,a081280c <test_shell+0x1900>
a08127c8:	00000000 	nop
a08127cc:	8fc20020 	lw	v0,32(s8)
a08127d0:	8c430000 	lw	v1,0(v0)
a08127d4:	8fc20020 	lw	v0,32(s8)
a08127d8:	8c42000c 	lw	v0,12(v0)
a08127dc:	24420002 	addiu	v0,v0,2
a08127e0:	00621021 	addu	v0,v1,v0
a08127e4:	80430000 	lb	v1,0(v0)
a08127e8:	24020020 	li	v0,32
a08127ec:	14620007 	bne	v1,v0,a081280c <test_shell+0x1900>
a08127f0:	00000000 	nop
a08127f4:	3c02a081 	lui	v0,0xa081
a08127f8:	244467f4 	addiu	a0,v0,26612
a08127fc:	0c203ff7 	jal	a080ffdc <printf>
a0812800:	00000000 	nop
a0812804:	08204a6f 	j	a08129bc <test_shell+0x1ab0>
a0812808:	00000000 	nop
a081280c:	8fc20020 	lw	v0,32(s8)
a0812810:	8c430000 	lw	v1,0(v0)
a0812814:	8fc20020 	lw	v0,32(s8)
a0812818:	8c42000c 	lw	v0,12(v0)
a081281c:	00621021 	addu	v0,v1,v0
a0812820:	80430000 	lb	v1,0(v0)
a0812824:	24020063 	li	v0,99
a0812828:	14620039 	bne	v1,v0,a0812910 <test_shell+0x1a04>
a081282c:	00000000 	nop
a0812830:	8fc20020 	lw	v0,32(s8)
a0812834:	8c430000 	lw	v1,0(v0)
a0812838:	8fc20020 	lw	v0,32(s8)
a081283c:	8c42000c 	lw	v0,12(v0)
a0812840:	24420001 	addiu	v0,v0,1
a0812844:	00621021 	addu	v0,v1,v0
a0812848:	80430000 	lb	v1,0(v0)
a081284c:	24020068 	li	v0,104
a0812850:	1462002f 	bne	v1,v0,a0812910 <test_shell+0x1a04>
a0812854:	00000000 	nop
a0812858:	8fc20020 	lw	v0,32(s8)
a081285c:	8c430000 	lw	v1,0(v0)
a0812860:	8fc20020 	lw	v0,32(s8)
a0812864:	8c42000c 	lw	v0,12(v0)
a0812868:	24420002 	addiu	v0,v0,2
a081286c:	00621021 	addu	v0,v1,v0
a0812870:	80430000 	lb	v1,0(v0)
a0812874:	2402006d 	li	v0,109
a0812878:	14620025 	bne	v1,v0,a0812910 <test_shell+0x1a04>
a081287c:	00000000 	nop
a0812880:	8fc20020 	lw	v0,32(s8)
a0812884:	8c430000 	lw	v1,0(v0)
a0812888:	8fc20020 	lw	v0,32(s8)
a081288c:	8c42000c 	lw	v0,12(v0)
a0812890:	24420003 	addiu	v0,v0,3
a0812894:	00621021 	addu	v0,v1,v0
a0812898:	80430000 	lb	v1,0(v0)
a081289c:	2402006f 	li	v0,111
a08128a0:	1462001b 	bne	v1,v0,a0812910 <test_shell+0x1a04>
a08128a4:	00000000 	nop
a08128a8:	8fc20020 	lw	v0,32(s8)
a08128ac:	8c430000 	lw	v1,0(v0)
a08128b0:	8fc20020 	lw	v0,32(s8)
a08128b4:	8c42000c 	lw	v0,12(v0)
a08128b8:	24420004 	addiu	v0,v0,4
a08128bc:	00621021 	addu	v0,v1,v0
a08128c0:	80430000 	lb	v1,0(v0)
a08128c4:	24020064 	li	v0,100
a08128c8:	14620011 	bne	v1,v0,a0812910 <test_shell+0x1a04>
a08128cc:	00000000 	nop
a08128d0:	8fc20020 	lw	v0,32(s8)
a08128d4:	8c430000 	lw	v1,0(v0)
a08128d8:	8fc20020 	lw	v0,32(s8)
a08128dc:	8c42000c 	lw	v0,12(v0)
a08128e0:	24420005 	addiu	v0,v0,5
a08128e4:	00621021 	addu	v0,v1,v0
a08128e8:	80430000 	lb	v1,0(v0)
a08128ec:	24020020 	li	v0,32
a08128f0:	14620007 	bne	v1,v0,a0812910 <test_shell+0x1a04>
a08128f4:	00000000 	nop
a08128f8:	3c02a081 	lui	v0,0xa081
a08128fc:	244467f4 	addiu	a0,v0,26612
a0812900:	0c203ff7 	jal	a080ffdc <printf>
a0812904:	00000000 	nop
a0812908:	08204a6f 	j	a08129bc <test_shell+0x1ab0>
a081290c:	00000000 	nop
a0812910:	8fc20020 	lw	v0,32(s8)
a0812914:	8c430000 	lw	v1,0(v0)
a0812918:	8fc20020 	lw	v0,32(s8)
a081291c:	8c42000c 	lw	v0,12(v0)
a0812920:	00621021 	addu	v0,v1,v0
a0812924:	80430000 	lb	v1,0(v0)
a0812928:	2402006d 	li	v0,109
a081292c:	14620023 	bne	v1,v0,a08129bc <test_shell+0x1ab0>
a0812930:	00000000 	nop
a0812934:	8fc20020 	lw	v0,32(s8)
a0812938:	8c430000 	lw	v1,0(v0)
a081293c:	8fc20020 	lw	v0,32(s8)
a0812940:	8c42000c 	lw	v0,12(v0)
a0812944:	24420001 	addiu	v0,v0,1
a0812948:	00621021 	addu	v0,v1,v0
a081294c:	80430000 	lb	v1,0(v0)
a0812950:	24020061 	li	v0,97
a0812954:	14620019 	bne	v1,v0,a08129bc <test_shell+0x1ab0>
a0812958:	00000000 	nop
a081295c:	8fc20020 	lw	v0,32(s8)
a0812960:	8c430000 	lw	v1,0(v0)
a0812964:	8fc20020 	lw	v0,32(s8)
a0812968:	8c42000c 	lw	v0,12(v0)
a081296c:	24420002 	addiu	v0,v0,2
a0812970:	00621021 	addu	v0,v1,v0
a0812974:	80430000 	lb	v1,0(v0)
a0812978:	2402006e 	li	v0,110
a081297c:	1462000f 	bne	v1,v0,a08129bc <test_shell+0x1ab0>
a0812980:	00000000 	nop
a0812984:	8fc20020 	lw	v0,32(s8)
a0812988:	8c430000 	lw	v1,0(v0)
a081298c:	8fc20020 	lw	v0,32(s8)
a0812990:	8c42000c 	lw	v0,12(v0)
a0812994:	24420003 	addiu	v0,v0,3
a0812998:	00621021 	addu	v0,v1,v0
a081299c:	80430000 	lb	v1,0(v0)
a08129a0:	24020020 	li	v0,32
a08129a4:	14620005 	bne	v1,v0,a08129bc <test_shell+0x1ab0>
a08129a8:	00000000 	nop
a08129ac:	3c02a081 	lui	v0,0xa081
a08129b0:	244467f4 	addiu	a0,v0,26612
a08129b4:	0c203ff7 	jal	a080ffdc <printf>
a08129b8:	00000000 	nop
a08129bc:	8fc30020 	lw	v1,32(s8)
a08129c0:	8fc20028 	lw	v0,40(s8)
a08129c4:	ac62000c 	sw	v0,12(v1)
a08129c8:	082043df 	j	a0810f7c <test_shell+0x70>
a08129cc:	00000000 	nop

a08129d0 <status_type_to_string>:
a08129d0:	27bdfff0 	addiu	sp,sp,-16
a08129d4:	afbe000c 	sw	s8,12(sp)
a08129d8:	03a0f021 	move	s8,sp
a08129dc:	afc40010 	sw	a0,16(s8)
a08129e0:	8fc20010 	lw	v0,16(s8)
a08129e4:	2c420006 	sltiu	v0,v0,6
a08129e8:	10400027 	beqz	v0,a0812a88 <status_type_to_string+0xb8>
a08129ec:	00000000 	nop
a08129f0:	8fc20010 	lw	v0,16(s8)
a08129f4:	00021880 	sll	v1,v0,0x2
a08129f8:	3c02a081 	lui	v0,0xa081
a08129fc:	24426924 	addiu	v0,v0,26916
a0812a00:	00621021 	addu	v0,v1,v0
a0812a04:	8c420000 	lw	v0,0(v0)
a0812a08:	00400008 	jr	v0
a0812a0c:	00000000 	nop
a0812a10:	3c02a081 	lui	v0,0xa081
a0812a14:	244268bc 	addiu	v0,v0,26812
a0812a18:	afc20000 	sw	v0,0(s8)
a0812a1c:	08204aa5 	j	a0812a94 <status_type_to_string+0xc4>
a0812a20:	00000000 	nop
a0812a24:	3c02a081 	lui	v0,0xa081
a0812a28:	244268cc 	addiu	v0,v0,26828
a0812a2c:	afc20000 	sw	v0,0(s8)
a0812a30:	08204aa5 	j	a0812a94 <status_type_to_string+0xc4>
a0812a34:	00000000 	nop
a0812a38:	3c02a081 	lui	v0,0xa081
a0812a3c:	244268dc 	addiu	v0,v0,26844
a0812a40:	afc20000 	sw	v0,0(s8)
a0812a44:	08204aa5 	j	a0812a94 <status_type_to_string+0xc4>
a0812a48:	00000000 	nop
a0812a4c:	3c02a081 	lui	v0,0xa081
a0812a50:	244268e8 	addiu	v0,v0,26856
a0812a54:	afc20000 	sw	v0,0(s8)
a0812a58:	08204aa5 	j	a0812a94 <status_type_to_string+0xc4>
a0812a5c:	00000000 	nop
a0812a60:	3c02a081 	lui	v0,0xa081
a0812a64:	244268f4 	addiu	v0,v0,26868
a0812a68:	afc20000 	sw	v0,0(s8)
a0812a6c:	08204aa5 	j	a0812a94 <status_type_to_string+0xc4>
a0812a70:	00000000 	nop
a0812a74:	3c02a081 	lui	v0,0xa081
a0812a78:	24426904 	addiu	v0,v0,26884
a0812a7c:	afc20000 	sw	v0,0(s8)
a0812a80:	08204aa5 	j	a0812a94 <status_type_to_string+0xc4>
a0812a84:	00000000 	nop
a0812a88:	3c02a081 	lui	v0,0xa081
a0812a8c:	24426914 	addiu	v0,v0,26900
a0812a90:	afc20000 	sw	v0,0(s8)
a0812a94:	8fc20000 	lw	v0,0(s8)
a0812a98:	03c0e821 	move	sp,s8
a0812a9c:	8fbe000c 	lw	s8,12(sp)
a0812aa0:	27bd0010 	addiu	sp,sp,16
a0812aa4:	03e00008 	jr	ra
a0812aa8:	00000000 	nop
a0812aac:	00000000 	nop

a0812ab0 <barrier_task1>:
a0812ab0:	27bdffe0 	addiu	sp,sp,-32
a0812ab4:	afbf001c 	sw	ra,28(sp)
a0812ab8:	afbe0018 	sw	s8,24(sp)
a0812abc:	03a0f021 	move	s8,sp
a0812ac0:	afc00010 	sw	zero,16(s8)
a0812ac4:	3c02a085 	lui	v0,0xa085
a0812ac8:	8c429ff0 	lw	v0,-24592(v0)
a0812acc:	1440000b 	bnez	v0,a0812afc <barrier_task1+0x4c>
a0812ad0:	00000000 	nop
a0812ad4:	3c03a085 	lui	v1,0xa085
a0812ad8:	24020001 	li	v0,1
a0812adc:	ac629ff0 	sw	v0,-24592(v1)
a0812ae0:	3c02a081 	lui	v0,0xa081
a0812ae4:	8c4374a0 	lw	v1,29856(v0)
a0812ae8:	3c02a087 	lui	v0,0xa087
a0812aec:	24444b04 	addiu	a0,v0,19204
a0812af0:	00602821 	move	a1,v1
a0812af4:	0c203861 	jal	a080e184 <barrier_init>
a0812af8:	00000000 	nop
a0812afc:	afc00014 	sw	zero,20(s8)
a0812b00:	00002021 	move	a0,zero
a0812b04:	8fc50010 	lw	a1,16(s8)
a0812b08:	0c203788 	jal	a080de20 <sys_move_cursor>
a0812b0c:	00000000 	nop
a0812b10:	3c02a081 	lui	v0,0xa081
a0812b14:	24446940 	addiu	a0,v0,26944
a0812b18:	8fc50014 	lw	a1,20(s8)
a0812b1c:	0c203ff7 	jal	a080ffdc <printf>
a0812b20:	00000000 	nop
a0812b24:	3c02a087 	lui	v0,0xa087
a0812b28:	24444b04 	addiu	a0,v0,19204
a0812b2c:	0c203874 	jal	a080e1d0 <barrier_wait>
a0812b30:	00000000 	nop
a0812b34:	00002021 	move	a0,zero
a0812b38:	8fc50010 	lw	a1,16(s8)
a0812b3c:	0c203788 	jal	a080de20 <sys_move_cursor>
a0812b40:	00000000 	nop
a0812b44:	3c02a081 	lui	v0,0xa081
a0812b48:	2444696c 	addiu	a0,v0,26988
a0812b4c:	8fc50014 	lw	a1,20(s8)
a0812b50:	0c203ff7 	jal	a080ffdc <printf>
a0812b54:	00000000 	nop
a0812b58:	24040001 	li	a0,1
a0812b5c:	0c203715 	jal	a080dc54 <sys_sleep>
a0812b60:	00000000 	nop
a0812b64:	8fc20014 	lw	v0,20(s8)
a0812b68:	24420001 	addiu	v0,v0,1
a0812b6c:	afc20014 	sw	v0,20(s8)
a0812b70:	08204ac0 	j	a0812b00 <barrier_task1+0x50>
a0812b74:	00000000 	nop

a0812b78 <barrier_task2>:
a0812b78:	27bdffe0 	addiu	sp,sp,-32
a0812b7c:	afbf001c 	sw	ra,28(sp)
a0812b80:	afbe0018 	sw	s8,24(sp)
a0812b84:	03a0f021 	move	s8,sp
a0812b88:	24020001 	li	v0,1
a0812b8c:	afc20010 	sw	v0,16(s8)
a0812b90:	3c02a085 	lui	v0,0xa085
a0812b94:	8c429ff0 	lw	v0,-24592(v0)
a0812b98:	1440000b 	bnez	v0,a0812bc8 <barrier_task2+0x50>
a0812b9c:	00000000 	nop
a0812ba0:	3c03a085 	lui	v1,0xa085
a0812ba4:	24020001 	li	v0,1
a0812ba8:	ac629ff0 	sw	v0,-24592(v1)
a0812bac:	3c02a081 	lui	v0,0xa081
a0812bb0:	8c4374a0 	lw	v1,29856(v0)
a0812bb4:	3c02a087 	lui	v0,0xa087
a0812bb8:	24444b04 	addiu	a0,v0,19204
a0812bbc:	00602821 	move	a1,v1
a0812bc0:	0c203861 	jal	a080e184 <barrier_init>
a0812bc4:	00000000 	nop
a0812bc8:	afc00014 	sw	zero,20(s8)
a0812bcc:	00002021 	move	a0,zero
a0812bd0:	8fc50010 	lw	a1,16(s8)
a0812bd4:	0c203788 	jal	a080de20 <sys_move_cursor>
a0812bd8:	00000000 	nop
a0812bdc:	3c02a081 	lui	v0,0xa081
a0812be0:	24446940 	addiu	a0,v0,26944
a0812be4:	8fc50014 	lw	a1,20(s8)
a0812be8:	0c203ff7 	jal	a080ffdc <printf>
a0812bec:	00000000 	nop
a0812bf0:	3c02a087 	lui	v0,0xa087
a0812bf4:	24444b04 	addiu	a0,v0,19204
a0812bf8:	0c203874 	jal	a080e1d0 <barrier_wait>
a0812bfc:	00000000 	nop
a0812c00:	00002021 	move	a0,zero
a0812c04:	8fc50010 	lw	a1,16(s8)
a0812c08:	0c203788 	jal	a080de20 <sys_move_cursor>
a0812c0c:	00000000 	nop
a0812c10:	3c02a081 	lui	v0,0xa081
a0812c14:	2444696c 	addiu	a0,v0,26988
a0812c18:	8fc50014 	lw	a1,20(s8)
a0812c1c:	0c203ff7 	jal	a080ffdc <printf>
a0812c20:	00000000 	nop
a0812c24:	24040001 	li	a0,1
a0812c28:	0c203715 	jal	a080dc54 <sys_sleep>
a0812c2c:	00000000 	nop
a0812c30:	8fc20014 	lw	v0,20(s8)
a0812c34:	24420001 	addiu	v0,v0,1
a0812c38:	afc20014 	sw	v0,20(s8)
a0812c3c:	08204af3 	j	a0812bcc <barrier_task2+0x54>
a0812c40:	00000000 	nop

a0812c44 <barrier_task3>:
a0812c44:	27bdffe0 	addiu	sp,sp,-32
a0812c48:	afbf001c 	sw	ra,28(sp)
a0812c4c:	afbe0018 	sw	s8,24(sp)
a0812c50:	03a0f021 	move	s8,sp
a0812c54:	24020002 	li	v0,2
a0812c58:	afc20010 	sw	v0,16(s8)
a0812c5c:	3c02a085 	lui	v0,0xa085
a0812c60:	8c429ff0 	lw	v0,-24592(v0)
a0812c64:	1440000b 	bnez	v0,a0812c94 <barrier_task3+0x50>
a0812c68:	00000000 	nop
a0812c6c:	3c03a085 	lui	v1,0xa085
a0812c70:	24020001 	li	v0,1
a0812c74:	ac629ff0 	sw	v0,-24592(v1)
a0812c78:	3c02a081 	lui	v0,0xa081
a0812c7c:	8c4374a0 	lw	v1,29856(v0)
a0812c80:	3c02a087 	lui	v0,0xa087
a0812c84:	24444b04 	addiu	a0,v0,19204
a0812c88:	00602821 	move	a1,v1
a0812c8c:	0c203861 	jal	a080e184 <barrier_init>
a0812c90:	00000000 	nop
a0812c94:	afc00014 	sw	zero,20(s8)
a0812c98:	00002021 	move	a0,zero
a0812c9c:	8fc50010 	lw	a1,16(s8)
a0812ca0:	0c203788 	jal	a080de20 <sys_move_cursor>
a0812ca4:	00000000 	nop
a0812ca8:	3c02a081 	lui	v0,0xa081
a0812cac:	24446940 	addiu	a0,v0,26944
a0812cb0:	8fc50014 	lw	a1,20(s8)
a0812cb4:	0c203ff7 	jal	a080ffdc <printf>
a0812cb8:	00000000 	nop
a0812cbc:	3c02a087 	lui	v0,0xa087
a0812cc0:	24444b04 	addiu	a0,v0,19204
a0812cc4:	0c203874 	jal	a080e1d0 <barrier_wait>
a0812cc8:	00000000 	nop
a0812ccc:	00002021 	move	a0,zero
a0812cd0:	8fc50010 	lw	a1,16(s8)
a0812cd4:	0c203788 	jal	a080de20 <sys_move_cursor>
a0812cd8:	00000000 	nop
a0812cdc:	3c02a081 	lui	v0,0xa081
a0812ce0:	2444696c 	addiu	a0,v0,26988
a0812ce4:	8fc50014 	lw	a1,20(s8)
a0812ce8:	0c203ff7 	jal	a080ffdc <printf>
a0812cec:	00000000 	nop
a0812cf0:	24040001 	li	a0,1
a0812cf4:	0c203715 	jal	a080dc54 <sys_sleep>
a0812cf8:	00000000 	nop
a0812cfc:	8fc20014 	lw	v0,20(s8)
a0812d00:	24420001 	addiu	v0,v0,1
a0812d04:	afc20014 	sw	v0,20(s8)
a0812d08:	08204b26 	j	a0812c98 <barrier_task3+0x54>
a0812d0c:	00000000 	nop

a0812d10 <producer_task>:
a0812d10:	27bdffd8 	addiu	sp,sp,-40
a0812d14:	afbf0024 	sw	ra,36(sp)
a0812d18:	afbe0020 	sw	s8,32(sp)
a0812d1c:	03a0f021 	move	s8,sp
a0812d20:	afc00018 	sw	zero,24(s8)
a0812d24:	24020003 	li	v0,3
a0812d28:	afc20014 	sw	v0,20(s8)
a0812d2c:	afc00010 	sw	zero,16(s8)
a0812d30:	afc0001c 	sw	zero,28(s8)
a0812d34:	08204b74 	j	a0812dd0 <producer_task+0xc0>
a0812d38:	00000000 	nop
a0812d3c:	3c02a085 	lui	v0,0xa085
a0812d40:	2444a004 	addiu	a0,v0,-24572
a0812d44:	0c2037bc 	jal	a080def0 <mutex_lock_acquire>
a0812d48:	00000000 	nop
a0812d4c:	3c02a085 	lui	v0,0xa085
a0812d50:	8c43a000 	lw	v1,-24576(v0)
a0812d54:	8fc20014 	lw	v0,20(s8)
a0812d58:	00621821 	addu	v1,v1,v0
a0812d5c:	3c02a085 	lui	v0,0xa085
a0812d60:	ac43a000 	sw	v1,-24576(v0)
a0812d64:	8fc30010 	lw	v1,16(s8)
a0812d68:	8fc20014 	lw	v0,20(s8)
a0812d6c:	00621021 	addu	v0,v1,v0
a0812d70:	afc20010 	sw	v0,16(s8)
a0812d74:	3c02a085 	lui	v0,0xa085
a0812d78:	2444a004 	addiu	a0,v0,-24572
a0812d7c:	0c2037ce 	jal	a080df38 <mutex_lock_release>
a0812d80:	00000000 	nop
a0812d84:	00002021 	move	a0,zero
a0812d88:	8fc50018 	lw	a1,24(s8)
a0812d8c:	0c203788 	jal	a080de20 <sys_move_cursor>
a0812d90:	00000000 	nop
a0812d94:	3c02a081 	lui	v0,0xa081
a0812d98:	244469a0 	addiu	a0,v0,27040
a0812d9c:	8fc50010 	lw	a1,16(s8)
a0812da0:	0c203ff7 	jal	a080ffdc <printf>
a0812da4:	00000000 	nop
a0812da8:	3c02a085 	lui	v0,0xa085
a0812dac:	2444a010 	addiu	a0,v0,-24560
a0812db0:	0c20384f 	jal	a080e13c <condition_broadcast>
a0812db4:	00000000 	nop
a0812db8:	24040002 	li	a0,2
a0812dbc:	0c203715 	jal	a080dc54 <sys_sleep>
a0812dc0:	00000000 	nop
a0812dc4:	8fc2001c 	lw	v0,28(s8)
a0812dc8:	24420001 	addiu	v0,v0,1
a0812dcc:	afc2001c 	sw	v0,28(s8)
a0812dd0:	8fc2001c 	lw	v0,28(s8)
a0812dd4:	28420032 	slti	v0,v0,50
a0812dd8:	1440ffd8 	bnez	v0,a0812d3c <producer_task+0x2c>
a0812ddc:	00000000 	nop
a0812de0:	0c203898 	jal	a080e260 <sys_exit>
a0812de4:	00000000 	nop
a0812de8:	03c0e821 	move	sp,s8
a0812dec:	8fbf0024 	lw	ra,36(sp)
a0812df0:	8fbe0020 	lw	s8,32(sp)
a0812df4:	27bd0028 	addiu	sp,sp,40
a0812df8:	03e00008 	jr	ra
a0812dfc:	00000000 	nop

a0812e00 <consumer_task1>:
a0812e00:	27bdffd8 	addiu	sp,sp,-40
a0812e04:	afbf0024 	sw	ra,36(sp)
a0812e08:	afbe0020 	sw	s8,32(sp)
a0812e0c:	03a0f021 	move	s8,sp
a0812e10:	24020001 	li	v0,1
a0812e14:	afc20018 	sw	v0,24(s8)
a0812e18:	24020001 	li	v0,1
a0812e1c:	afc20014 	sw	v0,20(s8)
a0812e20:	afc00010 	sw	zero,16(s8)
a0812e24:	3c02a085 	lui	v0,0xa085
a0812e28:	2444a004 	addiu	a0,v0,-24572
a0812e2c:	0c2037bc 	jal	a080def0 <mutex_lock_acquire>
a0812e30:	00000000 	nop
a0812e34:	08204b95 	j	a0812e54 <consumer_task1+0x54>
a0812e38:	00000000 	nop
a0812e3c:	3c02a085 	lui	v0,0xa085
a0812e40:	2444a004 	addiu	a0,v0,-24572
a0812e44:	3c02a085 	lui	v0,0xa085
a0812e48:	2445a010 	addiu	a1,v0,-24560
a0812e4c:	0c203829 	jal	a080e0a4 <condition_wait>
a0812e50:	00000000 	nop
a0812e54:	3c02a085 	lui	v0,0xa085
a0812e58:	8c42a000 	lw	v0,-24576(v0)
a0812e5c:	1040fff7 	beqz	v0,a0812e3c <consumer_task1+0x3c>
a0812e60:	00000000 	nop
a0812e64:	3c02a085 	lui	v0,0xa085
a0812e68:	8c43a000 	lw	v1,-24576(v0)
a0812e6c:	8fc20014 	lw	v0,20(s8)
a0812e70:	00621823 	subu	v1,v1,v0
a0812e74:	3c02a085 	lui	v0,0xa085
a0812e78:	ac43a000 	sw	v1,-24576(v0)
a0812e7c:	8fc30010 	lw	v1,16(s8)
a0812e80:	8fc20014 	lw	v0,20(s8)
a0812e84:	00621021 	addu	v0,v1,v0
a0812e88:	afc20010 	sw	v0,16(s8)
a0812e8c:	00002021 	move	a0,zero
a0812e90:	8fc50018 	lw	a1,24(s8)
a0812e94:	0c203788 	jal	a080de20 <sys_move_cursor>
a0812e98:	00000000 	nop
a0812e9c:	3c02a081 	lui	v0,0xa081
a0812ea0:	244469c8 	addiu	a0,v0,27080
a0812ea4:	8fc50010 	lw	a1,16(s8)
a0812ea8:	0c203ff7 	jal	a080ffdc <printf>
a0812eac:	00000000 	nop
a0812eb0:	3c02a085 	lui	v0,0xa085
a0812eb4:	2444a004 	addiu	a0,v0,-24572
a0812eb8:	0c2037ce 	jal	a080df38 <mutex_lock_release>
a0812ebc:	00000000 	nop
a0812ec0:	24040001 	li	a0,1
a0812ec4:	0c203715 	jal	a080dc54 <sys_sleep>
a0812ec8:	00000000 	nop
a0812ecc:	08204b89 	j	a0812e24 <consumer_task1+0x24>
a0812ed0:	00000000 	nop

a0812ed4 <consumer_task2>:
a0812ed4:	27bdffd8 	addiu	sp,sp,-40
a0812ed8:	afbf0024 	sw	ra,36(sp)
a0812edc:	afbe0020 	sw	s8,32(sp)
a0812ee0:	03a0f021 	move	s8,sp
a0812ee4:	24020002 	li	v0,2
a0812ee8:	afc20018 	sw	v0,24(s8)
a0812eec:	24020001 	li	v0,1
a0812ef0:	afc20014 	sw	v0,20(s8)
a0812ef4:	afc00010 	sw	zero,16(s8)
a0812ef8:	3c02a085 	lui	v0,0xa085
a0812efc:	2444a004 	addiu	a0,v0,-24572
a0812f00:	0c2037bc 	jal	a080def0 <mutex_lock_acquire>
a0812f04:	00000000 	nop
a0812f08:	08204bca 	j	a0812f28 <consumer_task2+0x54>
a0812f0c:	00000000 	nop
a0812f10:	3c02a085 	lui	v0,0xa085
a0812f14:	2444a004 	addiu	a0,v0,-24572
a0812f18:	3c02a085 	lui	v0,0xa085
a0812f1c:	2445a010 	addiu	a1,v0,-24560
a0812f20:	0c203829 	jal	a080e0a4 <condition_wait>
a0812f24:	00000000 	nop
a0812f28:	3c02a085 	lui	v0,0xa085
a0812f2c:	8c42a000 	lw	v0,-24576(v0)
a0812f30:	1040fff7 	beqz	v0,a0812f10 <consumer_task2+0x3c>
a0812f34:	00000000 	nop
a0812f38:	3c02a085 	lui	v0,0xa085
a0812f3c:	8c43a000 	lw	v1,-24576(v0)
a0812f40:	8fc20014 	lw	v0,20(s8)
a0812f44:	00621823 	subu	v1,v1,v0
a0812f48:	3c02a085 	lui	v0,0xa085
a0812f4c:	ac43a000 	sw	v1,-24576(v0)
a0812f50:	8fc30010 	lw	v1,16(s8)
a0812f54:	8fc20014 	lw	v0,20(s8)
a0812f58:	00621021 	addu	v0,v1,v0
a0812f5c:	afc20010 	sw	v0,16(s8)
a0812f60:	00002021 	move	a0,zero
a0812f64:	8fc50018 	lw	a1,24(s8)
a0812f68:	0c203788 	jal	a080de20 <sys_move_cursor>
a0812f6c:	00000000 	nop
a0812f70:	3c02a081 	lui	v0,0xa081
a0812f74:	244469c8 	addiu	a0,v0,27080
a0812f78:	8fc50010 	lw	a1,16(s8)
a0812f7c:	0c203ff7 	jal	a080ffdc <printf>
a0812f80:	00000000 	nop
a0812f84:	3c02a085 	lui	v0,0xa085
a0812f88:	2444a004 	addiu	a0,v0,-24572
a0812f8c:	0c2037ce 	jal	a080df38 <mutex_lock_release>
a0812f90:	00000000 	nop
a0812f94:	24040001 	li	a0,1
a0812f98:	0c203715 	jal	a080dc54 <sys_sleep>
a0812f9c:	00000000 	nop
a0812fa0:	08204bbe 	j	a0812ef8 <consumer_task2+0x24>
a0812fa4:	00000000 	nop
	...

a0812fb0 <ready_to_exit_task>:
a0812fb0:	27bdffe0 	addiu	sp,sp,-32
a0812fb4:	afbf001c 	sw	ra,28(sp)
a0812fb8:	afbe0018 	sw	s8,24(sp)
a0812fbc:	03a0f021 	move	s8,sp
a0812fc0:	afc00014 	sw	zero,20(s8)
a0812fc4:	afc00010 	sw	zero,16(s8)
a0812fc8:	3c02a087 	lui	v0,0xa087
a0812fcc:	24444b14 	addiu	a0,v0,19220
a0812fd0:	0c2037bc 	jal	a080def0 <mutex_lock_acquire>
a0812fd4:	00000000 	nop
a0812fd8:	3c02a087 	lui	v0,0xa087
a0812fdc:	24444b20 	addiu	a0,v0,19232
a0812fe0:	0c2037bc 	jal	a080def0 <mutex_lock_acquire>
a0812fe4:	00000000 	nop
a0812fe8:	afc00014 	sw	zero,20(s8)
a0812fec:	08204c10 	j	a0813040 <ready_to_exit_task+0x90>
a0812ff0:	00000000 	nop
a0812ff4:	00002021 	move	a0,zero
a0812ff8:	8fc50010 	lw	a1,16(s8)
a0812ffc:	0c203788 	jal	a080de20 <sys_move_cursor>
a0813000:	00000000 	nop
a0813004:	3c02a081 	lui	v0,0xa081
a0813008:	8c427290 	lw	v0,29328(v0)
a081300c:	8c430140 	lw	v1,320(v0)
a0813010:	8fc60014 	lw	a2,20(s8)
a0813014:	8fc20014 	lw	v0,20(s8)
a0813018:	24420001 	addiu	v0,v0,1
a081301c:	afc20014 	sw	v0,20(s8)
a0813020:	3c02a081 	lui	v0,0xa081
a0813024:	244469f0 	addiu	a0,v0,27120
a0813028:	00602821 	move	a1,v1
a081302c:	0c203ff7 	jal	a080ffdc <printf>
a0813030:	00000000 	nop
a0813034:	8fc20014 	lw	v0,20(s8)
a0813038:	24420001 	addiu	v0,v0,1
a081303c:	afc20014 	sw	v0,20(s8)
a0813040:	8fc20014 	lw	v0,20(s8)
a0813044:	3403c350 	li	v1,0xc350
a0813048:	0043102a 	slt	v0,v0,v1
a081304c:	1440ffe9 	bnez	v0,a0812ff4 <ready_to_exit_task+0x44>
a0813050:	00000000 	nop
a0813054:	0c203898 	jal	a080e260 <sys_exit>
a0813058:	00000000 	nop
a081305c:	03c0e821 	move	sp,s8
a0813060:	8fbf001c 	lw	ra,28(sp)
a0813064:	8fbe0018 	lw	s8,24(sp)
a0813068:	27bd0020 	addiu	sp,sp,32
a081306c:	03e00008 	jr	ra
a0813070:	00000000 	nop

a0813074 <wait_lock_task>:
a0813074:	27bdffe0 	addiu	sp,sp,-32
a0813078:	afbf001c 	sw	ra,28(sp)
a081307c:	afbe0018 	sw	s8,24(sp)
a0813080:	03a0f021 	move	s8,sp
a0813084:	24020001 	li	v0,1
a0813088:	afc20010 	sw	v0,16(s8)
a081308c:	00002021 	move	a0,zero
a0813090:	8fc50010 	lw	a1,16(s8)
a0813094:	0c203788 	jal	a080de20 <sys_move_cursor>
a0813098:	00000000 	nop
a081309c:	3c02a081 	lui	v0,0xa081
a08130a0:	24446a38 	addiu	a0,v0,27192
a08130a4:	0c203ff7 	jal	a080ffdc <printf>
a08130a8:	00000000 	nop
a08130ac:	3c02a087 	lui	v0,0xa087
a08130b0:	24444b14 	addiu	a0,v0,19220
a08130b4:	0c2037bc 	jal	a080def0 <mutex_lock_acquire>
a08130b8:	00000000 	nop
a08130bc:	00002021 	move	a0,zero
a08130c0:	8fc50010 	lw	a1,16(s8)
a08130c4:	0c203788 	jal	a080de20 <sys_move_cursor>
a08130c8:	00000000 	nop
a08130cc:	3c02a081 	lui	v0,0xa081
a08130d0:	24446a74 	addiu	a0,v0,27252
a08130d4:	0c203ff7 	jal	a080ffdc <printf>
a08130d8:	00000000 	nop
a08130dc:	0c203898 	jal	a080e260 <sys_exit>
a08130e0:	00000000 	nop
a08130e4:	03c0e821 	move	sp,s8
a08130e8:	8fbf001c 	lw	ra,28(sp)
a08130ec:	8fbe0018 	lw	s8,24(sp)
a08130f0:	27bd0020 	addiu	sp,sp,32
a08130f4:	03e00008 	jr	ra
a08130f8:	00000000 	nop

a08130fc <wait_exit_task>:
a08130fc:	27bdffe0 	addiu	sp,sp,-32
a0813100:	afbf001c 	sw	ra,28(sp)
a0813104:	afbe0018 	sw	s8,24(sp)
a0813108:	03a0f021 	move	s8,sp
a081310c:	24020002 	li	v0,2
a0813110:	afc20010 	sw	v0,16(s8)
a0813114:	00002021 	move	a0,zero
a0813118:	8fc50010 	lw	a1,16(s8)
a081311c:	0c203788 	jal	a080de20 <sys_move_cursor>
a0813120:	00000000 	nop
a0813124:	3c02a081 	lui	v0,0xa081
a0813128:	24446ab0 	addiu	a0,v0,27312
a081312c:	0c203ff7 	jal	a080ffdc <printf>
a0813130:	00000000 	nop
a0813134:	24040002 	li	a0,2
a0813138:	0c2038b8 	jal	a080e2e0 <sys_waitpid>
a081313c:	00000000 	nop
a0813140:	00002021 	move	a0,zero
a0813144:	8fc50010 	lw	a1,16(s8)
a0813148:	0c203788 	jal	a080de20 <sys_move_cursor>
a081314c:	00000000 	nop
a0813150:	3c02a081 	lui	v0,0xa081
a0813154:	24446ae0 	addiu	a0,v0,27360
a0813158:	0c203ff7 	jal	a080ffdc <printf>
a081315c:	00000000 	nop
a0813160:	0c203898 	jal	a080e260 <sys_exit>
a0813164:	00000000 	nop
a0813168:	03c0e821 	move	sp,s8
a081316c:	8fbf001c 	lw	ra,28(sp)
a0813170:	8fbe0018 	lw	s8,24(sp)
a0813174:	27bd0020 	addiu	sp,sp,32
a0813178:	03e00008 	jr	ra
a081317c:	00000000 	nop

a0813180 <SunQuan>:
a0813180:	27bdffd8 	addiu	sp,sp,-40
a0813184:	afbf0024 	sw	ra,36(sp)
a0813188:	afbe0020 	sw	s8,32(sp)
a081318c:	03a0f021 	move	s8,sp
a0813190:	3c02a081 	lui	v0,0xa081
a0813194:	24446b38 	addiu	a0,v0,27448
a0813198:	0c20405a 	jal	a0810168 <mbox_open>
a081319c:	00000000 	nop
a08131a0:	afc20014 	sw	v0,20(s8)
a08131a4:	0c2038a8 	jal	a080e2a0 <sys_getpid>
a08131a8:	00000000 	nop
a08131ac:	afc20018 	sw	v0,24(s8)
a08131b0:	27c20018 	addiu	v0,s8,24
a08131b4:	8fc40014 	lw	a0,20(s8)
a08131b8:	00402821 	move	a1,v0
a08131bc:	24060004 	li	a2,4
a08131c0:	0c20416b 	jal	a08105ac <mbox_send>
a08131c4:	00000000 	nop
a08131c8:	27c20018 	addiu	v0,s8,24
a08131cc:	8fc40014 	lw	a0,20(s8)
a08131d0:	00402821 	move	a1,v0
a08131d4:	24060004 	li	a2,4
a08131d8:	0c20416b 	jal	a08105ac <mbox_send>
a08131dc:	00000000 	nop
a08131e0:	3c02a081 	lui	v0,0xa081
a08131e4:	24446b4c 	addiu	a0,v0,27468
a08131e8:	0c20405a 	jal	a0810168 <mbox_open>
a08131ec:	00000000 	nop
a08131f0:	afc20010 	sw	v0,16(s8)
a08131f4:	00002021 	move	a0,zero
a08131f8:	00002821 	move	a1,zero
a08131fc:	0c203788 	jal	a080de20 <sys_move_cursor>
a0813200:	00000000 	nop
a0813204:	8fc30018 	lw	v1,24(s8)
a0813208:	3c02a081 	lui	v0,0xa081
a081320c:	24446b60 	addiu	a0,v0,27488
a0813210:	00602821 	move	a1,v1
a0813214:	0c203ff7 	jal	a080ffdc <printf>
a0813218:	00000000 	nop
a081321c:	27c2001c 	addiu	v0,s8,28
a0813220:	8fc40010 	lw	a0,16(s8)
a0813224:	00402821 	move	a1,v0
a0813228:	24060004 	li	a2,4
a081322c:	0c2041a4 	jal	a0810690 <mbox_recv>
a0813230:	00000000 	nop
a0813234:	00002021 	move	a0,zero
a0813238:	00002821 	move	a1,zero
a081323c:	0c203788 	jal	a080de20 <sys_move_cursor>
a0813240:	00000000 	nop
a0813244:	8fc30018 	lw	v1,24(s8)
a0813248:	8fc6001c 	lw	a2,28(s8)
a081324c:	3c02a081 	lui	v0,0xa081
a0813250:	24446b98 	addiu	a0,v0,27544
a0813254:	00602821 	move	a1,v1
a0813258:	0c203ff7 	jal	a080ffdc <printf>
a081325c:	00000000 	nop
a0813260:	8fc2001c 	lw	v0,28(s8)
a0813264:	00402021 	move	a0,v0
a0813268:	0c2038b8 	jal	a080e2e0 <sys_waitpid>
a081326c:	00000000 	nop
a0813270:	00002021 	move	a0,zero
a0813274:	00002821 	move	a1,zero
a0813278:	0c203788 	jal	a080de20 <sys_move_cursor>
a081327c:	00000000 	nop
a0813280:	8fc30018 	lw	v1,24(s8)
a0813284:	3c02a081 	lui	v0,0xa081
a0813288:	24446bd0 	addiu	a0,v0,27600
a081328c:	00602821 	move	a1,v1
a0813290:	0c203ff7 	jal	a080ffdc <printf>
a0813294:	00000000 	nop
a0813298:	24040001 	li	a0,1
a081329c:	0c203715 	jal	a080dc54 <sys_sleep>
a08132a0:	00000000 	nop
a08132a4:	3c02a081 	lui	v0,0xa081
a08132a8:	244474fc 	addiu	a0,v0,29948
a08132ac:	0c203886 	jal	a080e218 <sys_spawn>
a08132b0:	00000000 	nop
a08132b4:	27c20018 	addiu	v0,s8,24
a08132b8:	8fc40014 	lw	a0,20(s8)
a08132bc:	00402821 	move	a1,v0
a08132c0:	24060004 	li	a2,4
a08132c4:	0c20416b 	jal	a08105ac <mbox_send>
a08132c8:	00000000 	nop
a08132cc:	08204c7d 	j	a08131f4 <SunQuan+0x74>
a08132d0:	00000000 	nop

a08132d4 <LiuBei>:
a08132d4:	27bdffd8 	addiu	sp,sp,-40
a08132d8:	afbf0024 	sw	ra,36(sp)
a08132dc:	afbe0020 	sw	s8,32(sp)
a08132e0:	03a0f021 	move	s8,sp
a08132e4:	3c02a081 	lui	v0,0xa081
a08132e8:	24446b4c 	addiu	a0,v0,27468
a08132ec:	0c20405a 	jal	a0810168 <mbox_open>
a08132f0:	00000000 	nop
a08132f4:	afc20014 	sw	v0,20(s8)
a08132f8:	0c2038a8 	jal	a080e2a0 <sys_getpid>
a08132fc:	00000000 	nop
a0813300:	afc20018 	sw	v0,24(s8)
a0813304:	27c20018 	addiu	v0,s8,24
a0813308:	8fc40014 	lw	a0,20(s8)
a081330c:	00402821 	move	a1,v0
a0813310:	24060004 	li	a2,4
a0813314:	0c20416b 	jal	a08105ac <mbox_send>
a0813318:	00000000 	nop
a081331c:	27c20018 	addiu	v0,s8,24
a0813320:	8fc40014 	lw	a0,20(s8)
a0813324:	00402821 	move	a1,v0
a0813328:	24060004 	li	a2,4
a081332c:	0c20416b 	jal	a08105ac <mbox_send>
a0813330:	00000000 	nop
a0813334:	3c02a081 	lui	v0,0xa081
a0813338:	24446b38 	addiu	a0,v0,27448
a081333c:	0c20405a 	jal	a0810168 <mbox_open>
a0813340:	00000000 	nop
a0813344:	afc20010 	sw	v0,16(s8)
a0813348:	00002021 	move	a0,zero
a081334c:	24050001 	li	a1,1
a0813350:	0c203788 	jal	a080de20 <sys_move_cursor>
a0813354:	00000000 	nop
a0813358:	8fc30018 	lw	v1,24(s8)
a081335c:	3c02a081 	lui	v0,0xa081
a0813360:	24446c00 	addiu	a0,v0,27648
a0813364:	00602821 	move	a1,v1
a0813368:	0c203ff7 	jal	a080ffdc <printf>
a081336c:	00000000 	nop
a0813370:	27c2001c 	addiu	v0,s8,28
a0813374:	8fc40010 	lw	a0,16(s8)
a0813378:	00402821 	move	a1,v0
a081337c:	24060004 	li	a2,4
a0813380:	0c2041a4 	jal	a0810690 <mbox_recv>
a0813384:	00000000 	nop
a0813388:	00002021 	move	a0,zero
a081338c:	24050001 	li	a1,1
a0813390:	0c203788 	jal	a080de20 <sys_move_cursor>
a0813394:	00000000 	nop
a0813398:	8fc30018 	lw	v1,24(s8)
a081339c:	8fc6001c 	lw	a2,28(s8)
a08133a0:	3c02a081 	lui	v0,0xa081
a08133a4:	24446c30 	addiu	a0,v0,27696
a08133a8:	00602821 	move	a1,v1
a08133ac:	0c203ff7 	jal	a080ffdc <printf>
a08133b0:	00000000 	nop
a08133b4:	8fc2001c 	lw	v0,28(s8)
a08133b8:	00402021 	move	a0,v0
a08133bc:	0c2038b8 	jal	a080e2e0 <sys_waitpid>
a08133c0:	00000000 	nop
a08133c4:	00002021 	move	a0,zero
a08133c8:	24050001 	li	a1,1
a08133cc:	0c203788 	jal	a080de20 <sys_move_cursor>
a08133d0:	00000000 	nop
a08133d4:	8fc30018 	lw	v1,24(s8)
a08133d8:	3c02a081 	lui	v0,0xa081
a08133dc:	24446c60 	addiu	a0,v0,27744
a08133e0:	00602821 	move	a1,v1
a08133e4:	0c203ff7 	jal	a080ffdc <printf>
a08133e8:	00000000 	nop
a08133ec:	24040001 	li	a0,1
a08133f0:	0c203715 	jal	a080dc54 <sys_sleep>
a08133f4:	00000000 	nop
a08133f8:	3c02a081 	lui	v0,0xa081
a08133fc:	244474f0 	addiu	a0,v0,29936
a0813400:	0c203886 	jal	a080e218 <sys_spawn>
a0813404:	00000000 	nop
a0813408:	27c20018 	addiu	v0,s8,24
a081340c:	8fc40014 	lw	a0,20(s8)
a0813410:	00402821 	move	a1,v0
a0813414:	24060004 	li	a2,4
a0813418:	0c20416b 	jal	a08105ac <mbox_send>
a081341c:	00000000 	nop
a0813420:	08204cd2 	j	a0813348 <LiuBei+0x74>
a0813424:	00000000 	nop

a0813428 <CaoCao>:
a0813428:	27bdffc0 	addiu	sp,sp,-64
a081342c:	afbf003c 	sw	ra,60(sp)
a0813430:	afbe0038 	sw	s8,56(sp)
a0813434:	03a0f021 	move	s8,sp
a0813438:	0c2038a8 	jal	a080e2a0 <sys_getpid>
a081343c:	00000000 	nop
a0813440:	afc2001c 	sw	v0,28(s8)
a0813444:	3c02a081 	lui	v0,0xa081
a0813448:	24446b38 	addiu	a0,v0,27448
a081344c:	0c20405a 	jal	a0810168 <mbox_open>
a0813450:	00000000 	nop
a0813454:	afc20018 	sw	v0,24(s8)
a0813458:	3c02a081 	lui	v0,0xa081
a081345c:	24446b4c 	addiu	a0,v0,27468
a0813460:	0c20405a 	jal	a0810168 <mbox_open>
a0813464:	00000000 	nop
a0813468:	afc20014 	sw	v0,20(s8)
a081346c:	27c20024 	addiu	v0,s8,36
a0813470:	8fc40018 	lw	a0,24(s8)
a0813474:	00402821 	move	a1,v0
a0813478:	24060004 	li	a2,4
a081347c:	0c2041a4 	jal	a0810690 <mbox_recv>
a0813480:	00000000 	nop
a0813484:	27c20028 	addiu	v0,s8,40
a0813488:	8fc40014 	lw	a0,20(s8)
a081348c:	00402821 	move	a1,v0
a0813490:	24060004 	li	a2,4
a0813494:	0c2041a4 	jal	a0810690 <mbox_recv>
a0813498:	00000000 	nop
a081349c:	afc00010 	sw	zero,16(s8)
a08134a0:	00002021 	move	a0,zero
a08134a4:	24050002 	li	a1,2
a08134a8:	0c203788 	jal	a080de20 <sys_move_cursor>
a08134ac:	00000000 	nop
a08134b0:	3c02a081 	lui	v0,0xa081
a08134b4:	24446c90 	addiu	a0,v0,27792
a08134b8:	8fc5001c 	lw	a1,28(s8)
a08134bc:	0c203ff7 	jal	a080ffdc <printf>
a08134c0:	00000000 	nop
a08134c4:	24040005 	li	a0,5
a08134c8:	0c203715 	jal	a080dc54 <sys_sleep>
a08134cc:	00000000 	nop
a08134d0:	00002021 	move	a0,zero
a08134d4:	24050003 	li	a1,3
a08134d8:	0c203788 	jal	a080de20 <sys_move_cursor>
a08134dc:	00000000 	nop
a08134e0:	3c02a081 	lui	v0,0xa081
a08134e4:	24446cb8 	addiu	a0,v0,27832
a08134e8:	8fc5001c 	lw	a1,28(s8)
a08134ec:	0c203ff7 	jal	a080ffdc <printf>
a08134f0:	00000000 	nop
a08134f4:	8fc30010 	lw	v1,16(s8)
a08134f8:	000317c3 	sra	v0,v1,0x1f
a08134fc:	000227c2 	srl	a0,v0,0x1f
a0813500:	00641021 	addu	v0,v1,a0
a0813504:	30420001 	andi	v0,v0,0x1
a0813508:	00441023 	subu	v0,v0,a0
a081350c:	afc20030 	sw	v0,48(s8)
a0813510:	8fc20030 	lw	v0,48(s8)
a0813514:	10400007 	beqz	v0,a0813534 <CaoCao+0x10c>
a0813518:	00000000 	nop
a081351c:	24020001 	li	v0,1
a0813520:	8fc30030 	lw	v1,48(s8)
a0813524:	10620030 	beq	v1,v0,a08135e8 <CaoCao+0x1c0>
a0813528:	00000000 	nop
a081352c:	08204da5 	j	a0813694 <CaoCao+0x26c>
a0813530:	00000000 	nop
a0813534:	00002021 	move	a0,zero
a0813538:	24050004 	li	a1,4
a081353c:	0c203788 	jal	a080de20 <sys_move_cursor>
a0813540:	00000000 	nop
a0813544:	8fc30024 	lw	v1,36(s8)
a0813548:	3c02a081 	lui	v0,0xa081
a081354c:	24446cdc 	addiu	a0,v0,27868
a0813550:	8fc5001c 	lw	a1,28(s8)
a0813554:	00603021 	move	a2,v1
a0813558:	0c203ff7 	jal	a080ffdc <printf>
a081355c:	00000000 	nop
a0813560:	24040001 	li	a0,1
a0813564:	0c203715 	jal	a080dc54 <sys_sleep>
a0813568:	00000000 	nop
a081356c:	00002021 	move	a0,zero
a0813570:	24050005 	li	a1,5
a0813574:	0c203788 	jal	a080de20 <sys_move_cursor>
a0813578:	00000000 	nop
a081357c:	3c02a081 	lui	v0,0xa081
a0813580:	24446d08 	addiu	a0,v0,27912
a0813584:	0c203ff7 	jal	a080ffdc <printf>
a0813588:	00000000 	nop
a081358c:	8fc20024 	lw	v0,36(s8)
a0813590:	00402021 	move	a0,v0
a0813594:	0c2038c9 	jal	a080e324 <sys_kill>
a0813598:	00000000 	nop
a081359c:	27c20024 	addiu	v0,s8,36
a08135a0:	8fc40018 	lw	a0,24(s8)
a08135a4:	00402821 	move	a1,v0
a08135a8:	24060004 	li	a2,4
a08135ac:	0c2041a4 	jal	a0810690 <mbox_recv>
a08135b0:	00000000 	nop
a08135b4:	00002021 	move	a0,zero
a08135b8:	24050006 	li	a1,6
a08135bc:	0c203788 	jal	a080de20 <sys_move_cursor>
a08135c0:	00000000 	nop
a08135c4:	8fc30024 	lw	v1,36(s8)
a08135c8:	3c02a081 	lui	v0,0xa081
a08135cc:	24446d44 	addiu	a0,v0,27972
a08135d0:	8fc5001c 	lw	a1,28(s8)
a08135d4:	00603021 	move	a2,v1
a08135d8:	0c203ff7 	jal	a080ffdc <printf>
a08135dc:	00000000 	nop
a08135e0:	08204da5 	j	a0813694 <CaoCao+0x26c>
a08135e4:	00000000 	nop
a08135e8:	00002021 	move	a0,zero
a08135ec:	24050004 	li	a1,4
a08135f0:	0c203788 	jal	a080de20 <sys_move_cursor>
a08135f4:	00000000 	nop
a08135f8:	8fc30028 	lw	v1,40(s8)
a08135fc:	3c02a081 	lui	v0,0xa081
a0813600:	24446d7c 	addiu	a0,v0,28028
a0813604:	8fc5001c 	lw	a1,28(s8)
a0813608:	00603021 	move	a2,v1
a081360c:	0c203ff7 	jal	a080ffdc <printf>
a0813610:	00000000 	nop
a0813614:	24040001 	li	a0,1
a0813618:	0c203715 	jal	a080dc54 <sys_sleep>
a081361c:	00000000 	nop
a0813620:	00002021 	move	a0,zero
a0813624:	24050005 	li	a1,5
a0813628:	0c203788 	jal	a080de20 <sys_move_cursor>
a081362c:	00000000 	nop
a0813630:	3c02a081 	lui	v0,0xa081
a0813634:	24446da4 	addiu	a0,v0,28068
a0813638:	0c203ff7 	jal	a080ffdc <printf>
a081363c:	00000000 	nop
a0813640:	8fc20028 	lw	v0,40(s8)
a0813644:	00402021 	move	a0,v0
a0813648:	0c2038c9 	jal	a080e324 <sys_kill>
a081364c:	00000000 	nop
a0813650:	00002021 	move	a0,zero
a0813654:	24050006 	li	a1,6
a0813658:	0c203788 	jal	a080de20 <sys_move_cursor>
a081365c:	00000000 	nop
a0813660:	27c20028 	addiu	v0,s8,40
a0813664:	8fc40014 	lw	a0,20(s8)
a0813668:	00402821 	move	a1,v0
a081366c:	24060004 	li	a2,4
a0813670:	0c2041a4 	jal	a0810690 <mbox_recv>
a0813674:	00000000 	nop
a0813678:	8fc30028 	lw	v1,40(s8)
a081367c:	3c02a081 	lui	v0,0xa081
a0813680:	24446ddc 	addiu	a0,v0,28124
a0813684:	8fc5001c 	lw	a1,28(s8)
a0813688:	00603021 	move	a2,v1
a081368c:	0c203ff7 	jal	a080ffdc <printf>
a0813690:	00000000 	nop
a0813694:	24040002 	li	a0,2
a0813698:	0c203715 	jal	a080dc54 <sys_sleep>
a081369c:	00000000 	nop
a08136a0:	8fc20010 	lw	v0,16(s8)
a08136a4:	24420001 	addiu	v0,v0,1
a08136a8:	afc20010 	sw	v0,16(s8)
a08136ac:	08204d28 	j	a08134a0 <CaoCao+0x78>
a08136b0:	00000000 	nop
	...

a08136c0 <semaphore_add_task1>:
a08136c0:	27bdffe0 	addiu	sp,sp,-32
a08136c4:	afbf001c 	sw	ra,28(sp)
a08136c8:	afbe0018 	sw	s8,24(sp)
a08136cc:	03a0f021 	move	s8,sp
a08136d0:	afc00010 	sw	zero,16(s8)
a08136d4:	3c02a085 	lui	v0,0xa085
a08136d8:	2444a0b4 	addiu	a0,v0,-24396
a08136dc:	24050001 	li	a1,1
a08136e0:	0c2037e0 	jal	a080df80 <semaphore_init>
a08136e4:	00000000 	nop
a08136e8:	afc00014 	sw	zero,20(s8)
a08136ec:	08204ddd 	j	a0813774 <semaphore_add_task1+0xb4>
a08136f0:	00000000 	nop
a08136f4:	3c02a085 	lui	v0,0xa085
a08136f8:	2444a0b4 	addiu	a0,v0,-24396
a08136fc:	0c203805 	jal	a080e014 <semaphore_down>
a0813700:	00000000 	nop
a0813704:	3c02a085 	lui	v0,0xa085
a0813708:	8c42a0b0 	lw	v0,-24400(v0)
a081370c:	24430001 	addiu	v1,v0,1
a0813710:	3c02a085 	lui	v0,0xa085
a0813714:	ac43a0b0 	sw	v1,-24400(v0)
a0813718:	3c02a085 	lui	v0,0xa085
a081371c:	2444a0b4 	addiu	a0,v0,-24396
a0813720:	0c2037f3 	jal	a080dfcc <semaphore_up>
a0813724:	00000000 	nop
a0813728:	00002021 	move	a0,zero
a081372c:	8fc50010 	lw	a1,16(s8)
a0813730:	0c203788 	jal	a080de20 <sys_move_cursor>
a0813734:	00000000 	nop
a0813738:	3c02a085 	lui	v0,0xa085
a081373c:	8c43a0b0 	lw	v1,-24400(v0)
a0813740:	8fc20014 	lw	v0,20(s8)
a0813744:	24460001 	addiu	a2,v0,1
a0813748:	3c02a081 	lui	v0,0xa081
a081374c:	24446e10 	addiu	a0,v0,28176
a0813750:	00602821 	move	a1,v1
a0813754:	0c203ff7 	jal	a080ffdc <printf>
a0813758:	00000000 	nop
a081375c:	24040001 	li	a0,1
a0813760:	0c203715 	jal	a080dc54 <sys_sleep>
a0813764:	00000000 	nop
a0813768:	8fc20014 	lw	v0,20(s8)
a081376c:	24420001 	addiu	v0,v0,1
a0813770:	afc20014 	sw	v0,20(s8)
a0813774:	8fc20014 	lw	v0,20(s8)
a0813778:	2842000a 	slti	v0,v0,10
a081377c:	1440ffdd 	bnez	v0,a08136f4 <semaphore_add_task1+0x34>
a0813780:	00000000 	nop
a0813784:	0c203898 	jal	a080e260 <sys_exit>
a0813788:	00000000 	nop
a081378c:	03c0e821 	move	sp,s8
a0813790:	8fbf001c 	lw	ra,28(sp)
a0813794:	8fbe0018 	lw	s8,24(sp)
a0813798:	27bd0020 	addiu	sp,sp,32
a081379c:	03e00008 	jr	ra
a08137a0:	00000000 	nop

a08137a4 <semaphore_add_task2>:
a08137a4:	27bdffe0 	addiu	sp,sp,-32
a08137a8:	afbf001c 	sw	ra,28(sp)
a08137ac:	afbe0018 	sw	s8,24(sp)
a08137b0:	03a0f021 	move	s8,sp
a08137b4:	24020001 	li	v0,1
a08137b8:	afc20010 	sw	v0,16(s8)
a08137bc:	afc00014 	sw	zero,20(s8)
a08137c0:	08204e12 	j	a0813848 <semaphore_add_task2+0xa4>
a08137c4:	00000000 	nop
a08137c8:	3c02a085 	lui	v0,0xa085
a08137cc:	2444a0b4 	addiu	a0,v0,-24396
a08137d0:	0c203805 	jal	a080e014 <semaphore_down>
a08137d4:	00000000 	nop
a08137d8:	3c02a085 	lui	v0,0xa085
a08137dc:	8c42a0b0 	lw	v0,-24400(v0)
a08137e0:	24430001 	addiu	v1,v0,1
a08137e4:	3c02a085 	lui	v0,0xa085
a08137e8:	ac43a0b0 	sw	v1,-24400(v0)
a08137ec:	3c02a085 	lui	v0,0xa085
a08137f0:	2444a0b4 	addiu	a0,v0,-24396
a08137f4:	0c2037f3 	jal	a080dfcc <semaphore_up>
a08137f8:	00000000 	nop
a08137fc:	00002021 	move	a0,zero
a0813800:	8fc50010 	lw	a1,16(s8)
a0813804:	0c203788 	jal	a080de20 <sys_move_cursor>
a0813808:	00000000 	nop
a081380c:	3c02a085 	lui	v0,0xa085
a0813810:	8c43a0b0 	lw	v1,-24400(v0)
a0813814:	8fc20014 	lw	v0,20(s8)
a0813818:	24460001 	addiu	a2,v0,1
a081381c:	3c02a081 	lui	v0,0xa081
a0813820:	24446e10 	addiu	a0,v0,28176
a0813824:	00602821 	move	a1,v1
a0813828:	0c203ff7 	jal	a080ffdc <printf>
a081382c:	00000000 	nop
a0813830:	24040001 	li	a0,1
a0813834:	0c203715 	jal	a080dc54 <sys_sleep>
a0813838:	00000000 	nop
a081383c:	8fc20014 	lw	v0,20(s8)
a0813840:	24420001 	addiu	v0,v0,1
a0813844:	afc20014 	sw	v0,20(s8)
a0813848:	8fc20014 	lw	v0,20(s8)
a081384c:	28420014 	slti	v0,v0,20
a0813850:	1440ffdd 	bnez	v0,a08137c8 <semaphore_add_task2+0x24>
a0813854:	00000000 	nop
a0813858:	0c203898 	jal	a080e260 <sys_exit>
a081385c:	00000000 	nop
a0813860:	03c0e821 	move	sp,s8
a0813864:	8fbf001c 	lw	ra,28(sp)
a0813868:	8fbe0018 	lw	s8,24(sp)
a081386c:	27bd0020 	addiu	sp,sp,32
a0813870:	03e00008 	jr	ra
a0813874:	00000000 	nop

a0813878 <semaphore_add_task3>:
a0813878:	27bdffe0 	addiu	sp,sp,-32
a081387c:	afbf001c 	sw	ra,28(sp)
a0813880:	afbe0018 	sw	s8,24(sp)
a0813884:	03a0f021 	move	s8,sp
a0813888:	24020002 	li	v0,2
a081388c:	afc20010 	sw	v0,16(s8)
a0813890:	afc00014 	sw	zero,20(s8)
a0813894:	08204e47 	j	a081391c <semaphore_add_task3+0xa4>
a0813898:	00000000 	nop
a081389c:	3c02a085 	lui	v0,0xa085
a08138a0:	2444a0b4 	addiu	a0,v0,-24396
a08138a4:	0c203805 	jal	a080e014 <semaphore_down>
a08138a8:	00000000 	nop
a08138ac:	3c02a085 	lui	v0,0xa085
a08138b0:	8c42a0b0 	lw	v0,-24400(v0)
a08138b4:	24430001 	addiu	v1,v0,1
a08138b8:	3c02a085 	lui	v0,0xa085
a08138bc:	ac43a0b0 	sw	v1,-24400(v0)
a08138c0:	3c02a085 	lui	v0,0xa085
a08138c4:	2444a0b4 	addiu	a0,v0,-24396
a08138c8:	0c2037f3 	jal	a080dfcc <semaphore_up>
a08138cc:	00000000 	nop
a08138d0:	00002021 	move	a0,zero
a08138d4:	8fc50010 	lw	a1,16(s8)
a08138d8:	0c203788 	jal	a080de20 <sys_move_cursor>
a08138dc:	00000000 	nop
a08138e0:	3c02a085 	lui	v0,0xa085
a08138e4:	8c43a0b0 	lw	v1,-24400(v0)
a08138e8:	8fc20014 	lw	v0,20(s8)
a08138ec:	24460001 	addiu	a2,v0,1
a08138f0:	3c02a081 	lui	v0,0xa081
a08138f4:	24446e10 	addiu	a0,v0,28176
a08138f8:	00602821 	move	a1,v1
a08138fc:	0c203ff7 	jal	a080ffdc <printf>
a0813900:	00000000 	nop
a0813904:	24040001 	li	a0,1
a0813908:	0c203715 	jal	a080dc54 <sys_sleep>
a081390c:	00000000 	nop
a0813910:	8fc20014 	lw	v0,20(s8)
a0813914:	24420001 	addiu	v0,v0,1
a0813918:	afc20014 	sw	v0,20(s8)
a081391c:	8fc20014 	lw	v0,20(s8)
a0813920:	2842001e 	slti	v0,v0,30
a0813924:	1440ffdd 	bnez	v0,a081389c <semaphore_add_task3+0x24>
a0813928:	00000000 	nop
a081392c:	0c203898 	jal	a080e260 <sys_exit>
a0813930:	00000000 	nop
a0813934:	03c0e821 	move	sp,s8
a0813938:	8fbf001c 	lw	ra,28(sp)
a081393c:	8fbe0018 	lw	s8,24(sp)
a0813940:	27bd0020 	addiu	sp,sp,32
a0813944:	03e00008 	jr	ra
a0813948:	00000000 	nop
a081394c:	00000000 	nop

a0813950 <drawing_task4_1>:
a0813950:	27bdffe0 	addiu	sp,sp,-32
a0813954:	afbf001c 	sw	ra,28(sp)
a0813958:	afbe0018 	sw	s8,24(sp)
a081395c:	03a0f021 	move	s8,sp
a0813960:	24020016 	li	v0,22
a0813964:	afc20014 	sw	v0,20(s8)
a0813968:	2402000a 	li	v0,10
a081396c:	afc20010 	sw	v0,16(s8)
a0813970:	2402003c 	li	v0,60
a0813974:	afc20014 	sw	v0,20(s8)
a0813978:	08204e91 	j	a0813a44 <drawing_task4_1+0xf4>
a081397c:	00000000 	nop
a0813980:	8fc40014 	lw	a0,20(s8)
a0813984:	8fc50010 	lw	a1,16(s8)
a0813988:	0c203788 	jal	a080de20 <sys_move_cursor>
a081398c:	00000000 	nop
a0813990:	3c02a081 	lui	v0,0xa081
a0813994:	24446e40 	addiu	a0,v0,28224
a0813998:	3c02a081 	lui	v0,0xa081
a081399c:	24457534 	addiu	a1,v0,30004
a08139a0:	0c203ff7 	jal	a080ffdc <printf>
a08139a4:	00000000 	nop
a08139a8:	8fc20010 	lw	v0,16(s8)
a08139ac:	24420001 	addiu	v0,v0,1
a08139b0:	8fc40014 	lw	a0,20(s8)
a08139b4:	00402821 	move	a1,v0
a08139b8:	0c203788 	jal	a080de20 <sys_move_cursor>
a08139bc:	00000000 	nop
a08139c0:	3c02a081 	lui	v0,0xa081
a08139c4:	24446e40 	addiu	a0,v0,28224
a08139c8:	3c02a081 	lui	v0,0xa081
a08139cc:	24457548 	addiu	a1,v0,30024
a08139d0:	0c203ff7 	jal	a080ffdc <printf>
a08139d4:	00000000 	nop
a08139d8:	8fc20010 	lw	v0,16(s8)
a08139dc:	24420002 	addiu	v0,v0,2
a08139e0:	8fc40014 	lw	a0,20(s8)
a08139e4:	00402821 	move	a1,v0
a08139e8:	0c203788 	jal	a080de20 <sys_move_cursor>
a08139ec:	00000000 	nop
a08139f0:	3c02a081 	lui	v0,0xa081
a08139f4:	24446e40 	addiu	a0,v0,28224
a08139f8:	3c02a081 	lui	v0,0xa081
a08139fc:	2445755c 	addiu	a1,v0,30044
a0813a00:	0c203ff7 	jal	a080ffdc <printf>
a0813a04:	00000000 	nop
a0813a08:	8fc20010 	lw	v0,16(s8)
a0813a0c:	24420003 	addiu	v0,v0,3
a0813a10:	8fc40014 	lw	a0,20(s8)
a0813a14:	00402821 	move	a1,v0
a0813a18:	0c203788 	jal	a080de20 <sys_move_cursor>
a0813a1c:	00000000 	nop
a0813a20:	3c02a081 	lui	v0,0xa081
a0813a24:	24446e40 	addiu	a0,v0,28224
a0813a28:	3c02a081 	lui	v0,0xa081
a0813a2c:	24457570 	addiu	a1,v0,30064
a0813a30:	0c203ff7 	jal	a080ffdc <printf>
a0813a34:	00000000 	nop
a0813a38:	8fc20014 	lw	v0,20(s8)
a0813a3c:	2442ffff 	addiu	v0,v0,-1
a0813a40:	afc20014 	sw	v0,20(s8)
a0813a44:	8fc20014 	lw	v0,20(s8)
a0813a48:	1c40ffcd 	bgtz	v0,a0813980 <drawing_task4_1+0x30>
a0813a4c:	00000000 	nop
a0813a50:	24040001 	li	a0,1
a0813a54:	8fc50010 	lw	a1,16(s8)
a0813a58:	0c203788 	jal	a080de20 <sys_move_cursor>
a0813a5c:	00000000 	nop
a0813a60:	3c02a081 	lui	v0,0xa081
a0813a64:	24446e40 	addiu	a0,v0,28224
a0813a68:	3c02a081 	lui	v0,0xa081
a0813a6c:	24457520 	addiu	a1,v0,29984
a0813a70:	0c203ff7 	jal	a080ffdc <printf>
a0813a74:	00000000 	nop
a0813a78:	8fc20010 	lw	v0,16(s8)
a0813a7c:	24420001 	addiu	v0,v0,1
a0813a80:	24040001 	li	a0,1
a0813a84:	00402821 	move	a1,v0
a0813a88:	0c203788 	jal	a080de20 <sys_move_cursor>
a0813a8c:	00000000 	nop
a0813a90:	3c02a081 	lui	v0,0xa081
a0813a94:	24446e40 	addiu	a0,v0,28224
a0813a98:	3c02a081 	lui	v0,0xa081
a0813a9c:	24457520 	addiu	a1,v0,29984
a0813aa0:	0c203ff7 	jal	a080ffdc <printf>
a0813aa4:	00000000 	nop
a0813aa8:	8fc20010 	lw	v0,16(s8)
a0813aac:	24420002 	addiu	v0,v0,2
a0813ab0:	24040001 	li	a0,1
a0813ab4:	00402821 	move	a1,v0
a0813ab8:	0c203788 	jal	a080de20 <sys_move_cursor>
a0813abc:	00000000 	nop
a0813ac0:	3c02a081 	lui	v0,0xa081
a0813ac4:	24446e40 	addiu	a0,v0,28224
a0813ac8:	3c02a081 	lui	v0,0xa081
a0813acc:	24457520 	addiu	a1,v0,29984
a0813ad0:	0c203ff7 	jal	a080ffdc <printf>
a0813ad4:	00000000 	nop
a0813ad8:	8fc20010 	lw	v0,16(s8)
a0813adc:	24420003 	addiu	v0,v0,3
a0813ae0:	24040001 	li	a0,1
a0813ae4:	00402821 	move	a1,v0
a0813ae8:	0c203788 	jal	a080de20 <sys_move_cursor>
a0813aec:	00000000 	nop
a0813af0:	3c02a081 	lui	v0,0xa081
a0813af4:	24446e40 	addiu	a0,v0,28224
a0813af8:	3c02a081 	lui	v0,0xa081
a0813afc:	24457520 	addiu	a1,v0,29984
a0813b00:	0c203ff7 	jal	a080ffdc <printf>
a0813b04:	00000000 	nop
a0813b08:	08204e5c 	j	a0813970 <drawing_task4_1+0x20>
a0813b0c:	00000000 	nop

a0813b10 <rand>:
a0813b10:	27bdffd8 	addiu	sp,sp,-40
a0813b14:	afbf0024 	sw	ra,36(sp)
a0813b18:	afbe0020 	sw	s8,32(sp)
a0813b1c:	03a0f021 	move	s8,sp
a0813b20:	0c202264 	jal	a0808990 <get_ticks>
a0813b24:	00000000 	nop
a0813b28:	afc20010 	sw	v0,16(s8)
a0813b2c:	8fc40010 	lw	a0,16(s8)
a0813b30:	3c021062 	lui	v0,0x1062
a0813b34:	34424dd3 	ori	v0,v0,0x4dd3
a0813b38:	00820018 	mult	a0,v0
a0813b3c:	00001010 	mfhi	v0
a0813b40:	00021983 	sra	v1,v0,0x6
a0813b44:	000417c3 	sra	v0,a0,0x1f
a0813b48:	00621023 	subu	v0,v1,v0
a0813b4c:	afc20018 	sw	v0,24(s8)
a0813b50:	8fc20018 	lw	v0,24(s8)
a0813b54:	00021880 	sll	v1,v0,0x2
a0813b58:	00031140 	sll	v0,v1,0x5
a0813b5c:	00431023 	subu	v0,v0,v1
a0813b60:	8fc30018 	lw	v1,24(s8)
a0813b64:	00431021 	addu	v0,v0,v1
a0813b68:	000210c0 	sll	v0,v0,0x3
a0813b6c:	00821023 	subu	v0,a0,v0
a0813b70:	afc20018 	sw	v0,24(s8)
a0813b74:	8fc20018 	lw	v0,24(s8)
a0813b78:	03c0e821 	move	sp,s8
a0813b7c:	8fbf0024 	lw	ra,36(sp)
a0813b80:	8fbe0020 	lw	s8,32(sp)
a0813b84:	27bd0028 	addiu	sp,sp,40
a0813b88:	03e00008 	jr	ra
a0813b8c:	00000000 	nop

a0813b90 <rw_task4_1>:
a0813b90:	27bdffb8 	addiu	sp,sp,-72
a0813b94:	afbf0044 	sw	ra,68(sp)
a0813b98:	afbe0040 	sw	s8,64(sp)
a0813b9c:	03a0f021 	move	s8,sp
a0813ba0:	afc00018 	sw	zero,24(s8)
a0813ba4:	3c02a081 	lui	v0,0xa081
a0813ba8:	8c4272e0 	lw	v0,29408(v0)
a0813bac:	00402021 	move	a0,v0
a0813bb0:	0c2041fb 	jal	a08107ec <init_InputBuffer_s>
a0813bb4:	00000000 	nop
a0813bb8:	24040001 	li	a0,1
a0813bbc:	00002821 	move	a1,zero
a0813bc0:	0c203788 	jal	a080de20 <sys_move_cursor>
a0813bc4:	00000000 	nop
a0813bc8:	3c02a081 	lui	v0,0xa081
a0813bcc:	24446e50 	addiu	a0,v0,28240
a0813bd0:	0c203ff7 	jal	a080ffdc <printf>
a0813bd4:	00000000 	nop
a0813bd8:	08204efd 	j	a0813bf4 <rw_task4_1+0x64>
a0813bdc:	00000000 	nop
a0813be0:	3c02a081 	lui	v0,0xa081
a0813be4:	24446e64 	addiu	a0,v0,28260
a0813be8:	8fc50014 	lw	a1,20(s8)
a0813bec:	0c203ff7 	jal	a080ffdc <printf>
a0813bf0:	00000000 	nop
a0813bf4:	27c20028 	addiu	v0,s8,40
a0813bf8:	00402021 	move	a0,v0
a0813bfc:	0c2038ea 	jal	a080e3a8 <sys_scanf>
a0813c00:	00000000 	nop
a0813c04:	afc20014 	sw	v0,20(s8)
a0813c08:	8fc30014 	lw	v1,20(s8)
a0813c0c:	2402000d 	li	v0,13
a0813c10:	1462fff3 	bne	v1,v0,a0813be0 <rw_task4_1+0x50>
a0813c14:	00000000 	nop
a0813c18:	24040001 	li	a0,1
a0813c1c:	24050001 	li	a1,1
a0813c20:	0c203788 	jal	a080de20 <sys_move_cursor>
a0813c24:	00000000 	nop
a0813c28:	0c204ec4 	jal	a0813b10 <rand>
a0813c2c:	00000000 	nop
a0813c30:	afc20024 	sw	v0,36(s8)
a0813c34:	8fc20024 	lw	v0,36(s8)
a0813c38:	afc20030 	sw	v0,48(s8)
a0813c3c:	3c02a081 	lui	v0,0xa081
a0813c40:	24446e68 	addiu	a0,v0,28264
a0813c44:	8fc50024 	lw	a1,36(s8)
a0813c48:	0c203ff7 	jal	a080ffdc <printf>
a0813c4c:	00000000 	nop
a0813c50:	24040001 	li	a0,1
a0813c54:	24050002 	li	a1,2
a0813c58:	0c203788 	jal	a080de20 <sys_move_cursor>
a0813c5c:	00000000 	nop
a0813c60:	8fc20028 	lw	v0,40(s8)
a0813c64:	00401821 	move	v1,v0
a0813c68:	8fc20024 	lw	v0,36(s8)
a0813c6c:	ac620000 	sw	v0,0(v1)
a0813c70:	8fc30028 	lw	v1,40(s8)
a0813c74:	3c02a081 	lui	v0,0xa081
a0813c78:	24446e7c 	addiu	a0,v0,28284
a0813c7c:	8fc50024 	lw	a1,36(s8)
a0813c80:	00603021 	move	a2,v1
a0813c84:	0c203ff7 	jal	a080ffdc <printf>
a0813c88:	00000000 	nop
a0813c8c:	24040001 	li	a0,1
a0813c90:	24050003 	li	a1,3
a0813c94:	0c203788 	jal	a080de20 <sys_move_cursor>
a0813c98:	00000000 	nop
a0813c9c:	3c02a081 	lui	v0,0xa081
a0813ca0:	24446ea4 	addiu	a0,v0,28324
a0813ca4:	0c203ff7 	jal	a080ffdc <printf>
a0813ca8:	00000000 	nop
a0813cac:	08204f32 	j	a0813cc8 <rw_task4_1+0x138>
a0813cb0:	00000000 	nop
a0813cb4:	3c02a081 	lui	v0,0xa081
a0813cb8:	24446e64 	addiu	a0,v0,28260
a0813cbc:	8fc50014 	lw	a1,20(s8)
a0813cc0:	0c203ff7 	jal	a080ffdc <printf>
a0813cc4:	00000000 	nop
a0813cc8:	27c2002c 	addiu	v0,s8,44
a0813ccc:	00402021 	move	a0,v0
a0813cd0:	0c2038ea 	jal	a080e3a8 <sys_scanf>
a0813cd4:	00000000 	nop
a0813cd8:	afc20014 	sw	v0,20(s8)
a0813cdc:	8fc30014 	lw	v1,20(s8)
a0813ce0:	2402000d 	li	v0,13
a0813ce4:	1462fff3 	bne	v1,v0,a0813cb4 <rw_task4_1+0x124>
a0813ce8:	00000000 	nop
a0813cec:	24040001 	li	a0,1
a0813cf0:	24050004 	li	a1,4
a0813cf4:	0c203788 	jal	a080de20 <sys_move_cursor>
a0813cf8:	00000000 	nop
a0813cfc:	0c204ec4 	jal	a0813b10 <rand>
a0813d00:	00000000 	nop
a0813d04:	afc20020 	sw	v0,32(s8)
a0813d08:	8fc20020 	lw	v0,32(s8)
a0813d0c:	afc20034 	sw	v0,52(s8)
a0813d10:	3c02a081 	lui	v0,0xa081
a0813d14:	24446e68 	addiu	a0,v0,28264
a0813d18:	8fc50020 	lw	a1,32(s8)
a0813d1c:	0c203ff7 	jal	a080ffdc <printf>
a0813d20:	00000000 	nop
a0813d24:	24040001 	li	a0,1
a0813d28:	24050005 	li	a1,5
a0813d2c:	0c203788 	jal	a080de20 <sys_move_cursor>
a0813d30:	00000000 	nop
a0813d34:	8fc2002c 	lw	v0,44(s8)
a0813d38:	00401821 	move	v1,v0
a0813d3c:	8fc20020 	lw	v0,32(s8)
a0813d40:	ac620000 	sw	v0,0(v1)
a0813d44:	8fc3002c 	lw	v1,44(s8)
a0813d48:	3c02a081 	lui	v0,0xa081
a0813d4c:	24446eb8 	addiu	a0,v0,28344
a0813d50:	8fc50020 	lw	a1,32(s8)
a0813d54:	00603021 	move	a2,v1
a0813d58:	0c203ff7 	jal	a080ffdc <printf>
a0813d5c:	00000000 	nop
a0813d60:	24040001 	li	a0,1
a0813d64:	24050006 	li	a1,6
a0813d68:	0c203788 	jal	a080de20 <sys_move_cursor>
a0813d6c:	00000000 	nop
a0813d70:	3c02a081 	lui	v0,0xa081
a0813d74:	24446ee0 	addiu	a0,v0,28384
a0813d78:	0c203ff7 	jal	a080ffdc <printf>
a0813d7c:	00000000 	nop
a0813d80:	08204f67 	j	a0813d9c <rw_task4_1+0x20c>
a0813d84:	00000000 	nop
a0813d88:	3c02a081 	lui	v0,0xa081
a0813d8c:	24446e64 	addiu	a0,v0,28260
a0813d90:	8fc50014 	lw	a1,20(s8)
a0813d94:	0c203ff7 	jal	a080ffdc <printf>
a0813d98:	00000000 	nop
a0813d9c:	27c20028 	addiu	v0,s8,40
a0813da0:	00402021 	move	a0,v0
a0813da4:	0c2038ea 	jal	a080e3a8 <sys_scanf>
a0813da8:	00000000 	nop
a0813dac:	afc20014 	sw	v0,20(s8)
a0813db0:	8fc30014 	lw	v1,20(s8)
a0813db4:	2402000d 	li	v0,13
a0813db8:	1462fff3 	bne	v1,v0,a0813d88 <rw_task4_1+0x1f8>
a0813dbc:	00000000 	nop
a0813dc0:	24040001 	li	a0,1
a0813dc4:	24050007 	li	a1,7
a0813dc8:	0c203788 	jal	a080de20 <sys_move_cursor>
a0813dcc:	00000000 	nop
a0813dd0:	8fc20028 	lw	v0,40(s8)
a0813dd4:	8c420000 	lw	v0,0(v0)
a0813dd8:	afc20038 	sw	v0,56(s8)
a0813ddc:	8fc30038 	lw	v1,56(s8)
a0813de0:	8fc20030 	lw	v0,48(s8)
a0813de4:	14620009 	bne	v1,v0,a0813e0c <rw_task4_1+0x27c>
a0813de8:	00000000 	nop
a0813dec:	8fc30038 	lw	v1,56(s8)
a0813df0:	3c02a081 	lui	v0,0xa081
a0813df4:	24446ef4 	addiu	a0,v0,28404
a0813df8:	00602821 	move	a1,v1
a0813dfc:	0c203ff7 	jal	a080ffdc <printf>
a0813e00:	00000000 	nop
a0813e04:	08204f89 	j	a0813e24 <rw_task4_1+0x294>
a0813e08:	00000000 	nop
a0813e0c:	8fc30038 	lw	v1,56(s8)
a0813e10:	3c02a081 	lui	v0,0xa081
a0813e14:	24446f08 	addiu	a0,v0,28424
a0813e18:	00602821 	move	a1,v1
a0813e1c:	0c203ff7 	jal	a080ffdc <printf>
a0813e20:	00000000 	nop
a0813e24:	24040001 	li	a0,1
a0813e28:	24050008 	li	a1,8
a0813e2c:	0c203788 	jal	a080de20 <sys_move_cursor>
a0813e30:	00000000 	nop
a0813e34:	3c02a081 	lui	v0,0xa081
a0813e38:	24446f18 	addiu	a0,v0,28440
a0813e3c:	0c203ff7 	jal	a080ffdc <printf>
a0813e40:	00000000 	nop
a0813e44:	08204f98 	j	a0813e60 <rw_task4_1+0x2d0>
a0813e48:	00000000 	nop
a0813e4c:	3c02a081 	lui	v0,0xa081
a0813e50:	24446e64 	addiu	a0,v0,28260
a0813e54:	8fc50014 	lw	a1,20(s8)
a0813e58:	0c203ff7 	jal	a080ffdc <printf>
a0813e5c:	00000000 	nop
a0813e60:	27c20028 	addiu	v0,s8,40
a0813e64:	00402021 	move	a0,v0
a0813e68:	0c2038ea 	jal	a080e3a8 <sys_scanf>
a0813e6c:	00000000 	nop
a0813e70:	afc20014 	sw	v0,20(s8)
a0813e74:	8fc30014 	lw	v1,20(s8)
a0813e78:	2402000d 	li	v0,13
a0813e7c:	1462fff3 	bne	v1,v0,a0813e4c <rw_task4_1+0x2bc>
a0813e80:	00000000 	nop
a0813e84:	24040001 	li	a0,1
a0813e88:	24050009 	li	a1,9
a0813e8c:	0c203788 	jal	a080de20 <sys_move_cursor>
a0813e90:	00000000 	nop
a0813e94:	8fc20028 	lw	v0,40(s8)
a0813e98:	8c420000 	lw	v0,0(v0)
a0813e9c:	afc2003c 	sw	v0,60(s8)
a0813ea0:	8fc3003c 	lw	v1,60(s8)
a0813ea4:	8fc20034 	lw	v0,52(s8)
a0813ea8:	14620009 	bne	v1,v0,a0813ed0 <rw_task4_1+0x340>
a0813eac:	00000000 	nop
a0813eb0:	8fc3003c 	lw	v1,60(s8)
a0813eb4:	3c02a081 	lui	v0,0xa081
a0813eb8:	24446ef4 	addiu	a0,v0,28404
a0813ebc:	00602821 	move	a1,v1
a0813ec0:	0c203ff7 	jal	a080ffdc <printf>
a0813ec4:	00000000 	nop
a0813ec8:	08204fba 	j	a0813ee8 <rw_task4_1+0x358>
a0813ecc:	00000000 	nop
a0813ed0:	8fc3003c 	lw	v1,60(s8)
a0813ed4:	3c02a081 	lui	v0,0xa081
a0813ed8:	24446f08 	addiu	a0,v0,28424
a0813edc:	00602821 	move	a1,v1
a0813ee0:	0c203ff7 	jal	a080ffdc <printf>
a0813ee4:	00000000 	nop
a0813ee8:	24040001 	li	a0,1
a0813eec:	2405000a 	li	a1,10
a0813ef0:	0c203788 	jal	a080de20 <sys_move_cursor>
a0813ef4:	00000000 	nop
a0813ef8:	0c2014c7 	jal	a080531c <read_tlb_1>
a0813efc:	00000000 	nop
a0813f00:	08204fc0 	j	a0813f00 <rw_task4_1+0x370>
a0813f04:	00000000 	nop
	...

a0813f10 <drawing_task4_2>:
a0813f10:	27bdffe0 	addiu	sp,sp,-32
a0813f14:	afbf001c 	sw	ra,28(sp)
a0813f18:	afbe0018 	sw	s8,24(sp)
a0813f1c:	03a0f021 	move	s8,sp
a0813f20:	24020016 	li	v0,22
a0813f24:	afc20014 	sw	v0,20(s8)
a0813f28:	2402000a 	li	v0,10
a0813f2c:	afc20010 	sw	v0,16(s8)
a0813f30:	24040001 	li	a0,1
a0813f34:	2405000d 	li	a1,13
a0813f38:	0c203788 	jal	a080de20 <sys_move_cursor>
a0813f3c:	00000000 	nop
a0813f40:	0c2014c7 	jal	a080531c <read_tlb_1>
a0813f44:	00000000 	nop
a0813f48:	24040001 	li	a0,1
a0813f4c:	2405000b 	li	a1,11
a0813f50:	0c203788 	jal	a080de20 <sys_move_cursor>
a0813f54:	00000000 	nop
a0813f58:	3c02a082 	lui	v0,0xa082
a0813f5c:	8c43a078 	lw	v1,-24456(v0)
a0813f60:	3c02a081 	lui	v0,0xa081
a0813f64:	24446f30 	addiu	a0,v0,28464
a0813f68:	00602821 	move	a1,v1
a0813f6c:	0c203ff7 	jal	a080ffdc <printf>
a0813f70:	00000000 	nop
a0813f74:	24040001 	li	a0,1
a0813f78:	2405000c 	li	a1,12
a0813f7c:	0c203788 	jal	a080de20 <sys_move_cursor>
a0813f80:	00000000 	nop
a0813f84:	3c02a082 	lui	v0,0xa082
a0813f88:	8c43a07c 	lw	v1,-24452(v0)
a0813f8c:	3c02a081 	lui	v0,0xa081
a0813f90:	24446f48 	addiu	a0,v0,28488
a0813f94:	00602821 	move	a1,v1
a0813f98:	0c203ff7 	jal	a080ffdc <printf>
a0813f9c:	00000000 	nop
a0813fa0:	2402003c 	li	v0,60
a0813fa4:	afc20014 	sw	v0,20(s8)
a0813fa8:	0820501d 	j	a0814074 <drawing_task4_2+0x164>
a0813fac:	00000000 	nop
a0813fb0:	8fc40014 	lw	a0,20(s8)
a0813fb4:	8fc50010 	lw	a1,16(s8)
a0813fb8:	0c203788 	jal	a080de20 <sys_move_cursor>
a0813fbc:	00000000 	nop
a0813fc0:	3c02a081 	lui	v0,0xa081
a0813fc4:	24446f60 	addiu	a0,v0,28512
a0813fc8:	3c02a081 	lui	v0,0xa081
a0813fcc:	244575a4 	addiu	a1,v0,30116
a0813fd0:	0c203ff7 	jal	a080ffdc <printf>
a0813fd4:	00000000 	nop
a0813fd8:	8fc20010 	lw	v0,16(s8)
a0813fdc:	24420001 	addiu	v0,v0,1
a0813fe0:	8fc40014 	lw	a0,20(s8)
a0813fe4:	00402821 	move	a1,v0
a0813fe8:	0c203788 	jal	a080de20 <sys_move_cursor>
a0813fec:	00000000 	nop
a0813ff0:	3c02a081 	lui	v0,0xa081
a0813ff4:	24446f60 	addiu	a0,v0,28512
a0813ff8:	3c02a081 	lui	v0,0xa081
a0813ffc:	244575b8 	addiu	a1,v0,30136
a0814000:	0c203ff7 	jal	a080ffdc <printf>
a0814004:	00000000 	nop
a0814008:	8fc20010 	lw	v0,16(s8)
a081400c:	24420002 	addiu	v0,v0,2
a0814010:	8fc40014 	lw	a0,20(s8)
a0814014:	00402821 	move	a1,v0
a0814018:	0c203788 	jal	a080de20 <sys_move_cursor>
a081401c:	00000000 	nop
a0814020:	3c02a081 	lui	v0,0xa081
a0814024:	24446f60 	addiu	a0,v0,28512
a0814028:	3c02a081 	lui	v0,0xa081
a081402c:	244575cc 	addiu	a1,v0,30156
a0814030:	0c203ff7 	jal	a080ffdc <printf>
a0814034:	00000000 	nop
a0814038:	8fc20010 	lw	v0,16(s8)
a081403c:	24420003 	addiu	v0,v0,3
a0814040:	8fc40014 	lw	a0,20(s8)
a0814044:	00402821 	move	a1,v0
a0814048:	0c203788 	jal	a080de20 <sys_move_cursor>
a081404c:	00000000 	nop
a0814050:	3c02a081 	lui	v0,0xa081
a0814054:	24446f60 	addiu	a0,v0,28512
a0814058:	3c02a081 	lui	v0,0xa081
a081405c:	244575e0 	addiu	a1,v0,30176
a0814060:	0c203ff7 	jal	a080ffdc <printf>
a0814064:	00000000 	nop
a0814068:	8fc20014 	lw	v0,20(s8)
a081406c:	2442ffff 	addiu	v0,v0,-1
a0814070:	afc20014 	sw	v0,20(s8)
a0814074:	8fc20014 	lw	v0,20(s8)
a0814078:	1c40ffcd 	bgtz	v0,a0813fb0 <drawing_task4_2+0xa0>
a081407c:	00000000 	nop
a0814080:	24040001 	li	a0,1
a0814084:	8fc50010 	lw	a1,16(s8)
a0814088:	0c203788 	jal	a080de20 <sys_move_cursor>
a081408c:	00000000 	nop
a0814090:	3c02a081 	lui	v0,0xa081
a0814094:	24446f60 	addiu	a0,v0,28512
a0814098:	3c02a081 	lui	v0,0xa081
a081409c:	24457590 	addiu	a1,v0,30096
a08140a0:	0c203ff7 	jal	a080ffdc <printf>
a08140a4:	00000000 	nop
a08140a8:	8fc20010 	lw	v0,16(s8)
a08140ac:	24420001 	addiu	v0,v0,1
a08140b0:	24040001 	li	a0,1
a08140b4:	00402821 	move	a1,v0
a08140b8:	0c203788 	jal	a080de20 <sys_move_cursor>
a08140bc:	00000000 	nop
a08140c0:	3c02a081 	lui	v0,0xa081
a08140c4:	24446f60 	addiu	a0,v0,28512
a08140c8:	3c02a081 	lui	v0,0xa081
a08140cc:	24457590 	addiu	a1,v0,30096
a08140d0:	0c203ff7 	jal	a080ffdc <printf>
a08140d4:	00000000 	nop
a08140d8:	8fc20010 	lw	v0,16(s8)
a08140dc:	24420002 	addiu	v0,v0,2
a08140e0:	24040001 	li	a0,1
a08140e4:	00402821 	move	a1,v0
a08140e8:	0c203788 	jal	a080de20 <sys_move_cursor>
a08140ec:	00000000 	nop
a08140f0:	3c02a081 	lui	v0,0xa081
a08140f4:	24446f60 	addiu	a0,v0,28512
a08140f8:	3c02a081 	lui	v0,0xa081
a08140fc:	24457590 	addiu	a1,v0,30096
a0814100:	0c203ff7 	jal	a080ffdc <printf>
a0814104:	00000000 	nop
a0814108:	8fc20010 	lw	v0,16(s8)
a081410c:	24420003 	addiu	v0,v0,3
a0814110:	24040001 	li	a0,1
a0814114:	00402821 	move	a1,v0
a0814118:	0c203788 	jal	a080de20 <sys_move_cursor>
a081411c:	00000000 	nop
a0814120:	3c02a081 	lui	v0,0xa081
a0814124:	24446f60 	addiu	a0,v0,28512
a0814128:	3c02a081 	lui	v0,0xa081
a081412c:	24457590 	addiu	a1,v0,30096
a0814130:	0c203ff7 	jal	a080ffdc <printf>
a0814134:	00000000 	nop
a0814138:	24040001 	li	a0,1
a081413c:	2405000d 	li	a1,13
a0814140:	0c203788 	jal	a080de20 <sys_move_cursor>
a0814144:	00000000 	nop
a0814148:	0c2014c7 	jal	a080531c <read_tlb_1>
a081414c:	00000000 	nop
a0814150:	24040001 	li	a0,1
a0814154:	2405000b 	li	a1,11
a0814158:	0c203788 	jal	a080de20 <sys_move_cursor>
a081415c:	00000000 	nop
a0814160:	3c02a082 	lui	v0,0xa082
a0814164:	8c43a078 	lw	v1,-24456(v0)
a0814168:	3c02a081 	lui	v0,0xa081
a081416c:	24446f30 	addiu	a0,v0,28464
a0814170:	00602821 	move	a1,v1
a0814174:	0c203ff7 	jal	a080ffdc <printf>
a0814178:	00000000 	nop
a081417c:	24040001 	li	a0,1
a0814180:	2405000c 	li	a1,12
a0814184:	0c203788 	jal	a080de20 <sys_move_cursor>
a0814188:	00000000 	nop
a081418c:	3c02a082 	lui	v0,0xa082
a0814190:	8c43a07c 	lw	v1,-24452(v0)
a0814194:	3c02a081 	lui	v0,0xa081
a0814198:	24446f48 	addiu	a0,v0,28488
a081419c:	00602821 	move	a1,v1
a08141a0:	0c203ff7 	jal	a080ffdc <printf>
a08141a4:	00000000 	nop
a08141a8:	08204fe8 	j	a0813fa0 <drawing_task4_2+0x90>
a08141ac:	00000000 	nop

a08141b0 <rand>:
a08141b0:	27bdffd8 	addiu	sp,sp,-40
a08141b4:	afbf0024 	sw	ra,36(sp)
a08141b8:	afbe0020 	sw	s8,32(sp)
a08141bc:	03a0f021 	move	s8,sp
a08141c0:	0c202264 	jal	a0808990 <get_ticks>
a08141c4:	00000000 	nop
a08141c8:	afc20010 	sw	v0,16(s8)
a08141cc:	8fc40010 	lw	a0,16(s8)
a08141d0:	3c021062 	lui	v0,0x1062
a08141d4:	34424dd3 	ori	v0,v0,0x4dd3
a08141d8:	00820018 	mult	a0,v0
a08141dc:	00001010 	mfhi	v0
a08141e0:	00021983 	sra	v1,v0,0x6
a08141e4:	000417c3 	sra	v0,a0,0x1f
a08141e8:	00621023 	subu	v0,v1,v0
a08141ec:	afc20018 	sw	v0,24(s8)
a08141f0:	8fc20018 	lw	v0,24(s8)
a08141f4:	00021880 	sll	v1,v0,0x2
a08141f8:	00031140 	sll	v0,v1,0x5
a08141fc:	00431023 	subu	v0,v0,v1
a0814200:	8fc30018 	lw	v1,24(s8)
a0814204:	00431021 	addu	v0,v0,v1
a0814208:	000210c0 	sll	v0,v0,0x3
a081420c:	00821023 	subu	v0,a0,v0
a0814210:	afc20018 	sw	v0,24(s8)
a0814214:	8fc20018 	lw	v0,24(s8)
a0814218:	03c0e821 	move	sp,s8
a081421c:	8fbf0024 	lw	ra,36(sp)
a0814220:	8fbe0020 	lw	s8,32(sp)
a0814224:	27bd0028 	addiu	sp,sp,40
a0814228:	03e00008 	jr	ra
a081422c:	00000000 	nop

a0814230 <scanf>:
a0814230:	27bdffe0 	addiu	sp,sp,-32
a0814234:	afbf001c 	sw	ra,28(sp)
a0814238:	afbe0018 	sw	s8,24(sp)
a081423c:	03a0f021 	move	s8,sp
a0814240:	afc40020 	sw	a0,32(s8)
a0814244:	08205098 	j	a0814260 <scanf+0x30>
a0814248:	00000000 	nop
a081424c:	3c02a081 	lui	v0,0xa081
a0814250:	24446f70 	addiu	a0,v0,28528
a0814254:	8fc50010 	lw	a1,16(s8)
a0814258:	0c203ff7 	jal	a080ffdc <printf>
a081425c:	00000000 	nop
a0814260:	8fc40020 	lw	a0,32(s8)
a0814264:	0c2038ea 	jal	a080e3a8 <sys_scanf>
a0814268:	00000000 	nop
a081426c:	afc20010 	sw	v0,16(s8)
a0814270:	8fc30010 	lw	v1,16(s8)
a0814274:	2402000d 	li	v0,13
a0814278:	1462fff4 	bne	v1,v0,a081424c <scanf+0x1c>
a081427c:	00000000 	nop
a0814280:	03c0e821 	move	sp,s8
a0814284:	8fbf001c 	lw	ra,28(sp)
a0814288:	8fbe0018 	lw	s8,24(sp)
a081428c:	27bd0020 	addiu	sp,sp,32
a0814290:	03e00008 	jr	ra
a0814294:	00000000 	nop

a0814298 <rw_task4_2>:
a0814298:	27bdffc0 	addiu	sp,sp,-64
a081429c:	afbf003c 	sw	ra,60(sp)
a08142a0:	afbe0038 	sw	s8,56(sp)
a08142a4:	03a0f021 	move	s8,sp
a08142a8:	24040001 	li	a0,1
a08142ac:	2405000d 	li	a1,13
a08142b0:	0c203788 	jal	a080de20 <sys_move_cursor>
a08142b4:	00000000 	nop
a08142b8:	0c2014c7 	jal	a080531c <read_tlb_1>
a08142bc:	00000000 	nop
a08142c0:	24040001 	li	a0,1
a08142c4:	2405000b 	li	a1,11
a08142c8:	0c203788 	jal	a080de20 <sys_move_cursor>
a08142cc:	00000000 	nop
a08142d0:	3c02a082 	lui	v0,0xa082
a08142d4:	8c43a078 	lw	v1,-24456(v0)
a08142d8:	3c02a081 	lui	v0,0xa081
a08142dc:	24446f74 	addiu	a0,v0,28532
a08142e0:	00602821 	move	a1,v1
a08142e4:	0c203ff7 	jal	a080ffdc <printf>
a08142e8:	00000000 	nop
a08142ec:	24040001 	li	a0,1
a08142f0:	2405000c 	li	a1,12
a08142f4:	0c203788 	jal	a080de20 <sys_move_cursor>
a08142f8:	00000000 	nop
a08142fc:	3c02a082 	lui	v0,0xa082
a0814300:	8c43a07c 	lw	v1,-24452(v0)
a0814304:	3c02a081 	lui	v0,0xa081
a0814308:	24446f8c 	addiu	a0,v0,28556
a081430c:	00602821 	move	a1,v1
a0814310:	0c203ff7 	jal	a080ffdc <printf>
a0814314:	00000000 	nop
a0814318:	afc00014 	sw	zero,20(s8)
a081431c:	3c02a081 	lui	v0,0xa081
a0814320:	8c4272e0 	lw	v0,29408(v0)
a0814324:	00402021 	move	a0,v0
a0814328:	0c2041fb 	jal	a08107ec <init_InputBuffer_s>
a081432c:	00000000 	nop
a0814330:	24040001 	li	a0,1
a0814334:	00002821 	move	a1,zero
a0814338:	0c203788 	jal	a080de20 <sys_move_cursor>
a081433c:	00000000 	nop
a0814340:	3c02a081 	lui	v0,0xa081
a0814344:	24446fa4 	addiu	a0,v0,28580
a0814348:	0c203ff7 	jal	a080ffdc <printf>
a081434c:	00000000 	nop
a0814350:	27c20020 	addiu	v0,s8,32
a0814354:	00402021 	move	a0,v0
a0814358:	0c20508c 	jal	a0814230 <scanf>
a081435c:	00000000 	nop
a0814360:	24040001 	li	a0,1
a0814364:	24050001 	li	a1,1
a0814368:	0c203788 	jal	a080de20 <sys_move_cursor>
a081436c:	00000000 	nop
a0814370:	0c20506c 	jal	a08141b0 <rand>
a0814374:	00000000 	nop
a0814378:	afc2001c 	sw	v0,28(s8)
a081437c:	8fc2001c 	lw	v0,28(s8)
a0814380:	afc20028 	sw	v0,40(s8)
a0814384:	3c02a081 	lui	v0,0xa081
a0814388:	24446fb8 	addiu	a0,v0,28600
a081438c:	8fc5001c 	lw	a1,28(s8)
a0814390:	0c203ff7 	jal	a080ffdc <printf>
a0814394:	00000000 	nop
a0814398:	24040001 	li	a0,1
a081439c:	24050002 	li	a1,2
a08143a0:	0c203788 	jal	a080de20 <sys_move_cursor>
a08143a4:	00000000 	nop
a08143a8:	8fc20020 	lw	v0,32(s8)
a08143ac:	00401821 	move	v1,v0
a08143b0:	8fc2001c 	lw	v0,28(s8)
a08143b4:	ac620000 	sw	v0,0(v1)
a08143b8:	8fc30020 	lw	v1,32(s8)
a08143bc:	3c02a081 	lui	v0,0xa081
a08143c0:	24446fcc 	addiu	a0,v0,28620
a08143c4:	8fc5001c 	lw	a1,28(s8)
a08143c8:	00603021 	move	a2,v1
a08143cc:	0c203ff7 	jal	a080ffdc <printf>
a08143d0:	00000000 	nop
a08143d4:	24040001 	li	a0,1
a08143d8:	2405000d 	li	a1,13
a08143dc:	0c203788 	jal	a080de20 <sys_move_cursor>
a08143e0:	00000000 	nop
a08143e4:	0c2014c7 	jal	a080531c <read_tlb_1>
a08143e8:	00000000 	nop
a08143ec:	24040001 	li	a0,1
a08143f0:	2405000b 	li	a1,11
a08143f4:	0c203788 	jal	a080de20 <sys_move_cursor>
a08143f8:	00000000 	nop
a08143fc:	3c02a082 	lui	v0,0xa082
a0814400:	8c43a078 	lw	v1,-24456(v0)
a0814404:	3c02a081 	lui	v0,0xa081
a0814408:	24446f74 	addiu	a0,v0,28532
a081440c:	00602821 	move	a1,v1
a0814410:	0c203ff7 	jal	a080ffdc <printf>
a0814414:	00000000 	nop
a0814418:	24040001 	li	a0,1
a081441c:	2405000c 	li	a1,12
a0814420:	0c203788 	jal	a080de20 <sys_move_cursor>
a0814424:	00000000 	nop
a0814428:	3c02a082 	lui	v0,0xa082
a081442c:	8c43a07c 	lw	v1,-24452(v0)
a0814430:	3c02a081 	lui	v0,0xa081
a0814434:	24446f8c 	addiu	a0,v0,28556
a0814438:	00602821 	move	a1,v1
a081443c:	0c203ff7 	jal	a080ffdc <printf>
a0814440:	00000000 	nop
a0814444:	24040001 	li	a0,1
a0814448:	24050003 	li	a1,3
a081444c:	0c203788 	jal	a080de20 <sys_move_cursor>
a0814450:	00000000 	nop
a0814454:	3c02a081 	lui	v0,0xa081
a0814458:	24446ff4 	addiu	a0,v0,28660
a081445c:	0c203ff7 	jal	a080ffdc <printf>
a0814460:	00000000 	nop
a0814464:	27c20024 	addiu	v0,s8,36
a0814468:	00402021 	move	a0,v0
a081446c:	0c20508c 	jal	a0814230 <scanf>
a0814470:	00000000 	nop
a0814474:	24040001 	li	a0,1
a0814478:	24050004 	li	a1,4
a081447c:	0c203788 	jal	a080de20 <sys_move_cursor>
a0814480:	00000000 	nop
a0814484:	0c20506c 	jal	a08141b0 <rand>
a0814488:	00000000 	nop
a081448c:	afc20018 	sw	v0,24(s8)
a0814490:	8fc20018 	lw	v0,24(s8)
a0814494:	afc2002c 	sw	v0,44(s8)
a0814498:	3c02a081 	lui	v0,0xa081
a081449c:	24446fb8 	addiu	a0,v0,28600
a08144a0:	8fc50018 	lw	a1,24(s8)
a08144a4:	0c203ff7 	jal	a080ffdc <printf>
a08144a8:	00000000 	nop
a08144ac:	24040001 	li	a0,1
a08144b0:	24050005 	li	a1,5
a08144b4:	0c203788 	jal	a080de20 <sys_move_cursor>
a08144b8:	00000000 	nop
a08144bc:	8fc20024 	lw	v0,36(s8)
a08144c0:	00401821 	move	v1,v0
a08144c4:	8fc20018 	lw	v0,24(s8)
a08144c8:	ac620000 	sw	v0,0(v1)
a08144cc:	8fc30024 	lw	v1,36(s8)
a08144d0:	3c02a081 	lui	v0,0xa081
a08144d4:	24447008 	addiu	a0,v0,28680
a08144d8:	8fc50018 	lw	a1,24(s8)
a08144dc:	00603021 	move	a2,v1
a08144e0:	0c203ff7 	jal	a080ffdc <printf>
a08144e4:	00000000 	nop
a08144e8:	24040001 	li	a0,1
a08144ec:	2405000d 	li	a1,13
a08144f0:	0c203788 	jal	a080de20 <sys_move_cursor>
a08144f4:	00000000 	nop
a08144f8:	0c2014c7 	jal	a080531c <read_tlb_1>
a08144fc:	00000000 	nop
a0814500:	24040001 	li	a0,1
a0814504:	2405000b 	li	a1,11
a0814508:	0c203788 	jal	a080de20 <sys_move_cursor>
a081450c:	00000000 	nop
a0814510:	3c02a082 	lui	v0,0xa082
a0814514:	8c43a078 	lw	v1,-24456(v0)
a0814518:	3c02a081 	lui	v0,0xa081
a081451c:	24446f74 	addiu	a0,v0,28532
a0814520:	00602821 	move	a1,v1
a0814524:	0c203ff7 	jal	a080ffdc <printf>
a0814528:	00000000 	nop
a081452c:	24040001 	li	a0,1
a0814530:	2405000c 	li	a1,12
a0814534:	0c203788 	jal	a080de20 <sys_move_cursor>
a0814538:	00000000 	nop
a081453c:	3c02a082 	lui	v0,0xa082
a0814540:	8c43a07c 	lw	v1,-24452(v0)
a0814544:	3c02a081 	lui	v0,0xa081
a0814548:	24446f8c 	addiu	a0,v0,28556
a081454c:	00602821 	move	a1,v1
a0814550:	0c203ff7 	jal	a080ffdc <printf>
a0814554:	00000000 	nop
a0814558:	24040001 	li	a0,1
a081455c:	24050006 	li	a1,6
a0814560:	0c203788 	jal	a080de20 <sys_move_cursor>
a0814564:	00000000 	nop
a0814568:	3c02a081 	lui	v0,0xa081
a081456c:	24447030 	addiu	a0,v0,28720
a0814570:	0c203ff7 	jal	a080ffdc <printf>
a0814574:	00000000 	nop
a0814578:	27c20020 	addiu	v0,s8,32
a081457c:	00402021 	move	a0,v0
a0814580:	0c20508c 	jal	a0814230 <scanf>
a0814584:	00000000 	nop
a0814588:	24040001 	li	a0,1
a081458c:	24050007 	li	a1,7
a0814590:	0c203788 	jal	a080de20 <sys_move_cursor>
a0814594:	00000000 	nop
a0814598:	8fc20020 	lw	v0,32(s8)
a081459c:	8c420000 	lw	v0,0(v0)
a08145a0:	afc20030 	sw	v0,48(s8)
a08145a4:	8fc30030 	lw	v1,48(s8)
a08145a8:	8fc20028 	lw	v0,40(s8)
a08145ac:	14620009 	bne	v1,v0,a08145d4 <rw_task4_2+0x33c>
a08145b0:	00000000 	nop
a08145b4:	8fc30030 	lw	v1,48(s8)
a08145b8:	3c02a081 	lui	v0,0xa081
a08145bc:	24447044 	addiu	a0,v0,28740
a08145c0:	00602821 	move	a1,v1
a08145c4:	0c203ff7 	jal	a080ffdc <printf>
a08145c8:	00000000 	nop
a08145cc:	0820517b 	j	a08145ec <rw_task4_2+0x354>
a08145d0:	00000000 	nop
a08145d4:	8fc30030 	lw	v1,48(s8)
a08145d8:	3c02a081 	lui	v0,0xa081
a08145dc:	24447058 	addiu	a0,v0,28760
a08145e0:	00602821 	move	a1,v1
a08145e4:	0c203ff7 	jal	a080ffdc <printf>
a08145e8:	00000000 	nop
a08145ec:	24040001 	li	a0,1
a08145f0:	24050008 	li	a1,8
a08145f4:	0c203788 	jal	a080de20 <sys_move_cursor>
a08145f8:	00000000 	nop
a08145fc:	3c02a081 	lui	v0,0xa081
a0814600:	24447068 	addiu	a0,v0,28776
a0814604:	0c203ff7 	jal	a080ffdc <printf>
a0814608:	00000000 	nop
a081460c:	27c20024 	addiu	v0,s8,36
a0814610:	00402021 	move	a0,v0
a0814614:	0c20508c 	jal	a0814230 <scanf>
a0814618:	00000000 	nop
a081461c:	24040001 	li	a0,1
a0814620:	24050009 	li	a1,9
a0814624:	0c203788 	jal	a080de20 <sys_move_cursor>
a0814628:	00000000 	nop
a081462c:	8fc20024 	lw	v0,36(s8)
a0814630:	8c420000 	lw	v0,0(v0)
a0814634:	afc20034 	sw	v0,52(s8)
a0814638:	8fc30034 	lw	v1,52(s8)
a081463c:	8fc2002c 	lw	v0,44(s8)
a0814640:	14620009 	bne	v1,v0,a0814668 <rw_task4_2+0x3d0>
a0814644:	00000000 	nop
a0814648:	8fc30034 	lw	v1,52(s8)
a081464c:	3c02a081 	lui	v0,0xa081
a0814650:	24447044 	addiu	a0,v0,28740
a0814654:	00602821 	move	a1,v1
a0814658:	0c203ff7 	jal	a080ffdc <printf>
a081465c:	00000000 	nop
a0814660:	082051a0 	j	a0814680 <rw_task4_2+0x3e8>
a0814664:	00000000 	nop
a0814668:	8fc30034 	lw	v1,52(s8)
a081466c:	3c02a081 	lui	v0,0xa081
a0814670:	24447058 	addiu	a0,v0,28760
a0814674:	00602821 	move	a1,v1
a0814678:	0c203ff7 	jal	a080ffdc <printf>
a081467c:	00000000 	nop
a0814680:	24040001 	li	a0,1
a0814684:	2405000d 	li	a1,13
a0814688:	0c203788 	jal	a080de20 <sys_move_cursor>
a081468c:	00000000 	nop
a0814690:	0c2014c7 	jal	a080531c <read_tlb_1>
a0814694:	00000000 	nop
a0814698:	082051a6 	j	a0814698 <rw_task4_2+0x400>
a081469c:	00000000 	nop

a08146a0 <clear_interrupt>:
a08146a0:	27bdffe0 	addiu	sp,sp,-32
a08146a4:	afbf001c 	sw	ra,28(sp)
a08146a8:	afbe0018 	sw	s8,24(sp)
a08146ac:	03a0f021 	move	s8,sp
a08146b0:	3c02bfe1 	lui	v0,0xbfe1
a08146b4:	34441014 	ori	a0,v0,0x1014
a08146b8:	0c2006f8 	jal	a0801be0 <reg_read_32>
a08146bc:	00000000 	nop
a08146c0:	afc20010 	sw	v0,16(s8)
a08146c4:	3c02bfe1 	lui	v0,0xbfe1
a08146c8:	34441014 	ori	a0,v0,0x1014
a08146cc:	8fc50010 	lw	a1,16(s8)
a08146d0:	0c200715 	jal	a0801c54 <reg_write_32>
a08146d4:	00000000 	nop
a08146d8:	03c0e821 	move	sp,s8
a08146dc:	8fbf001c 	lw	ra,28(sp)
a08146e0:	8fbe0018 	lw	s8,24(sp)
a08146e4:	27bd0020 	addiu	sp,sp,32
a08146e8:	03e00008 	jr	ra
a08146ec:	00000000 	nop

a08146f0 <send_desc_init>:
a08146f0:	27bdffe8 	addiu	sp,sp,-24
a08146f4:	afbf0014 	sw	ra,20(sp)
a08146f8:	afbe0010 	sw	s8,16(sp)
a08146fc:	03a0f021 	move	s8,sp
a0814700:	afc40018 	sw	a0,24(s8)
a0814704:	3c02a081 	lui	v0,0xa081
a0814708:	8c427ab0 	lw	v0,31408(v0)
a081470c:	00402021 	move	a0,v0
a0814710:	3c02a081 	lui	v0,0xa081
a0814714:	24457604 	addiu	a1,v0,30212
a0814718:	24060400 	li	a2,1024
a081471c:	24070040 	li	a3,64
a0814720:	0c200bc7 	jal	a0802f1c <do_send_desc_init>
a0814724:	00000000 	nop
a0814728:	03c0e821 	move	sp,s8
a081472c:	8fbf0014 	lw	ra,20(sp)
a0814730:	8fbe0010 	lw	s8,16(sp)
a0814734:	27bd0018 	addiu	sp,sp,24
a0814738:	03e00008 	jr	ra
a081473c:	00000000 	nop

a0814740 <recv_desc_init>:
a0814740:	27bdffe8 	addiu	sp,sp,-24
a0814744:	afbf0014 	sw	ra,20(sp)
a0814748:	afbe0010 	sw	s8,16(sp)
a081474c:	03a0f021 	move	s8,sp
a0814750:	afc40018 	sw	a0,24(s8)
a0814754:	3c02a081 	lui	v0,0xa081
a0814758:	8c427aac 	lw	v0,31404(v0)
a081475c:	00402021 	move	a0,v0
a0814760:	3c02a085 	lui	v0,0xa085
a0814764:	2445a0c0 	addiu	a1,v0,-24384
a0814768:	24060400 	li	a2,1024
a081476c:	24070040 	li	a3,64
a0814770:	0c200b6c 	jal	a0802db0 <do_recv_desc_init>
a0814774:	00000000 	nop
a0814778:	03c0e821 	move	sp,s8
a081477c:	8fbf0014 	lw	ra,20(sp)
a0814780:	8fbe0010 	lw	s8,16(sp)
a0814784:	27bd0018 	addiu	sp,sp,24
a0814788:	03e00008 	jr	ra
a081478c:	00000000 	nop

a0814790 <mii_dul_force>:
a0814790:	27bdffd8 	addiu	sp,sp,-40
a0814794:	afbf0024 	sw	ra,36(sp)
a0814798:	afbe0020 	sw	s8,32(sp)
a081479c:	afb0001c 	sw	s0,28(sp)
a08147a0:	03a0f021 	move	s8,sp
a08147a4:	afc40028 	sw	a0,40(s8)
a08147a8:	8fc20028 	lw	v0,40(s8)
a08147ac:	8c42000c 	lw	v0,12(v0)
a08147b0:	00402021 	move	a0,v0
a08147b4:	24050080 	li	a1,128
a08147b8:	0c200715 	jal	a0801c54 <reg_write_32>
a08147bc:	00000000 	nop
a08147c0:	3402c800 	li	v0,0xc800
a08147c4:	afc20010 	sw	v0,16(s8)
a08147c8:	8fc20028 	lw	v0,40(s8)
a08147cc:	8c500008 	lw	s0,8(v0)
a08147d0:	8fc20028 	lw	v0,40(s8)
a08147d4:	8c420008 	lw	v0,8(v0)
a08147d8:	00402021 	move	a0,v0
a08147dc:	0c2006f8 	jal	a0801be0 <reg_read_32>
a08147e0:	00000000 	nop
a08147e4:	00401821 	move	v1,v0
a08147e8:	8fc20010 	lw	v0,16(s8)
a08147ec:	00621025 	or	v0,v1,v0
a08147f0:	34420100 	ori	v0,v0,0x100
a08147f4:	02002021 	move	a0,s0
a08147f8:	00402821 	move	a1,v0
a08147fc:	0c200715 	jal	a0801c54 <reg_write_32>
a0814800:	00000000 	nop
a0814804:	8fc20028 	lw	v0,40(s8)
a0814808:	8c420008 	lw	v0,8(v0)
a081480c:	24500004 	addiu	s0,v0,4
a0814810:	8fc20028 	lw	v0,40(s8)
a0814814:	8c420008 	lw	v0,8(v0)
a0814818:	24420004 	addiu	v0,v0,4
a081481c:	00402021 	move	a0,v0
a0814820:	0c2006f8 	jal	a0801be0 <reg_read_32>
a0814824:	00000000 	nop
a0814828:	00401821 	move	v1,v0
a081482c:	3c028000 	lui	v0,0x8000
a0814830:	34420001 	ori	v0,v0,0x1
a0814834:	00621025 	or	v0,v1,v0
a0814838:	02002021 	move	a0,s0
a081483c:	00402821 	move	a1,v0
a0814840:	0c200715 	jal	a0801c54 <reg_write_32>
a0814844:	00000000 	nop
a0814848:	03c0e821 	move	sp,s8
a081484c:	8fbf0024 	lw	ra,36(sp)
a0814850:	8fbe0020 	lw	s8,32(sp)
a0814854:	8fb0001c 	lw	s0,28(sp)
a0814858:	27bd0028 	addiu	sp,sp,40
a081485c:	03e00008 	jr	ra
a0814860:	00000000 	nop

a0814864 <start_tran>:
a0814864:	27bdfff8 	addiu	sp,sp,-8
a0814868:	afbe0004 	sw	s8,4(sp)
a081486c:	03a0f021 	move	s8,sp
a0814870:	afc40008 	sw	a0,8(s8)
a0814874:	03c0e821 	move	sp,s8
a0814878:	8fbe0004 	lw	s8,4(sp)
a081487c:	27bd0008 	addiu	sp,sp,8
a0814880:	03e00008 	jr	ra
a0814884:	00000000 	nop

a0814888 <dma_control_init>:
a0814888:	27bdffe8 	addiu	sp,sp,-24
a081488c:	afbf0014 	sw	ra,20(sp)
a0814890:	afbe0010 	sw	s8,16(sp)
a0814894:	03a0f021 	move	s8,sp
a0814898:	afc40018 	sw	a0,24(s8)
a081489c:	afc5001c 	sw	a1,28(s8)
a08148a0:	8fc20018 	lw	v0,24(s8)
a08148a4:	8c42000c 	lw	v0,12(v0)
a08148a8:	24420018 	addiu	v0,v0,24
a08148ac:	00402021 	move	a0,v0
a08148b0:	8fc5001c 	lw	a1,28(s8)
a08148b4:	0c200715 	jal	a0801c54 <reg_write_32>
a08148b8:	00000000 	nop
a08148bc:	03c0e821 	move	sp,s8
a08148c0:	8fbf0014 	lw	ra,20(sp)
a08148c4:	8fbe0010 	lw	s8,16(sp)
a08148c8:	27bd0018 	addiu	sp,sp,24
a08148cc:	03e00008 	jr	ra
a08148d0:	00000000 	nop

a08148d4 <phy_regs_task1>:
a08148d4:	27bdffa8 	addiu	sp,sp,-88
a08148d8:	afbf0054 	sw	ra,84(sp)
a08148dc:	afbe0050 	sw	s8,80(sp)
a08148e0:	03a0f021 	move	s8,sp
a08148e4:	24020003 	li	v0,3
a08148e8:	afc20014 	sw	v0,20(s8)
a08148ec:	3c02bfe1 	lui	v0,0xbfe1
a08148f0:	afc20024 	sw	v0,36(s8)
a08148f4:	3c02bfe1 	lui	v0,0xbfe1
a08148f8:	34421000 	ori	v0,v0,0x1000
a08148fc:	afc20028 	sw	v0,40(s8)
a0814900:	24020400 	li	v0,1024
a0814904:	afc2001c 	sw	v0,28(s8)
a0814908:	24020040 	li	v0,64
a081490c:	afc20020 	sw	v0,32(s8)
a0814910:	3c02a081 	lui	v0,0xa081
a0814914:	8c427ab0 	lw	v0,31408(v0)
a0814918:	00401821 	move	v1,v0
a081491c:	3c021fff 	lui	v0,0x1fff
a0814920:	3442ffff 	ori	v0,v0,0xffff
a0814924:	00621024 	and	v0,v1,v0
a0814928:	afc20044 	sw	v0,68(s8)
a081492c:	3c02a081 	lui	v0,0xa081
a0814930:	8c427ab0 	lw	v0,31408(v0)
a0814934:	afc2003c 	sw	v0,60(s8)
a0814938:	3c02a081 	lui	v0,0xa081
a081493c:	24427604 	addiu	v0,v0,30212
a0814940:	afc2002c 	sw	v0,44(s8)
a0814944:	3c02a081 	lui	v0,0xa081
a0814948:	24437604 	addiu	v1,v0,30212
a081494c:	3c021fff 	lui	v0,0x1fff
a0814950:	3442ffff 	ori	v0,v0,0xffff
a0814954:	00621024 	and	v0,v1,v0
a0814958:	afc20034 	sw	v0,52(s8)
a081495c:	27c2001c 	addiu	v0,s8,28
a0814960:	00402021 	move	a0,v0
a0814964:	0c2051bc 	jal	a08146f0 <send_desc_init>
a0814968:	00000000 	nop
a081496c:	27c2001c 	addiu	v0,s8,28
a0814970:	00402021 	move	a0,v0
a0814974:	3c020020 	lui	v0,0x20
a0814978:	3445001c 	ori	a1,v0,0x1c
a081497c:	0c205222 	jal	a0814888 <dma_control_init>
a0814980:	00000000 	nop
a0814984:	27c2001c 	addiu	v0,s8,28
a0814988:	00402021 	move	a0,v0
a081498c:	0c2051a8 	jal	a08146a0 <clear_interrupt>
a0814990:	00000000 	nop
a0814994:	27c2001c 	addiu	v0,s8,28
a0814998:	00402021 	move	a0,v0
a081499c:	0c2051e4 	jal	a0814790 <mii_dul_force>
a08149a0:	00000000 	nop
a08149a4:	3c02a080 	lui	v0,0xa080
a08149a8:	244225a4 	addiu	v0,v0,9636
a08149ac:	00002021 	move	a0,zero
a08149b0:	00402821 	move	a1,v0
a08149b4:	0c200c12 	jal	a0803048 <register_irq_handler>
a08149b8:	00000000 	nop
a08149bc:	00002021 	move	a0,zero
a08149c0:	0c200979 	jal	a08025e4 <irq_enable>
a08149c4:	00000000 	nop
a08149c8:	8fc20014 	lw	v0,20(s8)
a08149cc:	24040001 	li	a0,1
a08149d0:	00402821 	move	a1,v0
a08149d4:	0c203788 	jal	a080de20 <sys_move_cursor>
a08149d8:	00000000 	nop
a08149dc:	3c02a081 	lui	v0,0xa081
a08149e0:	24447080 	addiu	a0,v0,28800
a08149e4:	0c203ff7 	jal	a080ffdc <printf>
a08149e8:	00000000 	nop
a08149ec:	afc00010 	sw	zero,16(s8)
a08149f0:	24020004 	li	v0,4
a08149f4:	afc20018 	sw	v0,24(s8)
a08149f8:	08205299 	j	a0814a64 <phy_regs_task1+0x190>
a08149fc:	00000000 	nop
a0814a00:	8fc2003c 	lw	v0,60(s8)
a0814a04:	8fc30044 	lw	v1,68(s8)
a0814a08:	00402021 	move	a0,v0
a0814a0c:	00602821 	move	a1,v1
a0814a10:	0c20390c 	jal	a080e430 <sys_net_send>
a0814a14:	00000000 	nop
a0814a18:	8fc20010 	lw	v0,16(s8)
a0814a1c:	24420040 	addiu	v0,v0,64
a0814a20:	afc20010 	sw	v0,16(s8)
a0814a24:	8fc20010 	lw	v0,16(s8)
a0814a28:	00021982 	srl	v1,v0,0x6
a0814a2c:	8fc20014 	lw	v0,20(s8)
a0814a30:	00621021 	addu	v0,v1,v0
a0814a34:	24040001 	li	a0,1
a0814a38:	00402821 	move	a1,v0
a0814a3c:	0c203788 	jal	a080de20 <sys_move_cursor>
a0814a40:	00000000 	nop
a0814a44:	3c02a081 	lui	v0,0xa081
a0814a48:	244470b4 	addiu	a0,v0,28852
a0814a4c:	8fc50010 	lw	a1,16(s8)
a0814a50:	0c203ff7 	jal	a080ffdc <printf>
a0814a54:	00000000 	nop
a0814a58:	8fc20018 	lw	v0,24(s8)
a0814a5c:	2442ffff 	addiu	v0,v0,-1
a0814a60:	afc20018 	sw	v0,24(s8)
a0814a64:	8fc20018 	lw	v0,24(s8)
a0814a68:	1440ffe5 	bnez	v0,a0814a00 <phy_regs_task1+0x12c>
a0814a6c:	00000000 	nop
a0814a70:	8fc20014 	lw	v0,20(s8)
a0814a74:	24420005 	addiu	v0,v0,5
a0814a78:	24040001 	li	a0,1
a0814a7c:	00402821 	move	a1,v0
a0814a80:	0c203788 	jal	a080de20 <sys_move_cursor>
a0814a84:	00000000 	nop
a0814a88:	3c02a081 	lui	v0,0xa081
a0814a8c:	244470ec 	addiu	a0,v0,28908
a0814a90:	8fc50010 	lw	a1,16(s8)
a0814a94:	0c203ff7 	jal	a080ffdc <printf>
a0814a98:	00000000 	nop
a0814a9c:	0c203898 	jal	a080e260 <sys_exit>
a0814aa0:	00000000 	nop
a0814aa4:	03c0e821 	move	sp,s8
a0814aa8:	8fbf0054 	lw	ra,84(sp)
a0814aac:	8fbe0050 	lw	s8,80(sp)
a0814ab0:	27bd0058 	addiu	sp,sp,88
a0814ab4:	03e00008 	jr	ra
a0814ab8:	00000000 	nop

a0814abc <phy_regs_task2>:
a0814abc:	27bdffa0 	addiu	sp,sp,-96
a0814ac0:	afbf005c 	sw	ra,92(sp)
a0814ac4:	afbe0058 	sw	s8,88(sp)
a0814ac8:	03a0f021 	move	s8,sp
a0814acc:	24020009 	li	v0,9
a0814ad0:	afc20018 	sw	v0,24(s8)
a0814ad4:	3c02bfe1 	lui	v0,0xbfe1
a0814ad8:	afc2002c 	sw	v0,44(s8)
a0814adc:	3c02bfe1 	lui	v0,0xbfe1
a0814ae0:	34421000 	ori	v0,v0,0x1000
a0814ae4:	afc20030 	sw	v0,48(s8)
a0814ae8:	24020400 	li	v0,1024
a0814aec:	afc20024 	sw	v0,36(s8)
a0814af0:	24020040 	li	v0,64
a0814af4:	afc20028 	sw	v0,40(s8)
a0814af8:	3c02a081 	lui	v0,0xa081
a0814afc:	8c427aac 	lw	v0,31404(v0)
a0814b00:	00401821 	move	v1,v0
a0814b04:	3c021fff 	lui	v0,0x1fff
a0814b08:	3442ffff 	ori	v0,v0,0xffff
a0814b0c:	00621024 	and	v0,v1,v0
a0814b10:	afc20050 	sw	v0,80(s8)
a0814b14:	3c02a081 	lui	v0,0xa081
a0814b18:	8c427aac 	lw	v0,31404(v0)
a0814b1c:	afc20048 	sw	v0,72(s8)
a0814b20:	3c02a085 	lui	v0,0xa085
a0814b24:	2442a0c0 	addiu	v0,v0,-24384
a0814b28:	afc20038 	sw	v0,56(s8)
a0814b2c:	3c02a085 	lui	v0,0xa085
a0814b30:	2443a0c0 	addiu	v1,v0,-24384
a0814b34:	3c021fff 	lui	v0,0x1fff
a0814b38:	3442ffff 	ori	v0,v0,0xffff
a0814b3c:	00621024 	and	v0,v1,v0
a0814b40:	afc20040 	sw	v0,64(s8)
a0814b44:	3c02a081 	lui	v0,0xa081
a0814b48:	24427604 	addiu	v0,v0,30212
a0814b4c:	afc20034 	sw	v0,52(s8)
a0814b50:	27c20024 	addiu	v0,s8,36
a0814b54:	00402021 	move	a0,v0
a0814b58:	0c2051d0 	jal	a0814740 <recv_desc_init>
a0814b5c:	00000000 	nop
a0814b60:	27c20024 	addiu	v0,s8,36
a0814b64:	00402021 	move	a0,v0
a0814b68:	3c020020 	lui	v0,0x20
a0814b6c:	3445001c 	ori	a1,v0,0x1c
a0814b70:	0c205222 	jal	a0814888 <dma_control_init>
a0814b74:	00000000 	nop
a0814b78:	27c20024 	addiu	v0,s8,36
a0814b7c:	00402021 	move	a0,v0
a0814b80:	0c2051a8 	jal	a08146a0 <clear_interrupt>
a0814b84:	00000000 	nop
a0814b88:	27c20024 	addiu	v0,s8,36
a0814b8c:	00402021 	move	a0,v0
a0814b90:	0c2051e4 	jal	a0814790 <mii_dul_force>
a0814b94:	00000000 	nop
a0814b98:	3c02a081 	lui	v0,0xa081
a0814b9c:	24447ad0 	addiu	a0,v0,31440
a0814ba0:	0c20213c 	jal	a08084f0 <queue_init>
a0814ba4:	00000000 	nop
a0814ba8:	8fc20018 	lw	v0,24(s8)
a0814bac:	24040001 	li	a0,1
a0814bb0:	00402821 	move	a1,v0
a0814bb4:	0c203788 	jal	a080de20 <sys_move_cursor>
a0814bb8:	00000000 	nop
a0814bbc:	3c02a081 	lui	v0,0xa081
a0814bc0:	24447118 	addiu	a0,v0,28952
a0814bc4:	0c203ff7 	jal	a080ffdc <printf>
a0814bc8:	00000000 	nop
a0814bcc:	8fc20048 	lw	v0,72(s8)
a0814bd0:	8fc30050 	lw	v1,80(s8)
a0814bd4:	8fc60038 	lw	a2,56(s8)
a0814bd8:	00402021 	move	a0,v0
a0814bdc:	00602821 	move	a1,v1
a0814be0:	0c203920 	jal	a080e480 <sys_net_recv>
a0814be4:	00000000 	nop
a0814be8:	afc2001c 	sw	v0,28(s8)
a0814bec:	3c02a081 	lui	v0,0xa081
a0814bf0:	ac407ad8 	sw	zero,31448(v0)
a0814bf4:	afc00020 	sw	zero,32(s8)
a0814bf8:	08205309 	j	a0814c24 <phy_regs_task2+0x168>
a0814bfc:	00000000 	nop
a0814c00:	8fc20020 	lw	v0,32(s8)
a0814c04:	3c03a087 	lui	v1,0xa087
a0814c08:	00022080 	sll	a0,v0,0x2
a0814c0c:	24624b2c 	addiu	v0,v1,19244
a0814c10:	00821021 	addu	v0,a0,v0
a0814c14:	ac400000 	sw	zero,0(v0)
a0814c18:	8fc20020 	lw	v0,32(s8)
a0814c1c:	24420001 	addiu	v0,v0,1
a0814c20:	afc20020 	sw	v0,32(s8)
a0814c24:	8fc20020 	lw	v0,32(s8)
a0814c28:	2c420040 	sltiu	v0,v0,64
a0814c2c:	1440fff4 	bnez	v0,a0814c00 <phy_regs_task2+0x144>
a0814c30:	00000000 	nop
a0814c34:	afc00014 	sw	zero,20(s8)
a0814c38:	8fc20048 	lw	v0,72(s8)
a0814c3c:	244203f0 	addiu	v0,v0,1008
a0814c40:	afc20010 	sw	v0,16(s8)
a0814c44:	8fc20010 	lw	v0,16(s8)
a0814c48:	8c420000 	lw	v0,0(v0)
a0814c4c:	0441000d 	bgez	v0,a0814c84 <phy_regs_task2+0x1c8>
a0814c50:	00000000 	nop
a0814c54:	8fc20018 	lw	v0,24(s8)
a0814c58:	24420001 	addiu	v0,v0,1
a0814c5c:	24040001 	li	a0,1
a0814c60:	00402821 	move	a1,v0
a0814c64:	0c203788 	jal	a080de20 <sys_move_cursor>
a0814c68:	00000000 	nop
a0814c6c:	3c02a081 	lui	v0,0xa081
a0814c70:	24447148 	addiu	a0,v0,29000
a0814c74:	0c203ff7 	jal	a080ffdc <printf>
a0814c78:	00000000 	nop
a0814c7c:	0c203935 	jal	a080e4d4 <sys_wait_recv_package>
a0814c80:	00000000 	nop
a0814c84:	27c20024 	addiu	v0,s8,36
a0814c88:	00402021 	move	a0,v0
a0814c8c:	0c200982 	jal	a0802608 <check_recv>
a0814c90:	00000000 	nop
a0814c94:	8fc20018 	lw	v0,24(s8)
a0814c98:	24420002 	addiu	v0,v0,2
a0814c9c:	24040001 	li	a0,1
a0814ca0:	00402821 	move	a1,v0
a0814ca4:	0c203788 	jal	a080de20 <sys_move_cursor>
a0814ca8:	00000000 	nop
a0814cac:	3c02a081 	lui	v0,0xa081
a0814cb0:	24447170 	addiu	a0,v0,29040
a0814cb4:	0c203ff7 	jal	a080ffdc <printf>
a0814cb8:	00000000 	nop
a0814cbc:	0c203898 	jal	a080e260 <sys_exit>
a0814cc0:	00000000 	nop
a0814cc4:	03c0e821 	move	sp,s8
a0814cc8:	8fbf005c 	lw	ra,92(sp)
a0814ccc:	8fbe0058 	lw	s8,88(sp)
a0814cd0:	27bd0060 	addiu	sp,sp,96
a0814cd4:	03e00008 	jr	ra
a0814cd8:	00000000 	nop

a0814cdc <phy_regs_task3>:
a0814cdc:	27bdffe0 	addiu	sp,sp,-32
a0814ce0:	afbf001c 	sw	ra,28(sp)
a0814ce4:	afbe0018 	sw	s8,24(sp)
a0814ce8:	03a0f021 	move	s8,sp
a0814cec:	24020001 	li	v0,1
a0814cf0:	afc20010 	sw	v0,16(s8)
a0814cf4:	3c02a081 	lui	v0,0xa081
a0814cf8:	8c437ab0 	lw	v1,31408(v0)
a0814cfc:	3c02a081 	lui	v0,0xa081
a0814d00:	ac437acc 	sw	v1,31436(v0)
a0814d04:	3c02a081 	lui	v0,0xa081
a0814d08:	8c437aac 	lw	v1,31404(v0)
a0814d0c:	3c02a081 	lui	v0,0xa081
a0814d10:	ac437adc 	sw	v1,31452(v0)
a0814d14:	3c02a085 	lui	v0,0xa085
a0814d18:	2444a0c0 	addiu	a0,v0,-24384
a0814d1c:	3c050001 	lui	a1,0x1
a0814d20:	0c203ad3 	jal	a080eb4c <bzero>
a0814d24:	00000000 	nop
a0814d28:	8fc20010 	lw	v0,16(s8)
a0814d2c:	24040001 	li	a0,1
a0814d30:	00402821 	move	a1,v0
a0814d34:	0c203788 	jal	a080de20 <sys_move_cursor>
a0814d38:	00000000 	nop
a0814d3c:	3c02a081 	lui	v0,0xa081
a0814d40:	244471a0 	addiu	a0,v0,29088
a0814d44:	0c203ff7 	jal	a080ffdc <printf>
a0814d48:	00000000 	nop
a0814d4c:	0c2038fc 	jal	a080e3f0 <sys_init_mac>
a0814d50:	00000000 	nop
a0814d54:	8fc20010 	lw	v0,16(s8)
a0814d58:	24420001 	addiu	v0,v0,1
a0814d5c:	24040001 	li	a0,1
a0814d60:	00402821 	move	a1,v0
a0814d64:	0c203788 	jal	a080de20 <sys_move_cursor>
a0814d68:	00000000 	nop
a0814d6c:	3c02a081 	lui	v0,0xa081
a0814d70:	244471cc 	addiu	a0,v0,29132
a0814d74:	0c203ff7 	jal	a080ffdc <printf>
a0814d78:	00000000 	nop
a0814d7c:	0c203898 	jal	a080e260 <sys_exit>
a0814d80:	00000000 	nop
a0814d84:	03c0e821 	move	sp,s8
a0814d88:	8fbf001c 	lw	ra,28(sp)
a0814d8c:	8fbe0018 	lw	s8,24(sp)
a0814d90:	27bd0020 	addiu	sp,sp,32
a0814d94:	03e00008 	jr	ra
a0814d98:	00000000 	nop

a0814d9c <recv_desc_bonus_init>:
a0814d9c:	27bdffe8 	addiu	sp,sp,-24
a0814da0:	afbf0014 	sw	ra,20(sp)
a0814da4:	afbe0010 	sw	s8,16(sp)
a0814da8:	03a0f021 	move	s8,sp
a0814dac:	afc40018 	sw	a0,24(s8)
a0814db0:	3c02a081 	lui	v0,0xa081
a0814db4:	8c427aac 	lw	v0,31404(v0)
a0814db8:	00402021 	move	a0,v0
a0814dbc:	3c02a085 	lui	v0,0xa085
a0814dc0:	2445a0c0 	addiu	a1,v0,-24384
a0814dc4:	24060400 	li	a2,1024
a0814dc8:	24070100 	li	a3,256
a0814dcc:	0c200b6c 	jal	a0802db0 <do_recv_desc_init>
a0814dd0:	00000000 	nop
a0814dd4:	03c0e821 	move	sp,s8
a0814dd8:	8fbf0014 	lw	ra,20(sp)
a0814ddc:	8fbe0010 	lw	s8,16(sp)
a0814de0:	27bd0018 	addiu	sp,sp,24
a0814de4:	03e00008 	jr	ra
a0814de8:	00000000 	nop

a0814dec <phy_regs_task_bonus>:
a0814dec:	27bdffa8 	addiu	sp,sp,-88
a0814df0:	afbf0054 	sw	ra,84(sp)
a0814df4:	afbe0050 	sw	s8,80(sp)
a0814df8:	03a0f021 	move	s8,sp
a0814dfc:	24020008 	li	v0,8
a0814e00:	afc20014 	sw	v0,20(s8)
a0814e04:	3c02bfe1 	lui	v0,0xbfe1
a0814e08:	afc20028 	sw	v0,40(s8)
a0814e0c:	3c02bfe1 	lui	v0,0xbfe1
a0814e10:	34421000 	ori	v0,v0,0x1000
a0814e14:	afc2002c 	sw	v0,44(s8)
a0814e18:	24020400 	li	v0,1024
a0814e1c:	afc20020 	sw	v0,32(s8)
a0814e20:	24020040 	li	v0,64
a0814e24:	afc20024 	sw	v0,36(s8)
a0814e28:	3c02a081 	lui	v0,0xa081
a0814e2c:	8c427aac 	lw	v0,31404(v0)
a0814e30:	00401821 	move	v1,v0
a0814e34:	3c021fff 	lui	v0,0x1fff
a0814e38:	3442ffff 	ori	v0,v0,0xffff
a0814e3c:	00621024 	and	v0,v1,v0
a0814e40:	afc2004c 	sw	v0,76(s8)
a0814e44:	3c02a081 	lui	v0,0xa081
a0814e48:	8c427aac 	lw	v0,31404(v0)
a0814e4c:	afc20044 	sw	v0,68(s8)
a0814e50:	3c02a085 	lui	v0,0xa085
a0814e54:	2442a0c0 	addiu	v0,v0,-24384
a0814e58:	afc20034 	sw	v0,52(s8)
a0814e5c:	3c02a085 	lui	v0,0xa085
a0814e60:	2443a0c0 	addiu	v1,v0,-24384
a0814e64:	3c021fff 	lui	v0,0x1fff
a0814e68:	3442ffff 	ori	v0,v0,0xffff
a0814e6c:	00621024 	and	v0,v1,v0
a0814e70:	afc2003c 	sw	v0,60(s8)
a0814e74:	3c02a081 	lui	v0,0xa081
a0814e78:	24427604 	addiu	v0,v0,30212
a0814e7c:	afc20030 	sw	v0,48(s8)
a0814e80:	27c20020 	addiu	v0,s8,32
a0814e84:	00402021 	move	a0,v0
a0814e88:	0c205367 	jal	a0814d9c <recv_desc_bonus_init>
a0814e8c:	00000000 	nop
a0814e90:	27c20020 	addiu	v0,s8,32
a0814e94:	00402021 	move	a0,v0
a0814e98:	3c020020 	lui	v0,0x20
a0814e9c:	3445001c 	ori	a1,v0,0x1c
a0814ea0:	0c205222 	jal	a0814888 <dma_control_init>
a0814ea4:	00000000 	nop
a0814ea8:	27c20020 	addiu	v0,s8,32
a0814eac:	00402021 	move	a0,v0
a0814eb0:	0c2051a8 	jal	a08146a0 <clear_interrupt>
a0814eb4:	00000000 	nop
a0814eb8:	27c20020 	addiu	v0,s8,32
a0814ebc:	00402021 	move	a0,v0
a0814ec0:	0c2051e4 	jal	a0814790 <mii_dul_force>
a0814ec4:	00000000 	nop
a0814ec8:	3c02a081 	lui	v0,0xa081
a0814ecc:	24447ad0 	addiu	a0,v0,31440
a0814ed0:	0c20213c 	jal	a08084f0 <queue_init>
a0814ed4:	00000000 	nop
a0814ed8:	8fc20014 	lw	v0,20(s8)
a0814edc:	24040001 	li	a0,1
a0814ee0:	00402821 	move	a1,v0
a0814ee4:	0c203788 	jal	a080de20 <sys_move_cursor>
a0814ee8:	00000000 	nop
a0814eec:	3c02a081 	lui	v0,0xa081
a0814ef0:	24447118 	addiu	a0,v0,28952
a0814ef4:	0c203ff7 	jal	a080ffdc <printf>
a0814ef8:	00000000 	nop
a0814efc:	afc00010 	sw	zero,16(s8)
a0814f00:	082053cf 	j	a0814f3c <phy_regs_task_bonus+0x150>
a0814f04:	00000000 	nop
a0814f08:	8fc20044 	lw	v0,68(s8)
a0814f0c:	8fc3004c 	lw	v1,76(s8)
a0814f10:	8fc60034 	lw	a2,52(s8)
a0814f14:	00402021 	move	a0,v0
a0814f18:	00602821 	move	a1,v1
a0814f1c:	0c203945 	jal	a080e514 <sys_net_fast_recv>
a0814f20:	00000000 	nop
a0814f24:	afc20018 	sw	v0,24(s8)
a0814f28:	0c203935 	jal	a080e4d4 <sys_wait_recv_package>
a0814f2c:	00000000 	nop
a0814f30:	8fc20010 	lw	v0,16(s8)
a0814f34:	24420001 	addiu	v0,v0,1
a0814f38:	afc20010 	sw	v0,16(s8)
a0814f3c:	8fc20010 	lw	v0,16(s8)
a0814f40:	28420020 	slti	v0,v0,32
a0814f44:	1440fff0 	bnez	v0,a0814f08 <phy_regs_task_bonus+0x11c>
a0814f48:	00000000 	nop
a0814f4c:	8fc20014 	lw	v0,20(s8)
a0814f50:	24420001 	addiu	v0,v0,1
a0814f54:	24040001 	li	a0,1
a0814f58:	00402821 	move	a1,v0
a0814f5c:	0c203788 	jal	a080de20 <sys_move_cursor>
a0814f60:	00000000 	nop
a0814f64:	3c02a081 	lui	v0,0xa081
a0814f68:	24447200 	addiu	a0,v0,29184
a0814f6c:	0c203ff7 	jal	a080ffdc <printf>
a0814f70:	00000000 	nop
a0814f74:	0c203898 	jal	a080e260 <sys_exit>
a0814f78:	00000000 	nop
a0814f7c:	03c0e821 	move	sp,s8
a0814f80:	8fbf0054 	lw	ra,84(sp)
a0814f84:	8fbe0050 	lw	s8,80(sp)
a0814f88:	27bd0058 	addiu	sp,sp,88
a0814f8c:	03e00008 	jr	ra
a0814f90:	00000000 	nop
	...

a0814fa0 <test_fs>:
a0814fa0:	27bdffd8 	addiu	sp,sp,-40
a0814fa4:	afbf0024 	sw	ra,36(sp)
a0814fa8:	afbe0020 	sw	s8,32(sp)
a0814fac:	03a0f021 	move	s8,sp
a0814fb0:	3c02a081 	lui	v0,0xa081
a0814fb4:	24447230 	addiu	a0,v0,29232
a0814fb8:	24050002 	li	a1,2
a0814fbc:	0c20395a 	jal	a080e568 <sys_fopen>
a0814fc0:	00000000 	nop
a0814fc4:	afc20010 	sw	v0,16(s8)
a0814fc8:	afc00018 	sw	zero,24(s8)
a0814fcc:	082053fe 	j	a0814ff8 <test_fs+0x58>
a0814fd0:	00000000 	nop
a0814fd4:	8fc40010 	lw	a0,16(s8)
a0814fd8:	3c02a081 	lui	v0,0xa081
a0814fdc:	24457238 	addiu	a1,v0,29240
a0814fe0:	2406000d 	li	a2,13
a0814fe4:	0c20396e 	jal	a080e5b8 <sys_fwrite>
a0814fe8:	00000000 	nop
a0814fec:	8fc20018 	lw	v0,24(s8)
a0814ff0:	24420001 	addiu	v0,v0,1
a0814ff4:	afc20018 	sw	v0,24(s8)
a0814ff8:	8fc20018 	lw	v0,24(s8)
a0814ffc:	2842000a 	slti	v0,v0,10
a0815000:	1440fff4 	bnez	v0,a0814fd4 <test_fs+0x34>
a0815004:	00000000 	nop
a0815008:	afc00018 	sw	zero,24(s8)
a081500c:	08205427 	j	a081509c <test_fs+0xfc>
a0815010:	00000000 	nop
a0815014:	8fc40010 	lw	a0,16(s8)
a0815018:	3c02a086 	lui	v0,0xa086
a081501c:	2445a0c0 	addiu	a1,v0,-24384
a0815020:	2406000d 	li	a2,13
a0815024:	0c203982 	jal	a080e608 <sys_fread>
a0815028:	00000000 	nop
a081502c:	24040001 	li	a0,1
a0815030:	8fc50018 	lw	a1,24(s8)
a0815034:	0c203788 	jal	a080de20 <sys_move_cursor>
a0815038:	00000000 	nop
a081503c:	afc00014 	sw	zero,20(s8)
a0815040:	08205420 	j	a0815080 <test_fs+0xe0>
a0815044:	00000000 	nop
a0815048:	8fc30014 	lw	v1,20(s8)
a081504c:	3c02a086 	lui	v0,0xa086
a0815050:	2442a0c0 	addiu	v0,v0,-24384
a0815054:	00621021 	addu	v0,v1,v0
a0815058:	80420000 	lb	v0,0(v0)
a081505c:	00401821 	move	v1,v0
a0815060:	3c02a081 	lui	v0,0xa081
a0815064:	24447248 	addiu	a0,v0,29256
a0815068:	00602821 	move	a1,v1
a081506c:	0c203ff7 	jal	a080ffdc <printf>
a0815070:	00000000 	nop
a0815074:	8fc20014 	lw	v0,20(s8)
a0815078:	24420001 	addiu	v0,v0,1
a081507c:	afc20014 	sw	v0,20(s8)
a0815080:	8fc20014 	lw	v0,20(s8)
a0815084:	2842000d 	slti	v0,v0,13
a0815088:	1440ffef 	bnez	v0,a0815048 <test_fs+0xa8>
a081508c:	00000000 	nop
a0815090:	8fc20018 	lw	v0,24(s8)
a0815094:	24420001 	addiu	v0,v0,1
a0815098:	afc20018 	sw	v0,24(s8)
a081509c:	8fc20018 	lw	v0,24(s8)
a08150a0:	2842000a 	slti	v0,v0,10
a08150a4:	1440ffdb 	bnez	v0,a0815014 <test_fs+0x74>
a08150a8:	00000000 	nop
a08150ac:	8fc40010 	lw	a0,16(s8)
a08150b0:	0c203996 	jal	a080e658 <sys_fclose>
a08150b4:	00000000 	nop
a08150b8:	0c203898 	jal	a080e260 <sys_exit>
a08150bc:	00000000 	nop
a08150c0:	03c0e821 	move	sp,s8
a08150c4:	8fbf0024 	lw	ra,36(sp)
a08150c8:	8fbe0020 	lw	s8,32(sp)
a08150cc:	27bd0028 	addiu	sp,sp,40
a08150d0:	03e00008 	jr	ra
a08150d4:	00000000 	nop
	...

a08150e8 <.pic.sdwrite>:
a08150e8:	3c19a081 	lui	t9,0xa081
a08150ec:	273950f0 	addiu	t9,t9,20720

a08150f0 <sdwrite>:
a08150f0:	27bdffb8 	addiu	sp,sp,-72
a08150f4:	afbf0044 	sw	ra,68(sp)
a08150f8:	afbe0040 	sw	s8,64(sp)
a08150fc:	03a0f021 	move	s8,sp
a0815100:	3c1ca082 	lui	gp,0xa082
a0815104:	279cfa80 	addiu	gp,gp,-1408
a0815108:	afbc0010 	sw	gp,16(sp)
a081510c:	afc40048 	sw	a0,72(s8)
a0815110:	afc5004c 	sw	a1,76(s8)
a0815114:	afc60050 	sw	a2,80(s8)
a0815118:	3c028005 	lui	v0,0x8005
a081511c:	3442f65c 	ori	v0,v0,0xf65c
a0815120:	afc20034 	sw	v0,52(s8)
a0815124:	8f99801c 	lw	t9,-32740(gp)
a0815128:	00000000 	nop
a081512c:	0320f809 	jalr	t9
a0815130:	00000000 	nop
a0815134:	8fdc0010 	lw	gp,16(s8)
a0815138:	1040000d 	beqz	v0,a0815170 <sdwrite+0x80>
a081513c:	00000000 	nop
a0815140:	3c028007 	lui	v0,0x8007
a0815144:	3442aba4 	ori	v0,v0,0xaba4
a0815148:	afc20030 	sw	v0,48(s8)
a081514c:	8fd90030 	lw	t9,48(s8)
a0815150:	8fc4004c 	lw	a0,76(s8)
a0815154:	8fc50050 	lw	a1,80(s8)
a0815158:	8fc60048 	lw	a2,72(s8)
a081515c:	0320f809 	jalr	t9
a0815160:	00000000 	nop
a0815164:	8fdc0010 	lw	gp,16(s8)
a0815168:	10000052 	b	a08152b4 <sdwrite+0x1c4>
a081516c:	00000000 	nop
a0815170:	3c028007 	lui	v0,0x8007
a0815174:	34429cd8 	ori	v0,v0,0x9cd8
a0815178:	afc20028 	sw	v0,40(s8)
a081517c:	8fc2004c 	lw	v0,76(s8)
a0815180:	00000000 	nop
a0815184:	afc20024 	sw	v0,36(s8)
a0815188:	8fc20050 	lw	v0,80(s8)
a081518c:	00000000 	nop
a0815190:	afc20020 	sw	v0,32(s8)
a0815194:	3c02a010 	lui	v0,0xa010
a0815198:	34420400 	ori	v0,v0,0x400
a081519c:	afc20018 	sw	v0,24(s8)
a08151a0:	1000003d 	b	a0815298 <sdwrite+0x1a8>
a08151a4:	00000000 	nop
a08151a8:	8fc20024 	lw	v0,36(s8)
a08151ac:	00000000 	nop
a08151b0:	304301ff 	andi	v1,v0,0x1ff
a08151b4:	24020200 	li	v0,512
a08151b8:	00431023 	subu	v0,v0,v1
a08151bc:	8fc30020 	lw	v1,32(s8)
a08151c0:	00000000 	nop
a08151c4:	afc3003c 	sw	v1,60(s8)
a08151c8:	afc20038 	sw	v0,56(s8)
a08151cc:	8fc40038 	lw	a0,56(s8)
a08151d0:	8fc3003c 	lw	v1,60(s8)
a08151d4:	00000000 	nop
a08151d8:	0064102b 	sltu	v0,v1,a0
a08151dc:	10400004 	beqz	v0,a08151f0 <sdwrite+0x100>
a08151e0:	00000000 	nop
a08151e4:	8fc4003c 	lw	a0,60(s8)
a08151e8:	00000000 	nop
a08151ec:	afc40038 	sw	a0,56(s8)
a08151f0:	8fc20038 	lw	v0,56(s8)
a08151f4:	00000000 	nop
a08151f8:	afc2001c 	sw	v0,28(s8)
a08151fc:	8fc20024 	lw	v0,36(s8)
a0815200:	00000000 	nop
a0815204:	304301ff 	andi	v1,v0,0x1ff
a0815208:	8fc20018 	lw	v0,24(s8)
a081520c:	00000000 	nop
a0815210:	00431021 	addu	v0,v0,v1
a0815214:	00402021 	move	a0,v0
a0815218:	8fc50048 	lw	a1,72(s8)
a081521c:	8fc6001c 	lw	a2,28(s8)
a0815220:	8f998020 	lw	t9,-32736(gp)
a0815224:	00000000 	nop
a0815228:	0320f809 	jalr	t9
a081522c:	00000000 	nop
a0815230:	8fdc0010 	lw	gp,16(s8)
a0815234:	8fc20024 	lw	v0,36(s8)
a0815238:	00000000 	nop
a081523c:	00021242 	srl	v0,v0,0x9
a0815240:	00402021 	move	a0,v0
a0815244:	8fc50018 	lw	a1,24(s8)
a0815248:	8f998018 	lw	t9,-32744(gp)
a081524c:	00000000 	nop
a0815250:	0320f809 	jalr	t9
a0815254:	00000000 	nop
a0815258:	8fdc0010 	lw	gp,16(s8)
a081525c:	8fc30048 	lw	v1,72(s8)
a0815260:	8fc2001c 	lw	v0,28(s8)
a0815264:	00000000 	nop
a0815268:	00621021 	addu	v0,v1,v0
a081526c:	afc20048 	sw	v0,72(s8)
a0815270:	8fc30024 	lw	v1,36(s8)
a0815274:	8fc2001c 	lw	v0,28(s8)
a0815278:	00000000 	nop
a081527c:	00621021 	addu	v0,v1,v0
a0815280:	afc20024 	sw	v0,36(s8)
a0815284:	8fc30020 	lw	v1,32(s8)
a0815288:	8fc2001c 	lw	v0,28(s8)
a081528c:	00000000 	nop
a0815290:	00621023 	subu	v0,v1,v0
a0815294:	afc20020 	sw	v0,32(s8)
a0815298:	8fc20020 	lw	v0,32(s8)
a081529c:	00000000 	nop
a08152a0:	1440ffc1 	bnez	v0,a08151a8 <sdwrite+0xb8>
a08152a4:	00000000 	nop
a08152a8:	8fc20024 	lw	v0,36(s8)
a08152ac:	00000000 	nop
a08152b0:	afc2004c 	sw	v0,76(s8)
a08152b4:	8fc20050 	lw	v0,80(s8)
a08152b8:	03c0e821 	move	sp,s8
a08152bc:	8fbf0044 	lw	ra,68(sp)
a08152c0:	8fbe0040 	lw	s8,64(sp)
a08152c4:	27bd0048 	addiu	sp,sp,72
a08152c8:	03e00008 	jr	ra
a08152cc:	00000000 	nop
	...

a08152d8 <.pic.sdread>:
a08152d8:	3c19a081 	lui	t9,0xa081
a08152dc:	273952e0 	addiu	t9,t9,21216

a08152e0 <sdread>:
a08152e0:	27bdffb8 	addiu	sp,sp,-72
a08152e4:	afbf0044 	sw	ra,68(sp)
a08152e8:	afbe0040 	sw	s8,64(sp)
a08152ec:	03a0f021 	move	s8,sp
a08152f0:	3c1ca082 	lui	gp,0xa082
a08152f4:	279cfa80 	addiu	gp,gp,-1408
a08152f8:	afbc0010 	sw	gp,16(sp)
a08152fc:	afc40048 	sw	a0,72(s8)
a0815300:	afc5004c 	sw	a1,76(s8)
a0815304:	afc60050 	sw	a2,80(s8)
a0815308:	3c028005 	lui	v0,0x8005
a081530c:	3442f65c 	ori	v0,v0,0xf65c
a0815310:	afc20034 	sw	v0,52(s8)
a0815314:	8f99801c 	lw	t9,-32740(gp)
a0815318:	00000000 	nop
a081531c:	0320f809 	jalr	t9
a0815320:	00000000 	nop
a0815324:	8fdc0010 	lw	gp,16(s8)
a0815328:	1040000d 	beqz	v0,a0815360 <sdread+0x80>
a081532c:	00000000 	nop
a0815330:	3c028007 	lui	v0,0x8007
a0815334:	3442b1cc 	ori	v0,v0,0xb1cc
a0815338:	afc20030 	sw	v0,48(s8)
a081533c:	8fd90030 	lw	t9,48(s8)
a0815340:	8fc40048 	lw	a0,72(s8)
a0815344:	8fc5004c 	lw	a1,76(s8)
a0815348:	8fc60050 	lw	a2,80(s8)
a081534c:	0320f809 	jalr	t9
a0815350:	00000000 	nop
a0815354:	8fdc0010 	lw	gp,16(s8)
a0815358:	10000051 	b	a08154a0 <sdread+0x1c0>
a081535c:	00000000 	nop
a0815360:	3c028007 	lui	v0,0x8007
a0815364:	34429cd8 	ori	v0,v0,0x9cd8
a0815368:	afc20028 	sw	v0,40(s8)
a081536c:	8fc2004c 	lw	v0,76(s8)
a0815370:	00000000 	nop
a0815374:	afc20024 	sw	v0,36(s8)
a0815378:	8fc20050 	lw	v0,80(s8)
a081537c:	00000000 	nop
a0815380:	afc20020 	sw	v0,32(s8)
a0815384:	3c02a010 	lui	v0,0xa010
a0815388:	34420200 	ori	v0,v0,0x200
a081538c:	afc20018 	sw	v0,24(s8)
a0815390:	1000003c 	b	a0815484 <sdread+0x1a4>
a0815394:	00000000 	nop
a0815398:	8fc20024 	lw	v0,36(s8)
a081539c:	00000000 	nop
a08153a0:	00021242 	srl	v0,v0,0x9
a08153a4:	8fd90028 	lw	t9,40(s8)
a08153a8:	00402021 	move	a0,v0
a08153ac:	8fc50018 	lw	a1,24(s8)
a08153b0:	0320f809 	jalr	t9
a08153b4:	00000000 	nop
a08153b8:	8fdc0010 	lw	gp,16(s8)
a08153bc:	8fc20024 	lw	v0,36(s8)
a08153c0:	00000000 	nop
a08153c4:	304301ff 	andi	v1,v0,0x1ff
a08153c8:	24020200 	li	v0,512
a08153cc:	00431023 	subu	v0,v0,v1
a08153d0:	8fc30020 	lw	v1,32(s8)
a08153d4:	00000000 	nop
a08153d8:	afc3003c 	sw	v1,60(s8)
a08153dc:	afc20038 	sw	v0,56(s8)
a08153e0:	8fc40038 	lw	a0,56(s8)
a08153e4:	8fc3003c 	lw	v1,60(s8)
a08153e8:	00000000 	nop
a08153ec:	0064102b 	sltu	v0,v1,a0
a08153f0:	10400004 	beqz	v0,a0815404 <sdread+0x124>
a08153f4:	00000000 	nop
a08153f8:	8fc4003c 	lw	a0,60(s8)
a08153fc:	00000000 	nop
a0815400:	afc40038 	sw	a0,56(s8)
a0815404:	8fc20038 	lw	v0,56(s8)
a0815408:	00000000 	nop
a081540c:	afc2001c 	sw	v0,28(s8)
a0815410:	8fc20024 	lw	v0,36(s8)
a0815414:	00000000 	nop
a0815418:	304301ff 	andi	v1,v0,0x1ff
a081541c:	8fc20018 	lw	v0,24(s8)
a0815420:	00000000 	nop
a0815424:	00431021 	addu	v0,v0,v1
a0815428:	8fc40048 	lw	a0,72(s8)
a081542c:	00402821 	move	a1,v0
a0815430:	8fc6001c 	lw	a2,28(s8)
a0815434:	8f998020 	lw	t9,-32736(gp)
a0815438:	00000000 	nop
a081543c:	0320f809 	jalr	t9
a0815440:	00000000 	nop
a0815444:	8fdc0010 	lw	gp,16(s8)
a0815448:	8fc30048 	lw	v1,72(s8)
a081544c:	8fc2001c 	lw	v0,28(s8)
a0815450:	00000000 	nop
a0815454:	00621021 	addu	v0,v1,v0
a0815458:	afc20048 	sw	v0,72(s8)
a081545c:	8fc30024 	lw	v1,36(s8)
a0815460:	8fc2001c 	lw	v0,28(s8)
a0815464:	00000000 	nop
a0815468:	00621021 	addu	v0,v1,v0
a081546c:	afc20024 	sw	v0,36(s8)
a0815470:	8fc30020 	lw	v1,32(s8)
a0815474:	8fc2001c 	lw	v0,28(s8)
a0815478:	00000000 	nop
a081547c:	00621023 	subu	v0,v1,v0
a0815480:	afc20020 	sw	v0,32(s8)
a0815484:	8fc20020 	lw	v0,32(s8)
a0815488:	00000000 	nop
a081548c:	1440ffc2 	bnez	v0,a0815398 <sdread+0xb8>
a0815490:	00000000 	nop
a0815494:	8fc20024 	lw	v0,36(s8)
a0815498:	00000000 	nop
a081549c:	afc2004c 	sw	v0,76(s8)
a08154a0:	8fc20050 	lw	v0,80(s8)
a08154a4:	03c0e821 	move	sp,s8
a08154a8:	8fbf0044 	lw	ra,68(sp)
a08154ac:	8fbe0040 	lw	s8,64(sp)
a08154b0:	27bd0048 	addiu	sp,sp,72
a08154b4:	03e00008 	jr	ra
a08154b8:	00000000 	nop
a08154bc:	00000000 	nop

a08154c0 <memcopy>:
a08154c0:	27bdffe8 	addiu	sp,sp,-24
a08154c4:	afbe0014 	sw	s8,20(sp)
a08154c8:	03a0f021 	move	s8,sp
a08154cc:	afbc0000 	sw	gp,0(sp)
a08154d0:	afc40018 	sw	a0,24(s8)
a08154d4:	afc5001c 	sw	a1,28(s8)
a08154d8:	afc60020 	sw	a2,32(s8)
a08154dc:	8fc2001c 	lw	v0,28(s8)
a08154e0:	00000000 	nop
a08154e4:	afc2000c 	sw	v0,12(s8)
a08154e8:	8fc20018 	lw	v0,24(s8)
a08154ec:	00000000 	nop
a08154f0:	afc20008 	sw	v0,8(s8)
a08154f4:	8fc3000c 	lw	v1,12(s8)
a08154f8:	8fc20008 	lw	v0,8(s8)
a08154fc:	00000000 	nop
a0815500:	0062102b 	sltu	v0,v1,v0
a0815504:	10400035 	beqz	v0,a08155dc <memcopy+0x11c>
a0815508:	00000000 	nop
a081550c:	8fc30020 	lw	v1,32(s8)
a0815510:	8fc2000c 	lw	v0,12(s8)
a0815514:	00000000 	nop
a0815518:	00431021 	addu	v0,v0,v1
a081551c:	afc2000c 	sw	v0,12(s8)
a0815520:	8fc30020 	lw	v1,32(s8)
a0815524:	8fc20008 	lw	v0,8(s8)
a0815528:	00000000 	nop
a081552c:	00431021 	addu	v0,v0,v1
a0815530:	afc20008 	sw	v0,8(s8)
a0815534:	1000000f 	b	a0815574 <memcopy+0xb4>
a0815538:	00000000 	nop
a081553c:	8fc20008 	lw	v0,8(s8)
a0815540:	00000000 	nop
a0815544:	2442ffff 	addiu	v0,v0,-1
a0815548:	afc20008 	sw	v0,8(s8)
a081554c:	8fc2000c 	lw	v0,12(s8)
a0815550:	00000000 	nop
a0815554:	2442ffff 	addiu	v0,v0,-1
a0815558:	afc2000c 	sw	v0,12(s8)
a081555c:	8fc2000c 	lw	v0,12(s8)
a0815560:	00000000 	nop
a0815564:	80430000 	lb	v1,0(v0)
a0815568:	8fc20008 	lw	v0,8(s8)
a081556c:	00000000 	nop
a0815570:	a0430000 	sb	v1,0(v0)
a0815574:	8fc20020 	lw	v0,32(s8)
a0815578:	00000000 	nop
a081557c:	0002102a 	slt	v0,zero,v0
a0815580:	304300ff 	andi	v1,v0,0xff
a0815584:	8fc20020 	lw	v0,32(s8)
a0815588:	00000000 	nop
a081558c:	2442ffff 	addiu	v0,v0,-1
a0815590:	afc20020 	sw	v0,32(s8)
a0815594:	1460ffe9 	bnez	v1,a081553c <memcopy+0x7c>
a0815598:	00000000 	nop
a081559c:	10000019 	b	a0815604 <memcopy+0x144>
a08155a0:	00000000 	nop
a08155a4:	8fc2000c 	lw	v0,12(s8)
a08155a8:	00000000 	nop
a08155ac:	80430000 	lb	v1,0(v0)
a08155b0:	8fc20008 	lw	v0,8(s8)
a08155b4:	00000000 	nop
a08155b8:	a0430000 	sb	v1,0(v0)
a08155bc:	8fc20008 	lw	v0,8(s8)
a08155c0:	00000000 	nop
a08155c4:	24420001 	addiu	v0,v0,1
a08155c8:	afc20008 	sw	v0,8(s8)
a08155cc:	8fc2000c 	lw	v0,12(s8)
a08155d0:	00000000 	nop
a08155d4:	24420001 	addiu	v0,v0,1
a08155d8:	afc2000c 	sw	v0,12(s8)
a08155dc:	8fc20020 	lw	v0,32(s8)
a08155e0:	00000000 	nop
a08155e4:	0002102a 	slt	v0,zero,v0
a08155e8:	304300ff 	andi	v1,v0,0xff
a08155ec:	8fc20020 	lw	v0,32(s8)
a08155f0:	00000000 	nop
a08155f4:	2442ffff 	addiu	v0,v0,-1
a08155f8:	afc20020 	sw	v0,32(s8)
a08155fc:	1460ffe9 	bnez	v1,a08155a4 <memcopy+0xe4>
a0815600:	00000000 	nop
a0815604:	8fc20018 	lw	v0,24(s8)
a0815608:	03c0e821 	move	sp,s8
a081560c:	8fbe0014 	lw	s8,20(sp)
a0815610:	27bd0018 	addiu	sp,sp,24
a0815614:	03e00008 	jr	ra
a0815618:	00000000 	nop
a081561c:	00000000 	nop

a0815620 <Write_Single_Block>:
a0815620:	27bdffc0 	addiu	sp,sp,-64
a0815624:	afbf003c 	sw	ra,60(sp)
a0815628:	afbe0038 	sw	s8,56(sp)
a081562c:	03a0f021 	move	s8,sp
a0815630:	afbc0010 	sw	gp,16(sp)
a0815634:	afc40040 	sw	a0,64(s8)
a0815638:	afc50044 	sw	a1,68(s8)
a081563c:	3c028007 	lui	v0,0x8007
a0815640:	344294c0 	ori	v0,v0,0x94c0
a0815644:	afc20034 	sw	v0,52(s8)
a0815648:	3c028007 	lui	v0,0x8007
a081564c:	344294f8 	ori	v0,v0,0x94f8
a0815650:	afc20030 	sw	v0,48(s8)
a0815654:	3c028007 	lui	v0,0x8007
a0815658:	34429528 	ori	v0,v0,0x9528
a081565c:	afc2002c 	sw	v0,44(s8)
a0815660:	3c028007 	lui	v0,0x8007
a0815664:	34429564 	ori	v0,v0,0x9564
a0815668:	afc20028 	sw	v0,40(s8)
a081566c:	3c028007 	lui	v0,0x8007
a0815670:	34429588 	ori	v0,v0,0x9588
a0815674:	afc20024 	sw	v0,36(s8)
a0815678:	2402000a 	li	v0,10
a081567c:	afc20018 	sw	v0,24(s8)
a0815680:	afc00020 	sw	zero,32(s8)
a0815684:	10000012 	b	a08156d0 <Write_Single_Block+0xb0>
a0815688:	00000000 	nop
a081568c:	8fd90024 	lw	t9,36(s8)
a0815690:	24040018 	li	a0,24
a0815694:	8fc50040 	lw	a1,64(s8)
a0815698:	24060001 	li	a2,1
a081569c:	24070001 	li	a3,1
a08156a0:	0320f809 	jalr	t9
a08156a4:	00000000 	nop
a08156a8:	8fdc0010 	lw	gp,16(s8)
a08156ac:	afc2001c 	sw	v0,28(s8)
a08156b0:	8fc3001c 	lw	v1,28(s8)
a08156b4:	3402ff00 	li	v0,0xff00
a08156b8:	1062000b 	beq	v1,v0,a08156e8 <Write_Single_Block+0xc8>
a08156bc:	00000000 	nop
a08156c0:	8fc20020 	lw	v0,32(s8)
a08156c4:	00000000 	nop
a08156c8:	24420001 	addiu	v0,v0,1
a08156cc:	afc20020 	sw	v0,32(s8)
a08156d0:	8fc20020 	lw	v0,32(s8)
a08156d4:	8fc30018 	lw	v1,24(s8)
a08156d8:	00000000 	nop
a08156dc:	0043102b 	sltu	v0,v0,v1
a08156e0:	1440ffea 	bnez	v0,a081568c <Write_Single_Block+0x6c>
a08156e4:	00000000 	nop
a08156e8:	8fd90034 	lw	t9,52(s8)
a08156ec:	240400ff 	li	a0,255
a08156f0:	0320f809 	jalr	t9
a08156f4:	00000000 	nop
a08156f8:	8fdc0010 	lw	gp,16(s8)
a08156fc:	8fd9002c 	lw	t9,44(s8)
a0815700:	240400fe 	li	a0,254
a0815704:	0320f809 	jalr	t9
a0815708:	00000000 	nop
a081570c:	8fdc0010 	lw	gp,16(s8)
a0815710:	afc00020 	sw	zero,32(s8)
a0815714:	1000001d 	b	a081578c <Write_Single_Block+0x16c>
a0815718:	00000000 	nop
a081571c:	8fc20020 	lw	v0,32(s8)
a0815720:	00000000 	nop
a0815724:	00021840 	sll	v1,v0,0x1
a0815728:	8fc20044 	lw	v0,68(s8)
a081572c:	00000000 	nop
a0815730:	00431021 	addu	v0,v0,v1
a0815734:	90420000 	lbu	v0,0(v0)
a0815738:	00000000 	nop
a081573c:	00022200 	sll	a0,v0,0x8
a0815740:	8fc20020 	lw	v0,32(s8)
a0815744:	00000000 	nop
a0815748:	00021040 	sll	v0,v0,0x1
a081574c:	24430001 	addiu	v1,v0,1
a0815750:	8fc20044 	lw	v0,68(s8)
a0815754:	00000000 	nop
a0815758:	00431021 	addu	v0,v0,v1
a081575c:	90420000 	lbu	v0,0(v0)
a0815760:	00000000 	nop
a0815764:	00821025 	or	v0,a0,v0
a0815768:	8fd90030 	lw	t9,48(s8)
a081576c:	00402021 	move	a0,v0
a0815770:	0320f809 	jalr	t9
a0815774:	00000000 	nop
a0815778:	8fdc0010 	lw	gp,16(s8)
a081577c:	8fc20020 	lw	v0,32(s8)
a0815780:	00000000 	nop
a0815784:	24420001 	addiu	v0,v0,1
a0815788:	afc20020 	sw	v0,32(s8)
a081578c:	8fc20020 	lw	v0,32(s8)
a0815790:	00000000 	nop
a0815794:	2c420100 	sltiu	v0,v0,256
a0815798:	1440ffe0 	bnez	v0,a081571c <Write_Single_Block+0xfc>
a081579c:	00000000 	nop
a08157a0:	8fd90030 	lw	t9,48(s8)
a08157a4:	3404ffff 	li	a0,0xffff
a08157a8:	0320f809 	jalr	t9
a08157ac:	00000000 	nop
a08157b0:	8fdc0010 	lw	gp,16(s8)
a08157b4:	8fd90028 	lw	t9,40(s8)
a08157b8:	00000000 	nop
a08157bc:	0320f809 	jalr	t9
a08157c0:	00000000 	nop
a08157c4:	8fdc0010 	lw	gp,16(s8)
a08157c8:	afc2001c 	sw	v0,28(s8)
a08157cc:	8fd90028 	lw	t9,40(s8)
a08157d0:	00000000 	nop
a08157d4:	0320f809 	jalr	t9
a08157d8:	00000000 	nop
a08157dc:	8fdc0010 	lw	gp,16(s8)
a08157e0:	00401821 	move	v1,v0
a08157e4:	3402ffff 	li	v0,0xffff
a08157e8:	1462fff8 	bne	v1,v0,a08157cc <Write_Single_Block+0x1ac>
a08157ec:	00000000 	nop
a08157f0:	3c02bfe8 	lui	v0,0xbfe8
a08157f4:	34430005 	ori	v1,v0,0x5
a08157f8:	2402ffff 	li	v0,-1
a08157fc:	a0620000 	sb	v0,0(v1)
a0815800:	8fd90034 	lw	t9,52(s8)
a0815804:	240400ff 	li	a0,255
a0815808:	0320f809 	jalr	t9
a081580c:	00000000 	nop
a0815810:	8fdc0010 	lw	gp,16(s8)
a0815814:	8fc2001c 	lw	v0,28(s8)
a0815818:	03c0e821 	move	sp,s8
a081581c:	8fbf003c 	lw	ra,60(sp)
a0815820:	8fbe0038 	lw	s8,56(sp)
a0815824:	27bd0040 	addiu	sp,sp,64
a0815828:	03e00008 	jr	ra
a081582c:	00000000 	nop

a0815830 <isQEMU>:
a0815830:	27bdffe0 	addiu	sp,sp,-32
a0815834:	afbe001c 	sw	s8,28(sp)
a0815838:	03a0f021 	move	s8,sp
a081583c:	afbc0000 	sw	gp,0(sp)
a0815840:	3c028005 	lui	v0,0x8005
a0815844:	3442f65c 	ori	v0,v0,0xf65c
a0815848:	afc20008 	sw	v0,8(s8)
a081584c:	8fc20008 	lw	v0,8(s8)
a0815850:	00000000 	nop
a0815854:	8c430000 	lw	v1,0(v0)
a0815858:	3c0227bd 	lui	v0,0x27bd
a081585c:	3442ffa8 	ori	v0,v0,0xffa8
a0815860:	14620005 	bne	v1,v0,a0815878 <isQEMU+0x48>
a0815864:	00000000 	nop
a0815868:	24020001 	li	v0,1
a081586c:	afc20010 	sw	v0,16(s8)
a0815870:	10000002 	b	a081587c <isQEMU+0x4c>
a0815874:	00000000 	nop
a0815878:	afc00010 	sw	zero,16(s8)
a081587c:	8fc20010 	lw	v0,16(s8)
a0815880:	03c0e821 	move	sp,s8
a0815884:	8fbe001c 	lw	s8,28(sp)
a0815888:	27bd0020 	addiu	sp,sp,32
a081588c:	03e00008 	jr	ra
a0815890:	00000000 	nop
	...
a08158a0:	255b6325 	addiu	k1,t2,25381
a08158a4:	64253b64 	daddiu	a1,at,15204
a08158a8:	00000048 	0x48
a08158ac:	325b6325 	andi	k1,s2,0x6325
a08158b0:	0000004a 	0x4a
a08158b4:	3f5b6325 	0x3f5b6325
a08158b8:	006c3532 	tlt	v1,t4,0xd4
a08158bc:	00000000 	nop
a08158c0:	445b3e3e 	0x445b3e3e
a08158c4:	5220414d 	beqzl	s1,a0825dfc <_gp+0x637c>
a08158c8:	73696765 	0x73696765
a08158cc:	5d726574 	0x5d726574
a08158d0:	0000000a 	0xa
a08158d4:	305b2020 	andi	k1,v0,0x2020
a08158d8:	7542205d 	jalx	a5088174 <__bbs_end+0x4813548>
a08158dc:	6f4d2073 	ldr	t5,8307(k0)
a08158e0:	3a206564 	xori	zero,s1,0x6564
a08158e4:	25783020 	addiu	t8,t3,12320
a08158e8:	00202c78 	0x202c78
a08158ec:	335b2020 	andi	k1,k0,0x2020
a08158f0:	205d342d 	addi	sp,v0,13357
a08158f4:	522f5854 	beql	s1,t7,a082ba48 <_gp+0xbfc8>
a08158f8:	203a2058 	addi	k0,at,8280
a08158fc:	78257830 	0x78257830
a0815900:	2578302f 	addiu	t8,t3,12335
a0815904:	00000a78 	dsll	at,zero,0x9
a0815908:	355b2020 	ori	k1,t2,0x2020
a081590c:	7453205d 	jalx	a14c8174 <__bbs_end+0xc53548>
a0815910:	73757461 	0x73757461
a0815914:	30203a20 	andi	zero,at,0x3a20
a0815918:	2c782578 	sltiu	t8,v1,9592
a081591c:	00000020 	add	zero,zero,zero
a0815920:	365b2020 	ori	k1,s2,0x2020
a0815924:	6f43205d 	ldr	v1,8285(k0)
a0815928:	6f72746e 	ldr	s2,29806(k1)
a081592c:	203a206c 	addi	k0,at,8300
a0815930:	78257830 	0x78257830
a0815934:	0000000a 	0xa
a0815938:	375b2020 	ori	k1,k0,0x2020
a081593c:	6e49205d 	ldr	t1,8285(s2)
a0815940:	72726574 	0x72726574
a0815944:	20747075 	addi	s4,v1,28789
a0815948:	7830203a 	0x7830203a
a081594c:	202c7825 	addi	t4,at,30757
a0815950:	00000000 	nop
a0815954:	385b2020 	xori	k1,v0,0x2020
a0815958:	694d205d 	ldl	t5,8285(t2)
a081595c:	64657373 	daddiu	a1,v1,29555
a0815960:	30203a20 	andi	zero,at,0x3a20
a0815964:	0a782578 	j	a9e095e0 <__bbs_end+0x95949b4>
a0815968:	00000000 	nop
a081596c:	315b2020 	andi	k1,t2,0x2020
a0815970:	39312d38 	xori	s1,t1,0x2d38
a0815974:	7543205d 	jalx	a50c8174 <__bbs_end+0x4853548>
a0815978:	6e657272 	ldr	a1,29298(s3)
a081597c:	6f482074 	ldr	t0,8308(k0)
a0815980:	54207473 	bnezl	at,a0832b50 <superblock_buffer+0xa60>
a0815984:	58522f58 	0x58522f58
a0815988:	73654420 	0x73654420
a081598c:	70697263 	0x70697263
a0815990:	6e6f6974 	ldr	t7,26996(s3)
a0815994:	30203a20 	andi	zero,at,0x3a20
a0815998:	2f782578 	sltiu	t8,k1,9592
a081599c:	78257830 	0x78257830
a08159a0:	0000000a 	0xa
a08159a4:	325b2020 	andi	k1,s2,0x2020
a08159a8:	31322d30 	andi	s2,t1,0x2d30
a08159ac:	7543205d 	jalx	a50c8174 <__bbs_end+0x4853548>
a08159b0:	6e657272 	ldr	a1,29298(s3)
a08159b4:	6f482074 	ldr	t0,8308(k0)
a08159b8:	54207473 	bnezl	at,a0832b88 <superblock_buffer+0xa98>
a08159bc:	58522f58 	0x58522f58
a08159c0:	66754220 	daddiu	s5,s3,16928
a08159c4:	20726566 	addi	s2,v1,25958
a08159c8:	72646441 	0x72646441
a08159cc:	20737365 	addi	s3,v1,29541
a08159d0:	7830203a 	0x7830203a
a08159d4:	302f7825 	andi	t7,at,0x7825
a08159d8:	0a782578 	j	a9e095e0 <__bbs_end+0x95949b4>
a08159dc:	00000000 	nop
a08159e0:	4d5b3e3e 	0x4d5b3e3e
a08159e4:	52204341 	beqzl	s1,a08266ec <_gp+0x6c6c>
a08159e8:	73696765 	0x73696765
a08159ec:	5d726574 	0x5d726574
a08159f0:	0000000a 	0xa
a08159f4:	305b2020 	andi	k1,v0,0x2020
a08159f8:	6f43205d 	ldr	v1,8285(k0)
a08159fc:	6769666e 	daddiu	t1,k1,26222
a0815a00:	20657275 	addi	a1,v1,29301
a0815a04:	7830203a 	0x7830203a
a0815a08:	202c7825 	addi	t4,at,30757
a0815a0c:	00000000 	nop
a0815a10:	315b2020 	andi	k1,t2,0x2020
a0815a14:	7246205d 	0x7246205d
a0815a18:	20656d61 	addi	a1,v1,28001
a0815a1c:	746c6946 	jalx	a1b1a518 <__bbs_end+0x12a58ec>
a0815a20:	3a207265 	xori	zero,s1,0x7265
a0815a24:	25783020 	addiu	t8,t3,12320
a0815a28:	00000a78 	dsll	at,zero,0x9
a0815a2c:	325b2020 	andi	k1,s2,0x2020
a0815a30:	205d332d 	addi	sp,v0,13101
a0815a34:	68736148 	ldl	s3,24904(v1)
a0815a38:	62615420 	daddi	at,s3,21536
a0815a3c:	4820656c 	0x4820656c
a0815a40:	2f686769 	sltiu	t0,k1,26473
a0815a44:	20776f4c 	addi	s7,v1,28492
a0815a48:	7830203a 	0x7830203a
a0815a4c:	302d7825 	andi	t5,at,0x7825
a0815a50:	0a782578 	j	a9e095e0 <__bbs_end+0x95949b4>
a0815a54:	00000000 	nop
a0815a58:	365b2020 	ori	k1,s2,0x2020
a0815a5c:	6c46205d 	ldr	a2,8285(v0)
a0815a60:	4320776f 	c0	0x120776f
a0815a64:	72746e6f 	0x72746e6f
a0815a68:	3a206c6f 	xori	zero,s1,0x6c6f
a0815a6c:	25783020 	addiu	t8,t3,12320
a0815a70:	00202c78 	0x202c78
a0815a74:	385b2020 	xori	k1,v0,0x2020
a0815a78:	6556205d 	daddiu	s6,t2,8285
a0815a7c:	6f697372 	ldr	t1,29554(k1)
a0815a80:	203a206e 	addi	k0,at,8302
a0815a84:	78257830 	0x78257830
a0815a88:	0000000a 	0xa
a0815a8c:	315b2020 	andi	k1,t2,0x2020
a0815a90:	35312d34 	ori	s1,t1,0x2d34
a0815a94:	6e49205d 	ldr	t1,8285(s2)
a0815a98:	72726574 	0x72726574
a0815a9c:	20747075 	addi	s4,v1,28789
a0815aa0:	74617453 	jalx	a185d14c <__bbs_end+0xfe8520>
a0815aa4:	4d2f7375 	0x4d2f7375
a0815aa8:	206b7361 	addi	t3,v1,29537
a0815aac:	7830203a 	0x7830203a
a0815ab0:	302f7825 	andi	t7,at,0x7825
a0815ab4:	0a782578 	j	a9e095e0 <__bbs_end+0x95949b4>
a0815ab8:	00000000 	nop
a0815abc:	315b2020 	andi	k1,t2,0x2020
a0815ac0:	37312d36 	ori	s1,t9,0x2d36
a0815ac4:	614d205d 	daddi	t5,t2,8285
a0815ac8:	64412063 	daddiu	at,v0,8291
a0815acc:	3a207264 	xori	zero,s1,0x7264
a0815ad0:	3a582520 	xori	t8,s2,0x2520
a0815ad4:	253a5825 	addiu	k0,t1,22565
a0815ad8:	58253a58 	0x58253a58
a0815adc:	3a58253a 	xori	t8,s2,0x253a
a0815ae0:	000a5825 	or	t3,zero,t2
a0815ae4:	335b2020 	andi	k1,k0,0x2020
a0815ae8:	205d342d 	addi	sp,v0,13357
a0815aec:	542f5852 	bnel	at,t7,a082bc38 <_gp+0xc1b8>
a0815af0:	203a2058 	addi	k0,at,8280
a0815af4:	78257830 	0x78257830
a0815af8:	2578302f 	addiu	t8,t3,12335
a0815afc:	00000a78 	dsll	at,zero,0x9
a0815b00:	646e6573 	daddiu	t6,v1,25971
a0815b04:	66756220 	daddiu	s5,s3,25120
a0815b08:	20726566 	addi	s2,v1,25958
a0815b0c:	2d63616d 	sltiu	v1,t3,24941
a0815b10:	6461733e 	daddiu	at,v1,29502
a0815b14:	303d7264 	andi	sp,at,0x7264
a0815b18:	20782578 	addi	t8,v1,9592
a0815b1c:	00000000 	nop
a0815b20:	2d63616d 	sltiu	v1,t3,24941
a0815b24:	6461733e 	daddiu	at,v1,29502
a0815b28:	705f7264 	0x705f7264
a0815b2c:	303d7968 	andi	sp,at,0x7968
a0815b30:	20782578 	addi	t8,v1,9592
a0815b34:	00000000 	nop
a0815b38:	646e6573 	daddiu	t6,v1,25971
a0815b3c:	73696420 	0x73696420
a0815b40:	20627263 	addi	v0,v1,29283
a0815b44:	2d63616d 	sltiu	v1,t3,24941
a0815b48:	5f64743e 	0x5f64743e
a0815b4c:	3d796870 	0x3d796870
a0815b50:	78257830 	0x78257830
a0815b54:	0000000a 	0xa
a0815b58:	69636572 	ldl	v1,25970(t3)
a0815b5c:	20657665 	addi	a1,v1,30309
a0815b60:	66667562 	daddiu	a2,s3,30050
a0815b64:	61207265 	daddi	zero,t1,29285
a0815b68:	6d206464 	ldr	zero,25700(t1)
a0815b6c:	3e2d6361 	0x3e2d6361
a0815b70:	64646164 	daddiu	a0,v1,24932
a0815b74:	78303d72 	0x78303d72
a0815b78:	00207825 	move	t7,at
a0815b7c:	2d63616d 	sltiu	v1,t3,24941
a0815b80:	6461643e 	daddiu	at,v1,25662
a0815b84:	705f7264 	0x705f7264
a0815b88:	303d7968 	andi	sp,at,0x7968
a0815b8c:	20782578 	addi	t8,v1,9592
a0815b90:	00000000 	nop
a0815b94:	69636572 	ldl	v1,25970(t3)
a0815b98:	20657665 	addi	a1,v1,30309
a0815b9c:	63736964 	daddi	s3,k1,26980
a0815ba0:	61206272 	daddi	zero,t1,25202
a0815ba4:	6d206464 	ldr	zero,25700(t1)
a0815ba8:	3e2d6361 	0x3e2d6361
a0815bac:	705f6472 	0x705f6472
a0815bb0:	303d7968 	andi	sp,at,0x7968
a0815bb4:	0a782578 	j	a9e095e0 <__bbs_end+0x95949b4>
a0815bb8:	00000000 	nop

a0815bbc <C.44.1901>:
a0815bbc:	b57b5500 0000f77d 00207825 0000000a     .U{.}...%x .....
a0815bcc:	00000000 09206d45 20644920 32562009     ....Em . Id . V2
a0815bdc:	50200920 20092030 00003150 20202020      . P0 . P1..    
a0815bec:	20202020 20202020 20202020 20202020                     
a0815bfc:	20202020 20202020 20202020 20202020                     
a0815c0c:	00002020 09206425 00000000 00206425       ..%d .....%d .
a0815c1c:	74696e69 6378655f 69747065 00006e6f     init_exception..
a0815c2c:	55424544 3e3e2047 00000020 25206425     DEBUG >> ...%d %
a0815c3c:	00000064 25206425 64252064 00000000     d...%d %d %d....
a0815c4c:	00006425 4f525245 43202152 65727275     %d..ERROR! Curre
a0815c5c:	7220746e 696e6e75 7020676e 69206469     nt running pid i
a0815c6c:	64252073 7562202c 69762074 61757472     s %d, but virtua
a0815c7c:	6461206c 73657264 73692073 206e6920     l address is in 
a0815c8c:	20646970 61206425 65726464 73207373     pid %d address s
a0815c9c:	65636170 00000000 25206425 64252064     pace....%d %d %d
a0815cac:	20642520 00006425 00000000 00000000      %d %d..........
a0815cbc:	00000000 2053465b 4f525245 45205d52     ....[FS ERROR] E
a0815ccc:	524f5252 5249445f 4d554e5f 434e495f     RROR_DIR_NUM_INC
a0815cdc:	4552524f 000a5443 2053465b 4f525245     ORRECT..[FS ERRO
a0815cec:	45205d52 524f5252 4e45445f 5f595254     R] ERROR_DENTRY_
a0815cfc:	54544553 5f474e49 4f434e49 43455252     SETTING_INCORREC
a0815d0c:	00000a54 00002f2e 0000002f 2053465b     T..../../...[FS 
a0815d1c:	4f525245 45205d52 524f5252 5f4f4e5f     ERROR] ERROR_NO_
a0815d2c:	45455246 4f4e495f 000a4544 2053465b     FREE_INODE..[FS 
a0815d3c:	4f525245 45205d52 524f5252 5f4f4e5f     ERROR] ERROR_NO_
a0815d4c:	45455246 4f4c425f 000a4b43 5d53465b     FREE_BLOCK..[FS]
a0815d5c:	6c694620 79732065 6d657473 69786520      File system exi
a0815d6c:	20737473 74206e69 64206568 216b7369     sts in the disk!
a0815d7c:	20202020 000a2020 5d53465b 6c694620           ..[FS] Fil
a0815d8c:	79732065 6d657473 72756320 746e6572     e system current
a0815d9c:	666e6920 616d726f 3a6e6974 20202020      informatin:    
a0815dac:	000a2020 20202020 67616d20 6e206369       ..     magic n
a0815dbc:	65626d75 203a2072 78257830 20202020     umber : 0x%x    
a0815dcc:	20202020 20202020 20202020 000a2020                   ..
a0815ddc:	20202020 6c696620 79732065 6d657473          file system
a0815dec:	7a697320 203a2065 78257830 20202020      size : 0x%x    
a0815dfc:	20202020 20202020 000a2020 20202020               ..    
a0815e0c:	6f6c6220 73206b63 20657a69 7830203a      block size : 0x
a0815e1c:	20207825 20202020 20202020 20202020     %x              
a0815e2c:	20202020 000a2020 20202020 746f7420           ..     tot
a0815e3c:	62206c61 6b636f6c 203a2073 20206425     al blocks : %d  
a0815e4c:	20202020 20202020 20202020 20202020                     
a0815e5c:	000a2020 20202020 65726620 6c622065       ..     free bl
a0815e6c:	736b636f 25203a20 20202064 20202020     ocks : %d       
a0815e7c:	20202020 20202020 20202020 000a2020                   ..
a0815e8c:	20202020 746f7420 69206c61 65646f6e          total inode
a0815e9c:	203a2073 20206425 20202020 20202020     s : %d          
a0815eac:	20202020 20202020 000a2020 20202020               ..    
a0815ebc:	65726620 6e692065 7365646f 25203a20      free inodes : %
a0815ecc:	20202064 20202020 20202020 20202020     d               
a0815edc:	20202020 000a2020 20202020 6f6c6220           ..     blo
a0815eec:	62206b63 616d7469 74732070 2d747261     ck bitmap start-
a0815efc:	636f6c62 6e69206b 20786564 6425203a     block index : %d
a0815f0c:	000a2020 20202020 20202020 20202020       ..            
a0815f1c:	20202020 69642020 6f206b73 65736666           disk offse
a0815f2c:	203a2074 20206425 20202020 000a2020     t : %d        ..
a0815f3c:	20202020 6f6e6920 62206564 616d7469          inode bitma
a0815f4c:	74732070 2d747261 636f6c62 6e69206b     p start-block in
a0815f5c:	20786564 6425203a 000a2020 20202020     dex : %d  ..    
a0815f6c:	6f6e6920 74206564 656c6261 61747320      inode table sta
a0815f7c:	622d7472 6b636f6c 646e6920 3a207865     rt-block index :
a0815f8c:	20642520 000a2020 20202020 20202020      %d   ..        
a0815f9c:	20202020 20202020 73696420 666f206b              disk of
a0815fac:	74657366 25203a20 20202064 20202020     fset : %d       
a0815fbc:	000a2020 20202020 6c696620 61642065       ..     file da
a0815fcc:	73206174 74726174 6f6c622d 69206b63     ta start-block i
a0815fdc:	7865646e 25203a20 20202064 000a2020     ndex : %d     ..
a0815fec:	20202020 6f6e6920 65206564 7972746e          inode entry
a0815ffc:	7a697320 203a2065 20206425 20202020      size : %d      
a081600c:	20202020 20202020 000a2020 20202020               ..    
a081601c:	72696420 746e6520 73207972 20657a69      dir entry size 
a081602c:	6425203a 20202020 20202020 20202020     : %d            
a081603c:	20202020 000a2020 0000002e 00002e2e           ..........
a081604c:	5d53465b 61745320 6e697472 6e692067     [FS] Starting in
a081605c:	61697469 657a696c 6c696620 79732065     itialize file sy
a081606c:	6d657473 20202021 0a202020 00000000     stem!      .....
a081607c:	5d53465b 74655320 676e6974 70757320     [FS] Setting sup
a081608c:	6c627265 2e6b636f 20202e2e 20202020     erblock...      
a081609c:	20202020 20202020 0a202020 00000000                .....
a08160ac:	20202020 67616d20 6e206369 65626d75          magic numbe
a08160bc:	203a2072 78257830 2020202c 20202020     r : 0x%x,       
a08160cc:	20202020 20202020 0a202020 00000000                .....
a08160dc:	20202020 6c696620 79732065 6d657473          file system
a08160ec:	7a697320 203a2065 78257830 2020202c      size : 0x%x,   
a08160fc:	20202020 20202020 0a202020 00000000                .....
a081610c:	20202020 6f6c6220 73206b63 20657a69          block size 
a081611c:	7830203a 202c7825 20202020 20202020     : 0x%x,         
a081612c:	20202020 20202020 0a202020 00000000                .....
a081613c:	20202020 746f7420 62206c61 6b636f6c          total block
a081614c:	203a2073 202c6425 20202020 20202020     s : %d,         
a081615c:	20202020 20202020 0a202020 00000000                .....
a081616c:	20202020 746f7420 69206c61 65646f6e          total inode
a081617c:	203a2073 202c6425 20202020 20202020     s : %d,         
a081618c:	20202020 20202020 0a202020 00000000                .....
a081619c:	20202020 6f6c6220 62206b63 616d7469          block bitma
a08161ac:	74732070 2d747261 636f6c62 6e69206b     p start-block in
a08161bc:	20786564 6425203a 0a20202c 00000000     dex : %d,  .....
a08161cc:	20202020 20202020 20202020 20202020                     
a08161dc:	69642020 6f206b73 65736666 203a2074       disk offset : 
a08161ec:	202c6425 20202020 0a202020 00000000     %d,        .....
a08161fc:	20202020 6f6e6920 62206564 616d7469          inode bitma
a081620c:	74732070 2d747261 636f6c62 6e69206b     p start-block in
a081621c:	20786564 6425203a 0a20202c 00000000     dex : %d,  .....
a081622c:	20202020 6f6e6920 74206564 656c6261          inode table
a081623c:	61747320 622d7472 6b636f6c 646e6920      start-block ind
a081624c:	3a207865 2c642520 0a202020 00000000     ex : %d,   .....
a081625c:	20202020 20202020 20202020 20202020                     
a081626c:	73696420 666f206b 74657366 25203a20      disk offset : %
a081627c:	20202c64 20202020 0a202020 00000000     d,         .....
a081628c:	20202020 6c696620 61642065 73206174          file data s
a081629c:	74726174 6f6c622d 69206b63 7865646e     tart-block index
a08162ac:	25203a20 20202c64 0a202020 00000000      : %d,     .....
a08162bc:	20202020 6f6e6920 65206564 7972746e          inode entry
a08162cc:	7a697320 203a2065 202c6425 20202020      size : %d,     
a08162dc:	20202020 20202020 0a202020 00000000                .....
a08162ec:	20202020 72696420 746e6520 73207972          dir entry s
a08162fc:	20657a69 6425203a 2020202c 20202020     ize : %d,       
a081630c:	20202020 20202020 0a202020 00000000                .....
a081631c:	5d53465b 74655320 676e6974 6f6e6920     [FS] Setting ino
a081632c:	62206564 616d7469 2e2e2e70 20202020     de bitmap...    
a081633c:	20202020 20202020 0a202020 00000000                .....
a081634c:	5d53465b 74655320 676e6974 6f6c6220     [FS] Setting blo
a081635c:	62206b63 616d7469 2e2e2e70 20202020     ck bitmap...    
a081636c:	20202020 20202020 0a202020 00000000                .....
a081637c:	5d53465b 74655320 676e6974 6f6e6920     [FS] Setting ino
a081638c:	74206564 656c6261 202e2e2e 20202020     de table...     
a081639c:	20202020 20202020 0a202020 00000000                .....
a08163ac:	5d53465b 696e4920 6c616974 6e697a69     [FS] Initializin
a08163bc:	69662067 7320656c 65747379 6966206d     g file system fi
a08163cc:	6873696e 20216465 0a202020 00000000     nished!    .....
a08163dc:	5d53465b 6c694620 79732065 6d657473     [FS] File system
a08163ec:	72756320 746e6572 666e6920 616d726f      current informa
a08163fc:	3a6e6974 20202020 00000a20 20202020     tin:     ...    
a081640c:	67616d20 6e206369 65626d75 203a2072      magic number : 
a081641c:	78257830 20202020 20202020 20202020     0x%x            
a081642c:	20202020 00000a20 20202020 6c696620          ...     fil
a081643c:	79732065 6d657473 7a697320 203a2065     e system size : 
a081644c:	78257830 20202020 20202020 20202020     0x%x            
a081645c:	00000a20 20202020 6f6c6220 73206b63      ...     block s
a081646c:	20657a69 7830203a 20207825 20202020     ize : 0x%x      
a081647c:	20202020 20202020 20202020 00000a20                  ...
a081648c:	20202020 746f7420 62206c61 6b636f6c          total block
a081649c:	203a2073 20206425 20202020 20202020     s : %d          
a08164ac:	20202020 20202020 00000a20 20202020              ...    
a08164bc:	65726620 6c622065 736b636f 25203a20      free blocks : %
a08164cc:	20202064 20202020 20202020 20202020     d               
a08164dc:	20202020 00000a20 20202020 746f7420          ...     tot
a08164ec:	69206c61 65646f6e 203a2073 20206425     al inodes : %d  
a08164fc:	20202020 20202020 20202020 20202020                     
a081650c:	00000a20 20202020 65726620 6e692065      ...     free in
a081651c:	7365646f 25203a20 20202064 20202020     odes : %d       
a081652c:	20202020 20202020 20202020 00000a20                  ...
a081653c:	20202020 6f6c6220 62206b63 616d7469          block bitma
a081654c:	74732070 2d747261 636f6c62 6e69206b     p start-block in
a081655c:	20786564 6425203a 00000a20 20202020     dex : %d ...    
a081656c:	20202020 20202020 20202020 69642020                   di
a081657c:	6f206b73 65736666 203a2074 20206425     sk offset : %d  
a081658c:	20202020 00000a20 20202020 6f6e6920          ...     ino
a081659c:	62206564 616d7469 74732070 2d747261     de bitmap start-
a08165ac:	636f6c62 6e69206b 20786564 6425203a     block index : %d
a08165bc:	00000a20 20202020 6f6e6920 74206564      ...     inode t
a08165cc:	656c6261 61747320 622d7472 6b636f6c     able start-block
a08165dc:	646e6920 3a207865 20642520 00000a20      index : %d  ...
a08165ec:	20202020 20202020 20202020 20202020                     
a08165fc:	73696420 666f206b 74657366 25203a20      disk offset : %
a081660c:	20202064 20202020 00000a20 20202020     d        ...    
a081661c:	6c696620 61642065 73206174 74726174      file data start
a081662c:	6f6c622d 69206b63 7865646e 25203a20     -block index : %
a081663c:	20202064 00000a20 20202020 6f6e6920     d    ...     ino
a081664c:	65206564 7972746e 7a697320 203a2065     de entry size : 
a081665c:	20206425 20202020 20202020 20202020     %d              
a081666c:	00000a20 20202020 72696420 746e6520      ...     dir ent
a081667c:	73207972 20657a69 6425203a 20202020     ry size : %d    
a081668c:	20202020 20202020 20202020 00000a20                  ...
a081669c:	2053465b 4f525245 45205d52 524f5252     [FS ERROR] ERROR
a08166ac:	5055445f 5249445f 4d414e5f 00000a45     _DUP_DIR_NAME...
a08166bc:	00000000 6b736174 00000031 6b736174     ....task1...task
a08166cc:	00000032 6b736174 00000033 6b736174     2...task3...task
a08166dc:	00000034 6b736174 00000035 6b736174     4...task5...task
a08166ec:	00000036 6b736174 00000037 6b736174     6...task7...task
a08166fc:	00000038 6b736174 00000039 6b736174     8...task9...task
a081670c:	00003031 6b736174 00003131 6b736174     10..task11..task
a081671c:	00003231 516e7553 006e6175 4275694c     12..SunQuan.LiuB
a081672c:	00006965 436f6143 00006f61 6b736174     ei..CaoCao..task
a081673c:	2e312d34 00000031 6b736174 2e312d34     4-1.1...task4-1.
a081674c:	00000032 6b736174 2e322d34 00000031     2...task4-2.1...
a081675c:	6b736174 2e322d34 00000032 70617773     task4-2.2...swap
a081676c:	6f727020 73736563 00000000 646e6573      process....send
a081677c:	00000000 76636572 00000000 74696e69     ....recv....init
a081678c:	0063616d 756e6f62 00000073 74736574     mac.bonus...test
a081679c:	0073665f 00007370 61656c63 00000072     _fs.ps..clear...
a08167ac:	77617073 0000006e 63657865 00000000     spawn...exec....
a08167bc:	6c6c696b 00000000 2d2d2d2d 2d2d2d2d     kill....--------
a08167cc:	2d2d2d2d 2d2d2d2d 4d4f432d 444e414d     ---------COMMAND
a08167dc:	2d2d2d2d 2d2d2d2d 2d2d2d2d 2d2d2d2d     ----------------
a08167ec:	0a2d2d2d 00000000 6f72203e 5540746f     ---.....> root@U
a08167fc:	5f534143 203a534f 00000000 00006325     CAS_OS: ....%c..
a081680c:	4f52505b 53534543 42415420 0a5d454c     [PROCESS TABLE].
a081681c:	00000000 5d64255b 44495020 25203a20     ....[%d] PID : %
a081682c:	54532064 53555441 25203a20 00000a73     d STATUS : %s...
a081683c:	63657865 73657420 61745f74 5b736b73     exec test_tasks[
a081684c:	2e5d6425 0000000a 6c6c696b 6f727020     %d].....kill pro
a081685c:	73736563 44495020 25203d20 00000a64     cess PID = %d...
a081686c:	73252020 00000000 0000000a 20746163       %s........cat 
a081687c:	7074756f 0a3a7475 00000000 73697845     output:.....Exis
a081688c:	6e692074 65687420 72696420 6f746365     t in the directo
a081689c:	000a7972 20746f4e 73697865 6e692074     ry..Not exist in
a08168ac:	65687420 72696420 6f746365 000a7972      the directory..
a08168bc:	4b534154 4f4c425f 44454b43 00000000     TASK_BLOCKED....
a08168cc:	4b534154 4e55525f 474e494e 00000000     TASK_RUNNING....
a08168dc:	4b534154 4145525f 00005944 4b534154     TASK_READY..TASK
a08168ec:	4958455f 00444554 4b534154 4552435f     _EXITED.TASK_CRE
a08168fc:	44455441 00000000 4b534154 454c535f     ATED....TASK_SLE
a081690c:	4e495045 00000047 61766e49 2064696c     EPING...Invalid 
a081691c:	74617453 00007375 a0812a10 a0812a24     Status...*..$*..
a081692c:	a0812a38 a0812a4c a0812a60 a0812a74     8*..L*..`*..t*..
a081693c:	00000000 545b203e 5d4b5341 61655220     ....> [TASK] Rea
a081694c:	74207964 6e65206f 20726574 20656874     dy to enter the 
a081695c:	72726162 2e726569 29642528 00000000     barrier.(%d)....
a081696c:	545b203e 5d4b5341 69784520 20646574     > [TASK] Exited 
a081697c:	72726162 20726569 29642528 2020202e     barrier (%d).   
a081698c:	20202020 20202020 00000000 00000000             ........
a081699c:	00000000 545b203e 5d4b5341 746f5420     ....> [TASK] Tot
a08169ac:	70206c61 75646f72 20646563 70206425     al produced %d p
a08169bc:	75646f72 2e737463 00000000 545b203e     roducts.....> [T
a08169cc:	5d4b5341 746f5420 63206c61 75736e6f     ASK] Total consu
a08169dc:	2064656d 70206425 75646f72 2e737463     med %d products.
a08169ec:	00000000 545b203e 204b5341 49205d31     ....> [TASK 1] I
a08169fc:	206d6120 6b736174 74697720 69702068      am task with pi
a0816a0c:	64252064 2049202c 65766168 71636120     d %d, I have acq
a0816a1c:	65726975 77742064 756d206f 20786574     uired two mutex 
a0816a2c:	6b636f6c 2528202e 00002964 545b203e     lock. (%d)..> [T
a0816a3c:	204b5341 49205d32 6e617720 6f742074     ASK 2] I want to
a0816a4c:	71636120 65726975 6d206120 20657475      acquire a mute 
a0816a5c:	6b636f6c 6f726620 6174206d 70286b73     lock from task(p
a0816a6c:	323d6469 00002e29 545b203e 204b5341     id=2)...> [TASK 
a0816a7c:	49205d32 76616820 63612065 72697571     2] I have acquir
a0816a8c:	61206465 74756d20 6c207865 206b636f     ed a mutex lock 
a0816a9c:	6d6f7266 73617420 6970286b 29323d64     from task(pid=2)
a0816aac:	0000002e 545b203e 204b5341 49205d32     ....> [TASK 2] I
a0816abc:	6e617720 6f742074 69617720 61742074      want to wait ta
a0816acc:	28206b73 3d646970 74202932 7865206f     sk (pid=2) to ex
a0816adc:	002e7469 545b203e 204b5341 54205d32     it..> [TASK 2] T
a0816aec:	206b7361 64697028 2029323d 20736168     ask (pid=2) has 
a0816afc:	74697865 202e6465 20202020 20202020     exited.         
a0816b0c:	20202020 00202020 00000000 00000000            .........
a0816b1c:	00000000 516e7553 006e6175 4275694c     ....SunQuan.LiuB
a0816b2c:	00006965 436f6143 00006f61 516e7553     ei..CaoCao..SunQ
a0816b3c:	2d6e6175 6c627550 2d687369 00444950     uan-Publish-PID.
a0816b4c:	4275694c 502d6965 696c6275 502d6873     LiuBei-Publish-P
a0816b5c:	00004449 6e75535b 6e617551 6425285d     ID..[SunQuan](%d
a0816b6c:	57203a29 65726568 65726120 756f7920     ): Where are you
a0816b7c:	75694c20 3f696562 20202020 20202020      Liubei?        
a0816b8c:	20202020 20202020 00000000 6e75535b             ....[Sun
a0816b9c:	6e617551 6425285d 49203a29 77206d27     Quan](%d): I'm w
a0816bac:	69746961 6620676e 4c20726f 65627569     aiting for Liube
a0816bbc:	25282069 20202964 20202020 20202020     i (%d)          
a0816bcc:	00000000 6e75535b 6e617551 6425285d     ....[SunQuan](%d
a0816bdc:	49203a29 63206d27 6e696d6f 6f742067     ): I'm coming to
a0816bec:	76617320 6f792065 4c202c75 65427569      save you, LiuBe
a0816bfc:	00002169 75694c5b 5d696542 29642528     i!..[LiuBei](%d)
a0816c0c:	6857203a 20657265 20657261 20756f79     : Where are you 
a0816c1c:	516e7553 3f6e6175 20202020 20202020     SunQuan?        
a0816c2c:	00002020 75694c5b 5d696542 29642528       ..[LiuBei](%d)
a0816c3c:	2749203a 6177206d 6e697469 6f662067     : I'm waiting fo
a0816c4c:	75532072 6175516e 2528206e 20202964     r SunQuan (%d)  
a0816c5c:	00002020 75694c5b 5d696542 29642528       ..[LiuBei](%d)
a0816c6c:	2749203a 6f63206d 676e696d 206f7420     : I'm coming to 
a0816c7c:	65766173 756f7920 7553202c 6175516e     save you, SunQua
a0816c8c:	0000216e 6f61435b 5d6f6143 29642528     n!..[CaoCao](%d)
a0816c9c:	2049203a 77206d61 696b726f 2e2e676e     : I am working..
a0816cac:	756d202e 68616861 00002061 6f61435b     . muahaha ..[Cao
a0816cbc:	5d6f6143 29642528 2049203a 65766168     Cao](%d): I have
a0816ccc:	20796d20 69636564 6e6f6973 00002021      my decision! ..
a0816cdc:	6f61435b 5d6f6143 29642528 2049203a     [CaoCao](%d): I 
a0816cec:	6c6c6977 6c696b20 7553206c 6175516e     will kill SunQua
a0816cfc:	2528206e 20212964 00000020 6f61435b     n (%d)!  ...[Cao
a0816d0c:	5d6f6143 20756962 20756962 20756962     Cao]biu biu biu 
a0816d1c:	7e7e7e7e 41207e7e 41414141 20414141     ~~~~~~ AAAAAAAA 
a0816d2c:	516e7553 206e6175 64207369 20646165     SunQuan is dead 
a0816d3c:	2e514151 00000000 6f61435b 5d6f6143     QAQ.....[CaoCao]
a0816d4c:	29642528 6f4f203a 20217370 516e7553     (%d): Oops! SunQ
a0816d5c:	286e6175 20296425 6576696c 20202173     uan(%d) lives!  
a0816d6c:	20202020 20202020 20202020 00202020                    .
a0816d7c:	6f61435b 5d6f6143 29642528 2049203a     [CaoCao](%d): I 
a0816d8c:	6c6c6977 6c696b20 694c206c 69654275     will kill LiuBei
a0816d9c:	29642528 00002021 6f61435b 5d6f6143     (%d)! ..[CaoCao]
a0816dac:	20756962 20756962 20756962 7e7e7e7e     biu biu biu ~~~~
a0816dbc:	41207e7e 41414141 20414141 6275694c     ~~ AAAAAAAA Liub
a0816dcc:	69206965 65642073 51206461 002e5141     ei is dead QAQ..
a0816ddc:	6f61435b 5d6f6143 29642528 6f4f203a     [CaoCao](%d): Oo
a0816dec:	20217370 4275694c 25286965 69202964     ps! LiuBei(%d) i
a0816dfc:	6c612073 20657669 69616761 0020216e     s alive again! .
a0816e0c:	00000000 545b203e 5d4b5341 72756320     ....> [TASK] cur
a0816e1c:	746e6572 6f6c6720 206c6162 756c6176     rent global valu
a0816e2c:	64252065 2528202e 00002964 00000000     e %d. (%d)......
a0816e3c:	00000000 00007325 00000000 00000000     ....%s..........
a0816e4c:	00000000 74697257 64412065 73657264     ....Write Addres
a0816e5c:	20312073 0000203a 00006325 74697257     s 1 : ..%c..Writ
a0816e6c:	754e2065 7265626d 25203a20 00000064     e Number : %d...
a0816e7c:	69206425 72772073 65747469 6f74206e     %d is written to
a0816e8c:	72697620 6c617574 64646120 20312072      virtual addr 1 
a0816e9c:	6425203a 00000000 74697257 64412065     : %d....Write Ad
a0816eac:	73657264 20322073 0000203a 69206425     dress 2 : ..%d i
a0816ebc:	72772073 65747469 6f74206e 72697620     s written to vir
a0816ecc:	6c617574 64646120 20322072 6425203a     tual addr 2 : %d
a0816edc:	00000000 64616552 64644120 73736572     ....Read Address
a0816eec:	3a203120 00000020 64616552 63757320      1 : ...Read suc
a0816efc:	64656563 6425203a 00000000 64616552     ceed: %d....Read
a0816f0c:	72726520 203a726f 00006425 64616552      error: %d..Read
a0816f1c:	64644120 73736572 3a203220 00000020      Address 2 : ...
a0816f2c:	00000000 5f626c74 69666572 635f6c6c     ....tlb_refill_c
a0816f3c:	746e756f 25203a20 00000064 5f626c74     ount : %d...tlb_
a0816f4c:	61766e69 5f64696c 6e756f63 203a2074     invalid_count : 
a0816f5c:	00006425 00007325 00000000 00000000     %d..%s..........
a0816f6c:	00000000 00006325 5f626c74 69666572     ....%c..tlb_refi
a0816f7c:	635f6c6c 746e756f 25203a20 00000064     ll_count : %d...
a0816f8c:	5f626c74 61766e69 5f64696c 6e756f63     tlb_invalid_coun
a0816f9c:	203a2074 00006425 74697257 64412065     t : %d..Write Ad
a0816fac:	73657264 20312073 0000203a 74697257     dress 1 : ..Writ
a0816fbc:	754e2065 7265626d 25203a20 00000064     e Number : %d...
a0816fcc:	69206425 72772073 65747469 6f74206e     %d is written to
a0816fdc:	72697620 6c617574 64646120 20312072      virtual addr 1 
a0816fec:	6425203a 00000000 74697257 64412065     : %d....Write Ad
a0816ffc:	73657264 20322073 0000203a 69206425     dress 2 : ..%d i
a081700c:	72772073 65747469 6f74206e 72697620     s written to vir
a081701c:	6c617574 64646120 20322072 6425203a     tual addr 2 : %d
a081702c:	00000000 64616552 64644120 73736572     ....Read Address
a081703c:	3a203120 00000020 64616552 63757320      1 : ...Read suc
a081704c:	64656563 6425203a 00000000 64616552     ceed: %d....Read
a081705c:	72726520 203a726f 00006425 64616552      error: %d..Read
a081706c:	64644120 73736572 3a203220 00000020      Address 2 : ...
a081707c:	00000000 535b203e 20444e45 4b534154     ....> [SEND TASK
a081708c:	7473205d 20747261 646e6573 63617020     ] start send pac
a081709c:	6567616b 2020202e 20202020 20202020     kage.           
a08170ac:	20202020 0000000a 535b203e 20444e45         ....> [SEND 
a08170bc:	4b534154 6f6e205d 6f742077 6c6c6174     TASK] now totall
a08170cc:	65732079 7020646e 616b6361 25206567     y send package %
a08170dc:	20212064 20202020 0a202020 00000000     d !        .....
a08170ec:	535b203e 20444e45 4b534154 6573205d     > [SEND TASK] se
a08170fc:	7420646e 206b7361 696e6966 64656873     nd task finished
a081710c:	20202020 20202020 0000000a 525b203e             ....> [R
a081711c:	20564345 4b534154 7473205d 20747261     ECV TASK] start 
a081712c:	76636572 2020203a 20202020 20202020     recv:           
a081713c:	20202020 20202020 00000020 525b203e              ...> [R
a081714c:	20564345 4b534154 6177205d 6e697469     ECV TASK] waitin
a081715c:	65722067 76696563 61702065 67616b63     g receive packag
a081716c:	000a2e65 525b203e 20564345 4b534154     e...> [RECV TASK
a081717c:	3436205d 63617020 6567616b 65722073     ] 64 packages re
a081718c:	76696563 202c6465 20776f6e 74697865     ceived, now exit
a081719c:	00000a2e 495b203e 5d54494e 69615720     ....> [INIT] Wai
a08171ac:	676e6974 726f6620 43414d20 696e6920     ting for MAC ini
a08171bc:	6c616974 74617a69 206e6f69 00000a2e     tialization ....
a08171cc:	495b203e 5d54494e 43414d20 696e6920     > [INIT] MAC ini
a08171dc:	6c616974 74617a69 206e6f69 63637573     tialization succ
a08171ec:	65646565 20202e64 20202020 20202020     eeded.          
a08171fc:	00000a20 525b203e 20564345 4b534154      ...> [RECV TASK
a081720c:	2a32205d 7020372a 7220676b 69656365     ] 2**7 pkg recei
a081721c:	2e646576 0000000a 00000000 00000000     ved.............
a081722c:	00000000 78742e31 00000074 6c6c6568     ....1.txt...hell
a081723c:	6f77206f 21646c72 0000000a 00006325     o world!....%c..
a081724c:	00000000 fffffffe 00000000 00000000     ................
	...
